
Drivers.axf:     file format elf32-littlearm


Disassembly of section .isr_vector:

08000000 <g_pfnVectors>:
 8000000:	20002800 	andcs	r2, r0, r0, lsl #16
 8000004:	080003ad 	stmdaeq	r0, {r0, r2, r3, r5, r7, r8, r9}
 8000008:	080003fd 	stmdaeq	r0, {r0, r2, r3, r4, r5, r6, r7, r8, r9}
 800000c:	080003fd 	stmdaeq	r0, {r0, r2, r3, r4, r5, r6, r7, r8, r9}
 8000010:	080003fd 	stmdaeq	r0, {r0, r2, r3, r4, r5, r6, r7, r8, r9}
 8000014:	080003fd 	stmdaeq	r0, {r0, r2, r3, r4, r5, r6, r7, r8, r9}
 8000018:	080003fd 	stmdaeq	r0, {r0, r2, r3, r4, r5, r6, r7, r8, r9}
	...
 800002c:	08000351 	stmdaeq	r0, {r0, r4, r6, r8, r9}
 8000030:	080003fd 	stmdaeq	r0, {r0, r2, r3, r4, r5, r6, r7, r8, r9}
 8000034:	00000000 	andeq	r0, r0, r0
 8000038:	080003fd 	stmdaeq	r0, {r0, r2, r3, r4, r5, r6, r7, r8, r9}
 800003c:	080003fd 	stmdaeq	r0, {r0, r2, r3, r4, r5, r6, r7, r8, r9}
 8000040:	080003fd 	stmdaeq	r0, {r0, r2, r3, r4, r5, r6, r7, r8, r9}
 8000044:	080003fd 	stmdaeq	r0, {r0, r2, r3, r4, r5, r6, r7, r8, r9}
 8000048:	080003fd 	stmdaeq	r0, {r0, r2, r3, r4, r5, r6, r7, r8, r9}
 800004c:	080003fd 	stmdaeq	r0, {r0, r2, r3, r4, r5, r6, r7, r8, r9}
 8000050:	080003fd 	stmdaeq	r0, {r0, r2, r3, r4, r5, r6, r7, r8, r9}
 8000054:	080003fd 	stmdaeq	r0, {r0, r2, r3, r4, r5, r6, r7, r8, r9}
 8000058:	0800078d 	stmdaeq	r0, {r0, r2, r3, r7, r8, r9, sl}
 800005c:	080007b1 	stmdaeq	r0, {r0, r4, r5, r7, r8, r9, sl}
 8000060:	080007d5 	stmdaeq	r0, {r0, r2, r4, r6, r7, r8, r9, sl}
 8000064:	080007f9 	stmdaeq	r0, {r0, r3, r4, r5, r6, r7, r8, r9, sl}
 8000068:	0800081d 	stmdaeq	r0, {r0, r2, r3, r4, fp}
 800006c:	080003fd 	stmdaeq	r0, {r0, r2, r3, r4, r5, r6, r7, r8, r9}
 8000070:	080003fd 	stmdaeq	r0, {r0, r2, r3, r4, r5, r6, r7, r8, r9}
 8000074:	080003fd 	stmdaeq	r0, {r0, r2, r3, r4, r5, r6, r7, r8, r9}
 8000078:	080003fd 	stmdaeq	r0, {r0, r2, r3, r4, r5, r6, r7, r8, r9}
 800007c:	080003fd 	stmdaeq	r0, {r0, r2, r3, r4, r5, r6, r7, r8, r9}
 8000080:	080003fd 	stmdaeq	r0, {r0, r2, r3, r4, r5, r6, r7, r8, r9}
 8000084:	080003fd 	stmdaeq	r0, {r0, r2, r3, r4, r5, r6, r7, r8, r9}
 8000088:	080003fd 	stmdaeq	r0, {r0, r2, r3, r4, r5, r6, r7, r8, r9}
 800008c:	080003fd 	stmdaeq	r0, {r0, r2, r3, r4, r5, r6, r7, r8, r9}
 8000090:	080003fd 	stmdaeq	r0, {r0, r2, r3, r4, r5, r6, r7, r8, r9}
 8000094:	080003fd 	stmdaeq	r0, {r0, r2, r3, r4, r5, r6, r7, r8, r9}
 8000098:	080003fd 	stmdaeq	r0, {r0, r2, r3, r4, r5, r6, r7, r8, r9}
 800009c:	08000841 	stmdaeq	r0, {r0, r6, fp}
 80000a0:	080003fd 	stmdaeq	r0, {r0, r2, r3, r4, r5, r6, r7, r8, r9}
 80000a4:	080003fd 	stmdaeq	r0, {r0, r2, r3, r4, r5, r6, r7, r8, r9}
 80000a8:	080003fd 	stmdaeq	r0, {r0, r2, r3, r4, r5, r6, r7, r8, r9}
 80000ac:	080003fd 	stmdaeq	r0, {r0, r2, r3, r4, r5, r6, r7, r8, r9}
 80000b0:	080003fd 	stmdaeq	r0, {r0, r2, r3, r4, r5, r6, r7, r8, r9}
 80000b4:	080003fd 	stmdaeq	r0, {r0, r2, r3, r4, r5, r6, r7, r8, r9}
 80000b8:	080003fd 	stmdaeq	r0, {r0, r2, r3, r4, r5, r6, r7, r8, r9}
 80000bc:	080003fd 	stmdaeq	r0, {r0, r2, r3, r4, r5, r6, r7, r8, r9}
 80000c0:	080003fd 	stmdaeq	r0, {r0, r2, r3, r4, r5, r6, r7, r8, r9}
 80000c4:	080003fd 	stmdaeq	r0, {r0, r2, r3, r4, r5, r6, r7, r8, r9}
 80000c8:	080003fd 	stmdaeq	r0, {r0, r2, r3, r4, r5, r6, r7, r8, r9}
 80000cc:	080003fd 	stmdaeq	r0, {r0, r2, r3, r4, r5, r6, r7, r8, r9}
 80000d0:	080003fd 	stmdaeq	r0, {r0, r2, r3, r4, r5, r6, r7, r8, r9}
 80000d4:	080003fd 	stmdaeq	r0, {r0, r2, r3, r4, r5, r6, r7, r8, r9}
 80000d8:	080003fd 	stmdaeq	r0, {r0, r2, r3, r4, r5, r6, r7, r8, r9}
 80000dc:	080003fd 	stmdaeq	r0, {r0, r2, r3, r4, r5, r6, r7, r8, r9}
 80000e0:	080008e9 	stmdaeq	r0, {r0, r3, r5, r6, r7, fp}
 80000e4:	080003fd 	stmdaeq	r0, {r0, r2, r3, r4, r5, r6, r7, r8, r9}
 80000e8:	00000000 	andeq	r0, r0, r0
 80000ec:	080003fd 	stmdaeq	r0, {r0, r2, r3, r4, r5, r6, r7, r8, r9}
 80000f0:	080003fd 	stmdaeq	r0, {r0, r2, r3, r4, r5, r6, r7, r8, r9}
 80000f4:	080003fd 	stmdaeq	r0, {r0, r2, r3, r4, r5, r6, r7, r8, r9}
 80000f8:	080003fd 	stmdaeq	r0, {r0, r2, r3, r4, r5, r6, r7, r8, r9}
 80000fc:	080003fd 	stmdaeq	r0, {r0, r2, r3, r4, r5, r6, r7, r8, r9}
 8000100:	080003fd 	stmdaeq	r0, {r0, r2, r3, r4, r5, r6, r7, r8, r9}
 8000104:	080003fd 	stmdaeq	r0, {r0, r2, r3, r4, r5, r6, r7, r8, r9}
 8000108:	080003fd 	stmdaeq	r0, {r0, r2, r3, r4, r5, r6, r7, r8, r9}
 800010c:	080003fd 	stmdaeq	r0, {r0, r2, r3, r4, r5, r6, r7, r8, r9}
 8000110:	080003fd 	stmdaeq	r0, {r0, r2, r3, r4, r5, r6, r7, r8, r9}
 8000114:	080003fd 	stmdaeq	r0, {r0, r2, r3, r4, r5, r6, r7, r8, r9}
 8000118:	080003fd 	stmdaeq	r0, {r0, r2, r3, r4, r5, r6, r7, r8, r9}
 800011c:	080003fd 	stmdaeq	r0, {r0, r2, r3, r4, r5, r6, r7, r8, r9}
 8000120:	080003fd 	stmdaeq	r0, {r0, r2, r3, r4, r5, r6, r7, r8, r9}
 8000124:	080003fd 	stmdaeq	r0, {r0, r2, r3, r4, r5, r6, r7, r8, r9}
 8000128:	080003fd 	stmdaeq	r0, {r0, r2, r3, r4, r5, r6, r7, r8, r9}
 800012c:	080003fd 	stmdaeq	r0, {r0, r2, r3, r4, r5, r6, r7, r8, r9}

Disassembly of section .text:

08000130 <__do_global_dtors_aux>:
 8000130:	b510      	push	{r4, lr}
 8000132:	4c05      	ldr	r4, [pc, #20]	; (8000148 <__do_global_dtors_aux+0x18>)
 8000134:	7823      	ldrb	r3, [r4, #0]
 8000136:	b933      	cbnz	r3, 8000146 <__do_global_dtors_aux+0x16>
 8000138:	4b04      	ldr	r3, [pc, #16]	; (800014c <__do_global_dtors_aux+0x1c>)
 800013a:	b113      	cbz	r3, 8000142 <__do_global_dtors_aux+0x12>
 800013c:	4804      	ldr	r0, [pc, #16]	; (8000150 <__do_global_dtors_aux+0x20>)
 800013e:	f3af 8000 	nop.w
 8000142:	2301      	movs	r3, #1
 8000144:	7023      	strb	r3, [r4, #0]
 8000146:	bd10      	pop	{r4, pc}
 8000148:	20000004 	andcs	r0, r0, r4
 800014c:	00000000 	andeq	r0, r0, r0
 8000150:	08000cc4 	stmdaeq	r0, {r2, r6, r7, sl, fp}

08000154 <frame_dummy>:
 8000154:	b508      	push	{r3, lr}
 8000156:	4b03      	ldr	r3, [pc, #12]	; (8000164 <frame_dummy+0x10>)
 8000158:	b11b      	cbz	r3, 8000162 <frame_dummy+0xe>
 800015a:	4903      	ldr	r1, [pc, #12]	; (8000168 <frame_dummy+0x14>)
 800015c:	4803      	ldr	r0, [pc, #12]	; (800016c <frame_dummy+0x18>)
 800015e:	f3af 8000 	nop.w
 8000162:	bd08      	pop	{r3, pc}
 8000164:	00000000 	andeq	r0, r0, r0
 8000168:	20000008 	andcs	r0, r0, r8
 800016c:	08000cc4 	stmdaeq	r0, {r2, r6, r7, sl, fp}

08000170 <Clock_Init>:
 8000170:	b480      	push	{r7}
 8000172:	af00      	add	r7, sp, #0
 8000174:	4b0a      	ldr	r3, [pc, #40]	; (80001a0 <Clock_Init+0x30>)
 8000176:	699b      	ldr	r3, [r3, #24]
 8000178:	4a09      	ldr	r2, [pc, #36]	; (80001a0 <Clock_Init+0x30>)
 800017a:	f043 0301 	orr.w	r3, r3, #1
 800017e:	6193      	str	r3, [r2, #24]
 8000180:	4b07      	ldr	r3, [pc, #28]	; (80001a0 <Clock_Init+0x30>)
 8000182:	699b      	ldr	r3, [r3, #24]
 8000184:	4a06      	ldr	r2, [pc, #24]	; (80001a0 <Clock_Init+0x30>)
 8000186:	f043 0304 	orr.w	r3, r3, #4
 800018a:	6193      	str	r3, [r2, #24]
 800018c:	4b04      	ldr	r3, [pc, #16]	; (80001a0 <Clock_Init+0x30>)
 800018e:	699b      	ldr	r3, [r3, #24]
 8000190:	4a03      	ldr	r2, [pc, #12]	; (80001a0 <Clock_Init+0x30>)
 8000192:	f043 0308 	orr.w	r3, r3, #8
 8000196:	6193      	str	r3, [r2, #24]
 8000198:	bf00      	nop
 800019a:	46bd      	mov	sp, r7
 800019c:	bc80      	pop	{r7}
 800019e:	4770      	bx	lr
 80001a0:	40021000 	andmi	r1, r2, r0

080001a4 <switch_CPU_AccessLevel>:
 80001a4:	b480      	push	{r7}
 80001a6:	b083      	sub	sp, #12
 80001a8:	af00      	add	r7, sp, #0
 80001aa:	4603      	mov	r3, r0
 80001ac:	71fb      	strb	r3, [r7, #7]
 80001ae:	79fb      	ldrb	r3, [r7, #7]
 80001b0:	2b00      	cmp	r3, #0
 80001b2:	d002      	beq.n	80001ba <switch_CPU_AccessLevel+0x16>
 80001b4:	2b01      	cmp	r3, #1
 80001b6:	d009      	beq.n	80001cc <switch_CPU_AccessLevel+0x28>
 80001b8:	e00f      	b.n	80001da <switch_CPU_AccessLevel+0x36>
 80001ba:	f3ef 8314 	mrs	r3, CONTROL
 80001be:	ea4f 0353 	mov.w	r3, r3, lsr #1
 80001c2:	ea4f 0343 	mov.w	r3, r3, lsl #1
 80001c6:	f383 8814 	msr	CONTROL, r3
 80001ca:	e006      	b.n	80001da <switch_CPU_AccessLevel+0x36>
 80001cc:	f3ef 8314 	mrs	r3, CONTROL
 80001d0:	f043 0301 	orr.w	r3, r3, #1
 80001d4:	f383 8814 	msr	CONTROL, r3
 80001d8:	bf00      	nop
 80001da:	bf00      	nop
 80001dc:	370c      	adds	r7, #12
 80001de:	46bd      	mov	sp, r7
 80001e0:	bc80      	pop	{r7}
 80001e2:	4770      	bx	lr

080001e4 <EXTI9_callback>:
 80001e4:	b480      	push	{r7}
 80001e6:	af00      	add	r7, sp, #0
 80001e8:	4b07      	ldr	r3, [pc, #28]	; (8000208 <EXTI9_callback+0x24>)
 80001ea:	2200      	movs	r2, #0
 80001ec:	701a      	strb	r2, [r3, #0]
 80001ee:	4b06      	ldr	r3, [pc, #24]	; (8000208 <EXTI9_callback+0x24>)
 80001f0:	2201      	movs	r2, #1
 80001f2:	701a      	strb	r2, [r3, #0]
 80001f4:	4b05      	ldr	r3, [pc, #20]	; (800020c <EXTI9_callback+0x28>)
 80001f6:	2201      	movs	r2, #1
 80001f8:	701a      	strb	r2, [r3, #0]
 80001fa:	4b03      	ldr	r3, [pc, #12]	; (8000208 <EXTI9_callback+0x24>)
 80001fc:	2200      	movs	r2, #0
 80001fe:	701a      	strb	r2, [r3, #0]
 8000200:	bf00      	nop
 8000202:	46bd      	mov	sp, r7
 8000204:	bc80      	pop	{r7}
 8000206:	4770      	bx	lr
 8000208:	20000034 	andcs	r0, r0, r4, lsr r0
 800020c:	20000036 	andcs	r0, r0, r6, lsr r0

08000210 <TaskA>:
 8000210:	b480      	push	{r7}
 8000212:	b085      	sub	sp, #20
 8000214:	af00      	add	r7, sp, #0
 8000216:	60f8      	str	r0, [r7, #12]
 8000218:	60b9      	str	r1, [r7, #8]
 800021a:	607a      	str	r2, [r7, #4]
 800021c:	68fa      	ldr	r2, [r7, #12]
 800021e:	68bb      	ldr	r3, [r7, #8]
 8000220:	441a      	add	r2, r3
 8000222:	687b      	ldr	r3, [r7, #4]
 8000224:	4413      	add	r3, r2
 8000226:	4618      	mov	r0, r3
 8000228:	3714      	adds	r7, #20
 800022a:	46bd      	mov	sp, r7
 800022c:	bc80      	pop	{r7}
 800022e:	4770      	bx	lr

08000230 <TaskB>:
 8000230:	b480      	push	{r7}
 8000232:	b085      	sub	sp, #20
 8000234:	af00      	add	r7, sp, #0
 8000236:	60f8      	str	r0, [r7, #12]
 8000238:	60b9      	str	r1, [r7, #8]
 800023a:	607a      	str	r2, [r7, #4]
 800023c:	603b      	str	r3, [r7, #0]
 800023e:	68fa      	ldr	r2, [r7, #12]
 8000240:	68bb      	ldr	r3, [r7, #8]
 8000242:	441a      	add	r2, r3
 8000244:	687b      	ldr	r3, [r7, #4]
 8000246:	441a      	add	r2, r3
 8000248:	683b      	ldr	r3, [r7, #0]
 800024a:	4413      	add	r3, r2
 800024c:	4618      	mov	r0, r3
 800024e:	3714      	adds	r7, #20
 8000250:	46bd      	mov	sp, r7
 8000252:	bc80      	pop	{r7}
 8000254:	4770      	bx	lr
	...

08000258 <Main_Os>:
 8000258:	b580      	push	{r7, lr}
 800025a:	af00      	add	r7, sp, #0
 800025c:	4b34      	ldr	r3, [pc, #208]	; (8000330 <Main_Os+0xd8>)
 800025e:	681b      	ldr	r3, [r3, #0]
 8000260:	f5a3 7300 	sub.w	r3, r3, #512	; 0x200
 8000264:	4a33      	ldr	r2, [pc, #204]	; (8000334 <Main_Os+0xdc>)
 8000266:	6013      	str	r3, [r2, #0]
 8000268:	4b32      	ldr	r3, [pc, #200]	; (8000334 <Main_Os+0xdc>)
 800026a:	681b      	ldr	r3, [r3, #0]
 800026c:	3b08      	subs	r3, #8
 800026e:	4a32      	ldr	r2, [pc, #200]	; (8000338 <Main_Os+0xe0>)
 8000270:	6013      	str	r3, [r2, #0]
 8000272:	4b31      	ldr	r3, [pc, #196]	; (8000338 <Main_Os+0xe0>)
 8000274:	681b      	ldr	r3, [r3, #0]
 8000276:	3b64      	subs	r3, #100	; 0x64
 8000278:	4a30      	ldr	r2, [pc, #192]	; (800033c <Main_Os+0xe4>)
 800027a:	6013      	str	r3, [r2, #0]
 800027c:	4b2f      	ldr	r3, [pc, #188]	; (800033c <Main_Os+0xe4>)
 800027e:	681b      	ldr	r3, [r3, #0]
 8000280:	3b08      	subs	r3, #8
 8000282:	4a2f      	ldr	r2, [pc, #188]	; (8000340 <Main_Os+0xe8>)
 8000284:	6013      	str	r3, [r2, #0]
 8000286:	4b2e      	ldr	r3, [pc, #184]	; (8000340 <Main_Os+0xe8>)
 8000288:	681b      	ldr	r3, [r3, #0]
 800028a:	3b64      	subs	r3, #100	; 0x64
 800028c:	4a2d      	ldr	r2, [pc, #180]	; (8000344 <Main_Os+0xec>)
 800028e:	6013      	str	r3, [r2, #0]
 8000290:	bf00      	nop
 8000292:	4b2d      	ldr	r3, [pc, #180]	; (8000348 <Main_Os+0xf0>)
 8000294:	781b      	ldrb	r3, [r3, #0]
 8000296:	2b01      	cmp	r3, #1
 8000298:	d122      	bne.n	80002e0 <Main_Os+0x88>
 800029a:	4b27      	ldr	r3, [pc, #156]	; (8000338 <Main_Os+0xe0>)
 800029c:	681b      	ldr	r3, [r3, #0]
 800029e:	4618      	mov	r0, r3
 80002a0:	f380 8809 	msr	PSP, r0
 80002a4:	f3ef 8014 	mrs	r0, CONTROL
 80002a8:	f04f 0102 	mov.w	r1, #2
 80002ac:	ea40 0001 	orr.w	r0, r0, r1
 80002b0:	f380 8814 	msr	CONTROL, r0
 80002b4:	2001      	movs	r0, #1
 80002b6:	f7ff ff75 	bl	80001a4 <switch_CPU_AccessLevel>
 80002ba:	2203      	movs	r2, #3
 80002bc:	2102      	movs	r1, #2
 80002be:	2001      	movs	r0, #1
 80002c0:	f7ff ffa6 	bl	8000210 <TaskA>
 80002c4:	4603      	mov	r3, r0
 80002c6:	b2da      	uxtb	r2, r3
 80002c8:	4b1f      	ldr	r3, [pc, #124]	; (8000348 <Main_Os+0xf0>)
 80002ca:	701a      	strb	r2, [r3, #0]
 80002cc:	df03      	svc	3
 80002ce:	f3ef 8014 	mrs	r0, CONTROL
 80002d2:	f04f 0105 	mov.w	r1, #5
 80002d6:	ea00 0001 	and.w	r0, r0, r1
 80002da:	f380 8814 	msr	CONTROL, r0
 80002de:	e7d7      	b.n	8000290 <Main_Os+0x38>
 80002e0:	4b1a      	ldr	r3, [pc, #104]	; (800034c <Main_Os+0xf4>)
 80002e2:	781b      	ldrb	r3, [r3, #0]
 80002e4:	2b01      	cmp	r3, #1
 80002e6:	d1d3      	bne.n	8000290 <Main_Os+0x38>
 80002e8:	4b15      	ldr	r3, [pc, #84]	; (8000340 <Main_Os+0xe8>)
 80002ea:	681b      	ldr	r3, [r3, #0]
 80002ec:	4618      	mov	r0, r3
 80002ee:	f380 8809 	msr	PSP, r0
 80002f2:	f3ef 8014 	mrs	r0, CONTROL
 80002f6:	f04f 0102 	mov.w	r1, #2
 80002fa:	ea40 0001 	orr.w	r0, r0, r1
 80002fe:	f380 8814 	msr	CONTROL, r0
 8000302:	2001      	movs	r0, #1
 8000304:	f7ff ff4e 	bl	80001a4 <switch_CPU_AccessLevel>
 8000308:	2304      	movs	r3, #4
 800030a:	2203      	movs	r2, #3
 800030c:	2102      	movs	r1, #2
 800030e:	2001      	movs	r0, #1
 8000310:	f7ff ff8e 	bl	8000230 <TaskB>
 8000314:	4603      	mov	r3, r0
 8000316:	b2da      	uxtb	r2, r3
 8000318:	4b0c      	ldr	r3, [pc, #48]	; (800034c <Main_Os+0xf4>)
 800031a:	701a      	strb	r2, [r3, #0]
 800031c:	df03      	svc	3
 800031e:	f3ef 8014 	mrs	r0, CONTROL
 8000322:	f04f 0105 	mov.w	r1, #5
 8000326:	ea00 0001 	and.w	r0, r0, r1
 800032a:	f380 8814 	msr	CONTROL, r0
 800032e:	e7af      	b.n	8000290 <Main_Os+0x38>
 8000330:	20000000 	andcs	r0, r0, r0
 8000334:	20000020 	andcs	r0, r0, r0, lsr #32
 8000338:	20000024 	andcs	r0, r0, r4, lsr #32
 800033c:	20000028 	andcs	r0, r0, r8, lsr #32
 8000340:	2000002c 	andcs	r0, r0, ip, lsr #32
 8000344:	20000030 	andcs	r0, r0, r0, lsr r0
 8000348:	20000035 	andcs	r0, r0, r5, lsr r0
 800034c:	20000036 	andcs	r0, r0, r6, lsr r0

08000350 <SVC_Handler>:
 8000350:	b580      	push	{r7, lr}
 8000352:	af00      	add	r7, sp, #0
 8000354:	2000      	movs	r0, #0
 8000356:	f7ff ff25 	bl	80001a4 <switch_CPU_AccessLevel>
 800035a:	bf00      	nop
 800035c:	bd80      	pop	{r7, pc}
	...

08000360 <main>:
 8000360:	b580      	push	{r7, lr}
 8000362:	b088      	sub	sp, #32
 8000364:	af00      	add	r7, sp, #0
 8000366:	f7ff ff03 	bl	8000170 <Clock_Init>
 800036a:	4a0d      	ldr	r2, [pc, #52]	; (80003a0 <main+0x40>)
 800036c:	f107 030c 	add.w	r3, r7, #12
 8000370:	ca07      	ldmia	r2, {r0, r1, r2}
 8000372:	e883 0007 	stmia.w	r3, {r0, r1, r2}
 8000376:	2300      	movs	r3, #0
 8000378:	763b      	strb	r3, [r7, #24]
 800037a:	2301      	movs	r3, #1
 800037c:	767b      	strb	r3, [r7, #25]
 800037e:	4b09      	ldr	r3, [pc, #36]	; (80003a4 <main+0x44>)
 8000380:	61fb      	str	r3, [r7, #28]
 8000382:	f107 030c 	add.w	r3, r7, #12
 8000386:	4618      	mov	r0, r3
 8000388:	f000 f839 	bl	80003fe <EXTI_Init>
 800038c:	f7ff ff64 	bl	8000258 <Main_Os>
 8000390:	4b05      	ldr	r3, [pc, #20]	; (80003a8 <main+0x48>)
 8000392:	781b      	ldrb	r3, [r3, #0]
 8000394:	2b00      	cmp	r3, #0
 8000396:	d0fb      	beq.n	8000390 <main+0x30>
 8000398:	4b03      	ldr	r3, [pc, #12]	; (80003a8 <main+0x48>)
 800039a:	2200      	movs	r2, #0
 800039c:	701a      	strb	r2, [r3, #0]
 800039e:	e7f7      	b.n	8000390 <main+0x30>
 80003a0:	08000cdc 	stmdaeq	r0, {r2, r3, r4, r6, r7, sl, fp}
 80003a4:	080001e5 	stmdaeq	r0, {r0, r2, r5, r6, r7, r8}
 80003a8:	20000034 	andcs	r0, r0, r4, lsr r0

080003ac <Reset_Handler>:
 80003ac:	480d      	ldr	r0, [pc, #52]	; (80003e4 <LoopForever+0x2>)
 80003ae:	4685      	mov	sp, r0
 80003b0:	f3af 8000 	nop.w
 80003b4:	480c      	ldr	r0, [pc, #48]	; (80003e8 <LoopForever+0x6>)
 80003b6:	490d      	ldr	r1, [pc, #52]	; (80003ec <LoopForever+0xa>)
 80003b8:	4a0d      	ldr	r2, [pc, #52]	; (80003f0 <LoopForever+0xe>)
 80003ba:	2300      	movs	r3, #0
 80003bc:	e002      	b.n	80003c4 <LoopCopyDataInit>

080003be <CopyDataInit>:
 80003be:	58d4      	ldr	r4, [r2, r3]
 80003c0:	50c4      	str	r4, [r0, r3]
 80003c2:	3304      	adds	r3, #4

080003c4 <LoopCopyDataInit>:
 80003c4:	18c4      	adds	r4, r0, r3
 80003c6:	428c      	cmp	r4, r1
 80003c8:	d3f9      	bcc.n	80003be <CopyDataInit>
 80003ca:	4a0a      	ldr	r2, [pc, #40]	; (80003f4 <LoopForever+0x12>)
 80003cc:	4c0a      	ldr	r4, [pc, #40]	; (80003f8 <LoopForever+0x16>)
 80003ce:	2300      	movs	r3, #0
 80003d0:	e001      	b.n	80003d6 <LoopFillZerobss>

080003d2 <FillZerobss>:
 80003d2:	6013      	str	r3, [r2, #0]
 80003d4:	3204      	adds	r2, #4

080003d6 <LoopFillZerobss>:
 80003d6:	42a2      	cmp	r2, r4
 80003d8:	d3fb      	bcc.n	80003d2 <FillZerobss>
 80003da:	f000 fc4f 	bl	8000c7c <__libc_init_array>
 80003de:	f7ff ffbf 	bl	8000360 <main>

080003e2 <LoopForever>:
 80003e2:	e7fe      	b.n	80003e2 <LoopForever>
 80003e4:	20002800 	andcs	r2, r0, r0, lsl #16
 80003e8:	20000000 	andcs	r0, r0, r0
 80003ec:	20000004 	andcs	r0, r0, r4
 80003f0:	08000cf0 	stmdaeq	r0, {r4, r5, r6, r7, sl, fp}
 80003f4:	20000004 	andcs	r0, r0, r4
 80003f8:	20000074 	andcs	r0, r0, r4, ror r0

080003fc <ADC1_2_IRQHandler>:
 80003fc:	e7fe      	b.n	80003fc <ADC1_2_IRQHandler>

080003fe <EXTI_Init>:
 80003fe:	b580      	push	{r7, lr}
 8000400:	b082      	sub	sp, #8
 8000402:	af00      	add	r7, sp, #0
 8000404:	6078      	str	r0, [r7, #4]
 8000406:	6878      	ldr	r0, [r7, #4]
 8000408:	f000 f804 	bl	8000414 <Update_EXTI>
 800040c:	bf00      	nop
 800040e:	3708      	adds	r7, #8
 8000410:	46bd      	mov	sp, r7
 8000412:	bd80      	pop	{r7, pc}

08000414 <Update_EXTI>:
 8000414:	b580      	push	{r7, lr}
 8000416:	b084      	sub	sp, #16
 8000418:	af00      	add	r7, sp, #0
 800041a:	6078      	str	r0, [r7, #4]
 800041c:	687b      	ldr	r3, [r7, #4]
 800041e:	891b      	ldrh	r3, [r3, #8]
 8000420:	813b      	strh	r3, [r7, #8]
 8000422:	2301      	movs	r3, #1
 8000424:	817b      	strh	r3, [r7, #10]
 8000426:	687b      	ldr	r3, [r7, #4]
 8000428:	685b      	ldr	r3, [r3, #4]
 800042a:	f107 0208 	add.w	r2, r7, #8
 800042e:	4611      	mov	r1, r2
 8000430:	4618      	mov	r0, r3
 8000432:	f000 fb5d 	bl	8000af0 <GPIO_Init>
 8000436:	687b      	ldr	r3, [r7, #4]
 8000438:	881b      	ldrh	r3, [r3, #0]
 800043a:	089b      	lsrs	r3, r3, #2
 800043c:	b29b      	uxth	r3, r3
 800043e:	73fb      	strb	r3, [r7, #15]
 8000440:	687b      	ldr	r3, [r7, #4]
 8000442:	881b      	ldrh	r3, [r3, #0]
 8000444:	b2db      	uxtb	r3, r3
 8000446:	f003 0303 	and.w	r3, r3, #3
 800044a:	b2db      	uxtb	r3, r3
 800044c:	009b      	lsls	r3, r3, #2
 800044e:	73bb      	strb	r3, [r7, #14]
 8000450:	4a61      	ldr	r2, [pc, #388]	; (80005d8 <Update_EXTI+0x1c4>)
 8000452:	7bfb      	ldrb	r3, [r7, #15]
 8000454:	3302      	adds	r3, #2
 8000456:	f852 2023 	ldr.w	r2, [r2, r3, lsl #2]
 800045a:	7bbb      	ldrb	r3, [r7, #14]
 800045c:	210f      	movs	r1, #15
 800045e:	fa01 f303 	lsl.w	r3, r1, r3
 8000462:	43db      	mvns	r3, r3
 8000464:	4618      	mov	r0, r3
 8000466:	495c      	ldr	r1, [pc, #368]	; (80005d8 <Update_EXTI+0x1c4>)
 8000468:	7bfb      	ldrb	r3, [r7, #15]
 800046a:	4002      	ands	r2, r0
 800046c:	3302      	adds	r3, #2
 800046e:	f841 2023 	str.w	r2, [r1, r3, lsl #2]
 8000472:	4a59      	ldr	r2, [pc, #356]	; (80005d8 <Update_EXTI+0x1c4>)
 8000474:	7bfb      	ldrb	r3, [r7, #15]
 8000476:	3302      	adds	r3, #2
 8000478:	f852 2023 	ldr.w	r2, [r2, r3, lsl #2]
 800047c:	687b      	ldr	r3, [r7, #4]
 800047e:	685b      	ldr	r3, [r3, #4]
 8000480:	4956      	ldr	r1, [pc, #344]	; (80005dc <Update_EXTI+0x1c8>)
 8000482:	428b      	cmp	r3, r1
 8000484:	d016      	beq.n	80004b4 <Update_EXTI+0xa0>
 8000486:	687b      	ldr	r3, [r7, #4]
 8000488:	685b      	ldr	r3, [r3, #4]
 800048a:	4955      	ldr	r1, [pc, #340]	; (80005e0 <Update_EXTI+0x1cc>)
 800048c:	428b      	cmp	r3, r1
 800048e:	d00f      	beq.n	80004b0 <Update_EXTI+0x9c>
 8000490:	687b      	ldr	r3, [r7, #4]
 8000492:	685b      	ldr	r3, [r3, #4]
 8000494:	4953      	ldr	r1, [pc, #332]	; (80005e4 <Update_EXTI+0x1d0>)
 8000496:	428b      	cmp	r3, r1
 8000498:	d008      	beq.n	80004ac <Update_EXTI+0x98>
 800049a:	687b      	ldr	r3, [r7, #4]
 800049c:	685b      	ldr	r3, [r3, #4]
 800049e:	4952      	ldr	r1, [pc, #328]	; (80005e8 <Update_EXTI+0x1d4>)
 80004a0:	428b      	cmp	r3, r1
 80004a2:	d101      	bne.n	80004a8 <Update_EXTI+0x94>
 80004a4:	2303      	movs	r3, #3
 80004a6:	e006      	b.n	80004b6 <Update_EXTI+0xa2>
 80004a8:	2300      	movs	r3, #0
 80004aa:	e004      	b.n	80004b6 <Update_EXTI+0xa2>
 80004ac:	2302      	movs	r3, #2
 80004ae:	e002      	b.n	80004b6 <Update_EXTI+0xa2>
 80004b0:	2301      	movs	r3, #1
 80004b2:	e000      	b.n	80004b6 <Update_EXTI+0xa2>
 80004b4:	2300      	movs	r3, #0
 80004b6:	7bb9      	ldrb	r1, [r7, #14]
 80004b8:	408b      	lsls	r3, r1
 80004ba:	4618      	mov	r0, r3
 80004bc:	4946      	ldr	r1, [pc, #280]	; (80005d8 <Update_EXTI+0x1c4>)
 80004be:	7bfb      	ldrb	r3, [r7, #15]
 80004c0:	4302      	orrs	r2, r0
 80004c2:	3302      	adds	r3, #2
 80004c4:	f841 2023 	str.w	r2, [r1, r3, lsl #2]
 80004c8:	4b48      	ldr	r3, [pc, #288]	; (80005ec <Update_EXTI+0x1d8>)
 80004ca:	689b      	ldr	r3, [r3, #8]
 80004cc:	687a      	ldr	r2, [r7, #4]
 80004ce:	8812      	ldrh	r2, [r2, #0]
 80004d0:	4611      	mov	r1, r2
 80004d2:	2201      	movs	r2, #1
 80004d4:	408a      	lsls	r2, r1
 80004d6:	43d2      	mvns	r2, r2
 80004d8:	4611      	mov	r1, r2
 80004da:	4a44      	ldr	r2, [pc, #272]	; (80005ec <Update_EXTI+0x1d8>)
 80004dc:	400b      	ands	r3, r1
 80004de:	6093      	str	r3, [r2, #8]
 80004e0:	4b42      	ldr	r3, [pc, #264]	; (80005ec <Update_EXTI+0x1d8>)
 80004e2:	68db      	ldr	r3, [r3, #12]
 80004e4:	687a      	ldr	r2, [r7, #4]
 80004e6:	8812      	ldrh	r2, [r2, #0]
 80004e8:	4611      	mov	r1, r2
 80004ea:	2201      	movs	r2, #1
 80004ec:	408a      	lsls	r2, r1
 80004ee:	43d2      	mvns	r2, r2
 80004f0:	4611      	mov	r1, r2
 80004f2:	4a3e      	ldr	r2, [pc, #248]	; (80005ec <Update_EXTI+0x1d8>)
 80004f4:	400b      	ands	r3, r1
 80004f6:	60d3      	str	r3, [r2, #12]
 80004f8:	687b      	ldr	r3, [r7, #4]
 80004fa:	7b1b      	ldrb	r3, [r3, #12]
 80004fc:	2b00      	cmp	r3, #0
 80004fe:	d10b      	bne.n	8000518 <Update_EXTI+0x104>
 8000500:	4b3a      	ldr	r3, [pc, #232]	; (80005ec <Update_EXTI+0x1d8>)
 8000502:	689b      	ldr	r3, [r3, #8]
 8000504:	687a      	ldr	r2, [r7, #4]
 8000506:	8812      	ldrh	r2, [r2, #0]
 8000508:	4611      	mov	r1, r2
 800050a:	2201      	movs	r2, #1
 800050c:	408a      	lsls	r2, r1
 800050e:	4611      	mov	r1, r2
 8000510:	4a36      	ldr	r2, [pc, #216]	; (80005ec <Update_EXTI+0x1d8>)
 8000512:	430b      	orrs	r3, r1
 8000514:	6093      	str	r3, [r2, #8]
 8000516:	e029      	b.n	800056c <Update_EXTI+0x158>
 8000518:	687b      	ldr	r3, [r7, #4]
 800051a:	7b1b      	ldrb	r3, [r3, #12]
 800051c:	2b01      	cmp	r3, #1
 800051e:	d10b      	bne.n	8000538 <Update_EXTI+0x124>
 8000520:	4b32      	ldr	r3, [pc, #200]	; (80005ec <Update_EXTI+0x1d8>)
 8000522:	68db      	ldr	r3, [r3, #12]
 8000524:	687a      	ldr	r2, [r7, #4]
 8000526:	8812      	ldrh	r2, [r2, #0]
 8000528:	4611      	mov	r1, r2
 800052a:	2201      	movs	r2, #1
 800052c:	408a      	lsls	r2, r1
 800052e:	4611      	mov	r1, r2
 8000530:	4a2e      	ldr	r2, [pc, #184]	; (80005ec <Update_EXTI+0x1d8>)
 8000532:	430b      	orrs	r3, r1
 8000534:	60d3      	str	r3, [r2, #12]
 8000536:	e019      	b.n	800056c <Update_EXTI+0x158>
 8000538:	687b      	ldr	r3, [r7, #4]
 800053a:	7b1b      	ldrb	r3, [r3, #12]
 800053c:	2b02      	cmp	r3, #2
 800053e:	d115      	bne.n	800056c <Update_EXTI+0x158>
 8000540:	4b2a      	ldr	r3, [pc, #168]	; (80005ec <Update_EXTI+0x1d8>)
 8000542:	689b      	ldr	r3, [r3, #8]
 8000544:	687a      	ldr	r2, [r7, #4]
 8000546:	8812      	ldrh	r2, [r2, #0]
 8000548:	4611      	mov	r1, r2
 800054a:	2201      	movs	r2, #1
 800054c:	408a      	lsls	r2, r1
 800054e:	4611      	mov	r1, r2
 8000550:	4a26      	ldr	r2, [pc, #152]	; (80005ec <Update_EXTI+0x1d8>)
 8000552:	430b      	orrs	r3, r1
 8000554:	6093      	str	r3, [r2, #8]
 8000556:	4b25      	ldr	r3, [pc, #148]	; (80005ec <Update_EXTI+0x1d8>)
 8000558:	68db      	ldr	r3, [r3, #12]
 800055a:	687a      	ldr	r2, [r7, #4]
 800055c:	8812      	ldrh	r2, [r2, #0]
 800055e:	4611      	mov	r1, r2
 8000560:	2201      	movs	r2, #1
 8000562:	408a      	lsls	r2, r1
 8000564:	4611      	mov	r1, r2
 8000566:	4a21      	ldr	r2, [pc, #132]	; (80005ec <Update_EXTI+0x1d8>)
 8000568:	430b      	orrs	r3, r1
 800056a:	60d3      	str	r3, [r2, #12]
 800056c:	687b      	ldr	r3, [r7, #4]
 800056e:	881b      	ldrh	r3, [r3, #0]
 8000570:	4619      	mov	r1, r3
 8000572:	687b      	ldr	r3, [r7, #4]
 8000574:	691b      	ldr	r3, [r3, #16]
 8000576:	4a1e      	ldr	r2, [pc, #120]	; (80005f0 <Update_EXTI+0x1dc>)
 8000578:	f842 3021 	str.w	r3, [r2, r1, lsl #2]
 800057c:	687b      	ldr	r3, [r7, #4]
 800057e:	7b5b      	ldrb	r3, [r3, #13]
 8000580:	2b01      	cmp	r3, #1
 8000582:	d110      	bne.n	80005a6 <Update_EXTI+0x192>
 8000584:	4b19      	ldr	r3, [pc, #100]	; (80005ec <Update_EXTI+0x1d8>)
 8000586:	681b      	ldr	r3, [r3, #0]
 8000588:	687a      	ldr	r2, [r7, #4]
 800058a:	8812      	ldrh	r2, [r2, #0]
 800058c:	4611      	mov	r1, r2
 800058e:	2201      	movs	r2, #1
 8000590:	408a      	lsls	r2, r1
 8000592:	4611      	mov	r1, r2
 8000594:	4a15      	ldr	r2, [pc, #84]	; (80005ec <Update_EXTI+0x1d8>)
 8000596:	430b      	orrs	r3, r1
 8000598:	6013      	str	r3, [r2, #0]
 800059a:	687b      	ldr	r3, [r7, #4]
 800059c:	881b      	ldrh	r3, [r3, #0]
 800059e:	4618      	mov	r0, r3
 80005a0:	f000 f828 	bl	80005f4 <Enable_NVIC>
 80005a4:	e013      	b.n	80005ce <Update_EXTI+0x1ba>
 80005a6:	687b      	ldr	r3, [r7, #4]
 80005a8:	7b5b      	ldrb	r3, [r3, #13]
 80005aa:	2b00      	cmp	r3, #0
 80005ac:	d10f      	bne.n	80005ce <Update_EXTI+0x1ba>
 80005ae:	4b0f      	ldr	r3, [pc, #60]	; (80005ec <Update_EXTI+0x1d8>)
 80005b0:	681b      	ldr	r3, [r3, #0]
 80005b2:	687a      	ldr	r2, [r7, #4]
 80005b4:	8812      	ldrh	r2, [r2, #0]
 80005b6:	4611      	mov	r1, r2
 80005b8:	2201      	movs	r2, #1
 80005ba:	408a      	lsls	r2, r1
 80005bc:	4611      	mov	r1, r2
 80005be:	4a0b      	ldr	r2, [pc, #44]	; (80005ec <Update_EXTI+0x1d8>)
 80005c0:	430b      	orrs	r3, r1
 80005c2:	6013      	str	r3, [r2, #0]
 80005c4:	687b      	ldr	r3, [r7, #4]
 80005c6:	881b      	ldrh	r3, [r3, #0]
 80005c8:	4618      	mov	r0, r3
 80005ca:	f000 f879 	bl	80006c0 <Disable_NVIC>
 80005ce:	bf00      	nop
 80005d0:	3710      	adds	r7, #16
 80005d2:	46bd      	mov	sp, r7
 80005d4:	bd80      	pop	{r7, pc}
 80005d6:	bf00      	nop
 80005d8:	40010000 	andmi	r0, r1, r0
 80005dc:	40010800 	andmi	r0, r1, r0, lsl #16
 80005e0:	40010c00 	andmi	r0, r1, r0, lsl #24
 80005e4:	40011000 	andmi	r1, r1, r0
 80005e8:	40011400 	andmi	r1, r1, r0, lsl #8
 80005ec:	40010400 	andmi	r0, r1, r0, lsl #8
 80005f0:	20000038 	andcs	r0, r0, r8, lsr r0

080005f4 <Enable_NVIC>:
 80005f4:	b480      	push	{r7}
 80005f6:	b083      	sub	sp, #12
 80005f8:	af00      	add	r7, sp, #0
 80005fa:	4603      	mov	r3, r0
 80005fc:	80fb      	strh	r3, [r7, #6]
 80005fe:	88fb      	ldrh	r3, [r7, #6]
 8000600:	2b0f      	cmp	r3, #15
 8000602:	d854      	bhi.n	80006ae <Enable_NVIC+0xba>
 8000604:	a201      	add	r2, pc, #4	; (adr r2, 800060c <Enable_NVIC+0x18>)
 8000606:	f852 f023 	ldr.w	pc, [r2, r3, lsl #2]
 800060a:	bf00      	nop
 800060c:	0800064d 	stmdaeq	r0, {r0, r2, r3, r6, r9, sl}
 8000610:	0800065b 	stmdaeq	r0, {r0, r1, r3, r4, r6, r9, sl}
 8000614:	08000669 	stmdaeq	r0, {r0, r3, r5, r6, r9, sl}
 8000618:	08000677 	stmdaeq	r0, {r0, r1, r2, r4, r5, r6, r9, sl}
 800061c:	08000685 	stmdaeq	r0, {r0, r2, r7, r9, sl}
 8000620:	08000693 	stmdaeq	r0, {r0, r1, r4, r7, r9, sl}
 8000624:	08000693 	stmdaeq	r0, {r0, r1, r4, r7, r9, sl}
 8000628:	08000693 	stmdaeq	r0, {r0, r1, r4, r7, r9, sl}
 800062c:	08000693 	stmdaeq	r0, {r0, r1, r4, r7, r9, sl}
 8000630:	08000693 	stmdaeq	r0, {r0, r1, r4, r7, r9, sl}
 8000634:	080006a1 	stmdaeq	r0, {r0, r5, r7, r9, sl}
 8000638:	080006a1 	stmdaeq	r0, {r0, r5, r7, r9, sl}
 800063c:	080006a1 	stmdaeq	r0, {r0, r5, r7, r9, sl}
 8000640:	080006a1 	stmdaeq	r0, {r0, r5, r7, r9, sl}
 8000644:	080006a1 	stmdaeq	r0, {r0, r5, r7, r9, sl}
 8000648:	080006a1 	stmdaeq	r0, {r0, r5, r7, r9, sl}
 800064c:	4b1a      	ldr	r3, [pc, #104]	; (80006b8 <Enable_NVIC+0xc4>)
 800064e:	681b      	ldr	r3, [r3, #0]
 8000650:	4a19      	ldr	r2, [pc, #100]	; (80006b8 <Enable_NVIC+0xc4>)
 8000652:	f043 0340 	orr.w	r3, r3, #64	; 0x40
 8000656:	6013      	str	r3, [r2, #0]
 8000658:	e029      	b.n	80006ae <Enable_NVIC+0xba>
 800065a:	4b17      	ldr	r3, [pc, #92]	; (80006b8 <Enable_NVIC+0xc4>)
 800065c:	681b      	ldr	r3, [r3, #0]
 800065e:	4a16      	ldr	r2, [pc, #88]	; (80006b8 <Enable_NVIC+0xc4>)
 8000660:	f043 0380 	orr.w	r3, r3, #128	; 0x80
 8000664:	6013      	str	r3, [r2, #0]
 8000666:	e022      	b.n	80006ae <Enable_NVIC+0xba>
 8000668:	4b13      	ldr	r3, [pc, #76]	; (80006b8 <Enable_NVIC+0xc4>)
 800066a:	681b      	ldr	r3, [r3, #0]
 800066c:	4a12      	ldr	r2, [pc, #72]	; (80006b8 <Enable_NVIC+0xc4>)
 800066e:	f443 7380 	orr.w	r3, r3, #256	; 0x100
 8000672:	6013      	str	r3, [r2, #0]
 8000674:	e01b      	b.n	80006ae <Enable_NVIC+0xba>
 8000676:	4b10      	ldr	r3, [pc, #64]	; (80006b8 <Enable_NVIC+0xc4>)
 8000678:	681b      	ldr	r3, [r3, #0]
 800067a:	4a0f      	ldr	r2, [pc, #60]	; (80006b8 <Enable_NVIC+0xc4>)
 800067c:	f443 7300 	orr.w	r3, r3, #512	; 0x200
 8000680:	6013      	str	r3, [r2, #0]
 8000682:	e014      	b.n	80006ae <Enable_NVIC+0xba>
 8000684:	4b0c      	ldr	r3, [pc, #48]	; (80006b8 <Enable_NVIC+0xc4>)
 8000686:	681b      	ldr	r3, [r3, #0]
 8000688:	4a0b      	ldr	r2, [pc, #44]	; (80006b8 <Enable_NVIC+0xc4>)
 800068a:	f443 6380 	orr.w	r3, r3, #1024	; 0x400
 800068e:	6013      	str	r3, [r2, #0]
 8000690:	e00d      	b.n	80006ae <Enable_NVIC+0xba>
 8000692:	4b09      	ldr	r3, [pc, #36]	; (80006b8 <Enable_NVIC+0xc4>)
 8000694:	681b      	ldr	r3, [r3, #0]
 8000696:	4a08      	ldr	r2, [pc, #32]	; (80006b8 <Enable_NVIC+0xc4>)
 8000698:	f443 0300 	orr.w	r3, r3, #8388608	; 0x800000
 800069c:	6013      	str	r3, [r2, #0]
 800069e:	e006      	b.n	80006ae <Enable_NVIC+0xba>
 80006a0:	4b06      	ldr	r3, [pc, #24]	; (80006bc <Enable_NVIC+0xc8>)
 80006a2:	681b      	ldr	r3, [r3, #0]
 80006a4:	4a05      	ldr	r2, [pc, #20]	; (80006bc <Enable_NVIC+0xc8>)
 80006a6:	f443 7380 	orr.w	r3, r3, #256	; 0x100
 80006aa:	6013      	str	r3, [r2, #0]
 80006ac:	bf00      	nop
 80006ae:	bf00      	nop
 80006b0:	370c      	adds	r7, #12
 80006b2:	46bd      	mov	sp, r7
 80006b4:	bc80      	pop	{r7}
 80006b6:	4770      	bx	lr
 80006b8:	e000e100 	and	lr, r0, r0, lsl #2
 80006bc:	e000e104 	and	lr, r0, r4, lsl #2

080006c0 <Disable_NVIC>:
 80006c0:	b480      	push	{r7}
 80006c2:	b083      	sub	sp, #12
 80006c4:	af00      	add	r7, sp, #0
 80006c6:	4603      	mov	r3, r0
 80006c8:	80fb      	strh	r3, [r7, #6]
 80006ca:	88fb      	ldrh	r3, [r7, #6]
 80006cc:	2b0f      	cmp	r3, #15
 80006ce:	d854      	bhi.n	800077a <Disable_NVIC+0xba>
 80006d0:	a201      	add	r2, pc, #4	; (adr r2, 80006d8 <Disable_NVIC+0x18>)
 80006d2:	f852 f023 	ldr.w	pc, [r2, r3, lsl #2]
 80006d6:	bf00      	nop
 80006d8:	08000719 	stmdaeq	r0, {r0, r3, r4, r8, r9, sl}
 80006dc:	08000727 	stmdaeq	r0, {r0, r1, r2, r5, r8, r9, sl}
 80006e0:	08000735 	stmdaeq	r0, {r0, r2, r4, r5, r8, r9, sl}
 80006e4:	08000743 	stmdaeq	r0, {r0, r1, r6, r8, r9, sl}
 80006e8:	08000751 	stmdaeq	r0, {r0, r4, r6, r8, r9, sl}
 80006ec:	0800075f 	stmdaeq	r0, {r0, r1, r2, r3, r4, r6, r8, r9, sl}
 80006f0:	0800075f 	stmdaeq	r0, {r0, r1, r2, r3, r4, r6, r8, r9, sl}
 80006f4:	0800075f 	stmdaeq	r0, {r0, r1, r2, r3, r4, r6, r8, r9, sl}
 80006f8:	0800075f 	stmdaeq	r0, {r0, r1, r2, r3, r4, r6, r8, r9, sl}
 80006fc:	0800075f 	stmdaeq	r0, {r0, r1, r2, r3, r4, r6, r8, r9, sl}
 8000700:	0800076d 	stmdaeq	r0, {r0, r2, r3, r5, r6, r8, r9, sl}
 8000704:	0800076d 	stmdaeq	r0, {r0, r2, r3, r5, r6, r8, r9, sl}
 8000708:	0800076d 	stmdaeq	r0, {r0, r2, r3, r5, r6, r8, r9, sl}
 800070c:	0800076d 	stmdaeq	r0, {r0, r2, r3, r5, r6, r8, r9, sl}
 8000710:	0800076d 	stmdaeq	r0, {r0, r2, r3, r5, r6, r8, r9, sl}
 8000714:	0800076d 	stmdaeq	r0, {r0, r2, r3, r5, r6, r8, r9, sl}
 8000718:	4b1a      	ldr	r3, [pc, #104]	; (8000784 <Disable_NVIC+0xc4>)
 800071a:	681b      	ldr	r3, [r3, #0]
 800071c:	4a19      	ldr	r2, [pc, #100]	; (8000784 <Disable_NVIC+0xc4>)
 800071e:	f043 0340 	orr.w	r3, r3, #64	; 0x40
 8000722:	6013      	str	r3, [r2, #0]
 8000724:	e029      	b.n	800077a <Disable_NVIC+0xba>
 8000726:	4b17      	ldr	r3, [pc, #92]	; (8000784 <Disable_NVIC+0xc4>)
 8000728:	681b      	ldr	r3, [r3, #0]
 800072a:	4a16      	ldr	r2, [pc, #88]	; (8000784 <Disable_NVIC+0xc4>)
 800072c:	f043 0380 	orr.w	r3, r3, #128	; 0x80
 8000730:	6013      	str	r3, [r2, #0]
 8000732:	e022      	b.n	800077a <Disable_NVIC+0xba>
 8000734:	4b13      	ldr	r3, [pc, #76]	; (8000784 <Disable_NVIC+0xc4>)
 8000736:	681b      	ldr	r3, [r3, #0]
 8000738:	4a12      	ldr	r2, [pc, #72]	; (8000784 <Disable_NVIC+0xc4>)
 800073a:	f443 7380 	orr.w	r3, r3, #256	; 0x100
 800073e:	6013      	str	r3, [r2, #0]
 8000740:	e01b      	b.n	800077a <Disable_NVIC+0xba>
 8000742:	4b10      	ldr	r3, [pc, #64]	; (8000784 <Disable_NVIC+0xc4>)
 8000744:	681b      	ldr	r3, [r3, #0]
 8000746:	4a0f      	ldr	r2, [pc, #60]	; (8000784 <Disable_NVIC+0xc4>)
 8000748:	f443 7300 	orr.w	r3, r3, #512	; 0x200
 800074c:	6013      	str	r3, [r2, #0]
 800074e:	e014      	b.n	800077a <Disable_NVIC+0xba>
 8000750:	4b0c      	ldr	r3, [pc, #48]	; (8000784 <Disable_NVIC+0xc4>)
 8000752:	681b      	ldr	r3, [r3, #0]
 8000754:	4a0b      	ldr	r2, [pc, #44]	; (8000784 <Disable_NVIC+0xc4>)
 8000756:	f443 6380 	orr.w	r3, r3, #1024	; 0x400
 800075a:	6013      	str	r3, [r2, #0]
 800075c:	e00d      	b.n	800077a <Disable_NVIC+0xba>
 800075e:	4b09      	ldr	r3, [pc, #36]	; (8000784 <Disable_NVIC+0xc4>)
 8000760:	681b      	ldr	r3, [r3, #0]
 8000762:	4a08      	ldr	r2, [pc, #32]	; (8000784 <Disable_NVIC+0xc4>)
 8000764:	f443 0300 	orr.w	r3, r3, #8388608	; 0x800000
 8000768:	6013      	str	r3, [r2, #0]
 800076a:	e006      	b.n	800077a <Disable_NVIC+0xba>
 800076c:	4b06      	ldr	r3, [pc, #24]	; (8000788 <Disable_NVIC+0xc8>)
 800076e:	681b      	ldr	r3, [r3, #0]
 8000770:	4a05      	ldr	r2, [pc, #20]	; (8000788 <Disable_NVIC+0xc8>)
 8000772:	f443 7380 	orr.w	r3, r3, #256	; 0x100
 8000776:	6013      	str	r3, [r2, #0]
 8000778:	bf00      	nop
 800077a:	bf00      	nop
 800077c:	370c      	adds	r7, #12
 800077e:	46bd      	mov	sp, r7
 8000780:	bc80      	pop	{r7}
 8000782:	4770      	bx	lr
 8000784:	e000e180 	and	lr, r0, r0, lsl #3
 8000788:	e000e184 	and	lr, r0, r4, lsl #3

0800078c <EXTI0_IRQHandler>:
 800078c:	b580      	push	{r7, lr}
 800078e:	af00      	add	r7, sp, #0
 8000790:	4b05      	ldr	r3, [pc, #20]	; (80007a8 <EXTI0_IRQHandler+0x1c>)
 8000792:	695b      	ldr	r3, [r3, #20]
 8000794:	4a04      	ldr	r2, [pc, #16]	; (80007a8 <EXTI0_IRQHandler+0x1c>)
 8000796:	f043 0301 	orr.w	r3, r3, #1
 800079a:	6153      	str	r3, [r2, #20]
 800079c:	4b03      	ldr	r3, [pc, #12]	; (80007ac <EXTI0_IRQHandler+0x20>)
 800079e:	681b      	ldr	r3, [r3, #0]
 80007a0:	4798      	blx	r3
 80007a2:	bf00      	nop
 80007a4:	bd80      	pop	{r7, pc}
 80007a6:	bf00      	nop
 80007a8:	40010400 	andmi	r0, r1, r0, lsl #8
 80007ac:	20000038 	andcs	r0, r0, r8, lsr r0

080007b0 <EXTI1_IRQHandler>:
 80007b0:	b580      	push	{r7, lr}
 80007b2:	af00      	add	r7, sp, #0
 80007b4:	4b05      	ldr	r3, [pc, #20]	; (80007cc <EXTI1_IRQHandler+0x1c>)
 80007b6:	695b      	ldr	r3, [r3, #20]
 80007b8:	4a04      	ldr	r2, [pc, #16]	; (80007cc <EXTI1_IRQHandler+0x1c>)
 80007ba:	f043 0302 	orr.w	r3, r3, #2
 80007be:	6153      	str	r3, [r2, #20]
 80007c0:	4b03      	ldr	r3, [pc, #12]	; (80007d0 <EXTI1_IRQHandler+0x20>)
 80007c2:	685b      	ldr	r3, [r3, #4]
 80007c4:	4798      	blx	r3
 80007c6:	bf00      	nop
 80007c8:	bd80      	pop	{r7, pc}
 80007ca:	bf00      	nop
 80007cc:	40010400 	andmi	r0, r1, r0, lsl #8
 80007d0:	20000038 	andcs	r0, r0, r8, lsr r0

080007d4 <EXTI2_IRQHandler>:
 80007d4:	b580      	push	{r7, lr}
 80007d6:	af00      	add	r7, sp, #0
 80007d8:	4b05      	ldr	r3, [pc, #20]	; (80007f0 <EXTI2_IRQHandler+0x1c>)
 80007da:	695b      	ldr	r3, [r3, #20]
 80007dc:	4a04      	ldr	r2, [pc, #16]	; (80007f0 <EXTI2_IRQHandler+0x1c>)
 80007de:	f043 0304 	orr.w	r3, r3, #4
 80007e2:	6153      	str	r3, [r2, #20]
 80007e4:	4b03      	ldr	r3, [pc, #12]	; (80007f4 <EXTI2_IRQHandler+0x20>)
 80007e6:	689b      	ldr	r3, [r3, #8]
 80007e8:	4798      	blx	r3
 80007ea:	bf00      	nop
 80007ec:	bd80      	pop	{r7, pc}
 80007ee:	bf00      	nop
 80007f0:	40010400 	andmi	r0, r1, r0, lsl #8
 80007f4:	20000038 	andcs	r0, r0, r8, lsr r0

080007f8 <EXTI3_IRQHandler>:
 80007f8:	b580      	push	{r7, lr}
 80007fa:	af00      	add	r7, sp, #0
 80007fc:	4b05      	ldr	r3, [pc, #20]	; (8000814 <EXTI3_IRQHandler+0x1c>)
 80007fe:	695b      	ldr	r3, [r3, #20]
 8000800:	4a04      	ldr	r2, [pc, #16]	; (8000814 <EXTI3_IRQHandler+0x1c>)
 8000802:	f043 0308 	orr.w	r3, r3, #8
 8000806:	6153      	str	r3, [r2, #20]
 8000808:	4b03      	ldr	r3, [pc, #12]	; (8000818 <EXTI3_IRQHandler+0x20>)
 800080a:	68db      	ldr	r3, [r3, #12]
 800080c:	4798      	blx	r3
 800080e:	bf00      	nop
 8000810:	bd80      	pop	{r7, pc}
 8000812:	bf00      	nop
 8000814:	40010400 	andmi	r0, r1, r0, lsl #8
 8000818:	20000038 	andcs	r0, r0, r8, lsr r0

0800081c <EXTI4_IRQHandler>:
 800081c:	b580      	push	{r7, lr}
 800081e:	af00      	add	r7, sp, #0
 8000820:	4b05      	ldr	r3, [pc, #20]	; (8000838 <EXTI4_IRQHandler+0x1c>)
 8000822:	695b      	ldr	r3, [r3, #20]
 8000824:	4a04      	ldr	r2, [pc, #16]	; (8000838 <EXTI4_IRQHandler+0x1c>)
 8000826:	f043 0310 	orr.w	r3, r3, #16
 800082a:	6153      	str	r3, [r2, #20]
 800082c:	4b03      	ldr	r3, [pc, #12]	; (800083c <EXTI4_IRQHandler+0x20>)
 800082e:	691b      	ldr	r3, [r3, #16]
 8000830:	4798      	blx	r3
 8000832:	bf00      	nop
 8000834:	bd80      	pop	{r7, pc}
 8000836:	bf00      	nop
 8000838:	40010400 	andmi	r0, r1, r0, lsl #8
 800083c:	20000038 	andcs	r0, r0, r8, lsr r0

08000840 <EXTI9_5_IRQHandler>:
 8000840:	b580      	push	{r7, lr}
 8000842:	af00      	add	r7, sp, #0
 8000844:	4b26      	ldr	r3, [pc, #152]	; (80008e0 <EXTI9_5_IRQHandler+0xa0>)
 8000846:	695b      	ldr	r3, [r3, #20]
 8000848:	f003 0320 	and.w	r3, r3, #32
 800084c:	2b00      	cmp	r3, #0
 800084e:	d008      	beq.n	8000862 <EXTI9_5_IRQHandler+0x22>
 8000850:	4b23      	ldr	r3, [pc, #140]	; (80008e0 <EXTI9_5_IRQHandler+0xa0>)
 8000852:	695b      	ldr	r3, [r3, #20]
 8000854:	4a22      	ldr	r2, [pc, #136]	; (80008e0 <EXTI9_5_IRQHandler+0xa0>)
 8000856:	f043 0320 	orr.w	r3, r3, #32
 800085a:	6153      	str	r3, [r2, #20]
 800085c:	4b21      	ldr	r3, [pc, #132]	; (80008e4 <EXTI9_5_IRQHandler+0xa4>)
 800085e:	695b      	ldr	r3, [r3, #20]
 8000860:	4798      	blx	r3
 8000862:	4b1f      	ldr	r3, [pc, #124]	; (80008e0 <EXTI9_5_IRQHandler+0xa0>)
 8000864:	695b      	ldr	r3, [r3, #20]
 8000866:	f003 0340 	and.w	r3, r3, #64	; 0x40
 800086a:	2b00      	cmp	r3, #0
 800086c:	d008      	beq.n	8000880 <EXTI9_5_IRQHandler+0x40>
 800086e:	4b1c      	ldr	r3, [pc, #112]	; (80008e0 <EXTI9_5_IRQHandler+0xa0>)
 8000870:	695b      	ldr	r3, [r3, #20]
 8000872:	4a1b      	ldr	r2, [pc, #108]	; (80008e0 <EXTI9_5_IRQHandler+0xa0>)
 8000874:	f043 0340 	orr.w	r3, r3, #64	; 0x40
 8000878:	6153      	str	r3, [r2, #20]
 800087a:	4b1a      	ldr	r3, [pc, #104]	; (80008e4 <EXTI9_5_IRQHandler+0xa4>)
 800087c:	699b      	ldr	r3, [r3, #24]
 800087e:	4798      	blx	r3
 8000880:	4b17      	ldr	r3, [pc, #92]	; (80008e0 <EXTI9_5_IRQHandler+0xa0>)
 8000882:	695b      	ldr	r3, [r3, #20]
 8000884:	f003 0380 	and.w	r3, r3, #128	; 0x80
 8000888:	2b00      	cmp	r3, #0
 800088a:	d008      	beq.n	800089e <EXTI9_5_IRQHandler+0x5e>
 800088c:	4b14      	ldr	r3, [pc, #80]	; (80008e0 <EXTI9_5_IRQHandler+0xa0>)
 800088e:	695b      	ldr	r3, [r3, #20]
 8000890:	4a13      	ldr	r2, [pc, #76]	; (80008e0 <EXTI9_5_IRQHandler+0xa0>)
 8000892:	f043 0380 	orr.w	r3, r3, #128	; 0x80
 8000896:	6153      	str	r3, [r2, #20]
 8000898:	4b12      	ldr	r3, [pc, #72]	; (80008e4 <EXTI9_5_IRQHandler+0xa4>)
 800089a:	69db      	ldr	r3, [r3, #28]
 800089c:	4798      	blx	r3
 800089e:	4b10      	ldr	r3, [pc, #64]	; (80008e0 <EXTI9_5_IRQHandler+0xa0>)
 80008a0:	695b      	ldr	r3, [r3, #20]
 80008a2:	f403 7380 	and.w	r3, r3, #256	; 0x100
 80008a6:	2b00      	cmp	r3, #0
 80008a8:	d008      	beq.n	80008bc <EXTI9_5_IRQHandler+0x7c>
 80008aa:	4b0d      	ldr	r3, [pc, #52]	; (80008e0 <EXTI9_5_IRQHandler+0xa0>)
 80008ac:	695b      	ldr	r3, [r3, #20]
 80008ae:	4a0c      	ldr	r2, [pc, #48]	; (80008e0 <EXTI9_5_IRQHandler+0xa0>)
 80008b0:	f443 7380 	orr.w	r3, r3, #256	; 0x100
 80008b4:	6153      	str	r3, [r2, #20]
 80008b6:	4b0b      	ldr	r3, [pc, #44]	; (80008e4 <EXTI9_5_IRQHandler+0xa4>)
 80008b8:	6a1b      	ldr	r3, [r3, #32]
 80008ba:	4798      	blx	r3
 80008bc:	4b08      	ldr	r3, [pc, #32]	; (80008e0 <EXTI9_5_IRQHandler+0xa0>)
 80008be:	695b      	ldr	r3, [r3, #20]
 80008c0:	f403 7300 	and.w	r3, r3, #512	; 0x200
 80008c4:	2b00      	cmp	r3, #0
 80008c6:	d008      	beq.n	80008da <EXTI9_5_IRQHandler+0x9a>
 80008c8:	4b05      	ldr	r3, [pc, #20]	; (80008e0 <EXTI9_5_IRQHandler+0xa0>)
 80008ca:	695b      	ldr	r3, [r3, #20]
 80008cc:	4a04      	ldr	r2, [pc, #16]	; (80008e0 <EXTI9_5_IRQHandler+0xa0>)
 80008ce:	f443 7300 	orr.w	r3, r3, #512	; 0x200
 80008d2:	6153      	str	r3, [r2, #20]
 80008d4:	4b03      	ldr	r3, [pc, #12]	; (80008e4 <EXTI9_5_IRQHandler+0xa4>)
 80008d6:	6a5b      	ldr	r3, [r3, #36]	; 0x24
 80008d8:	4798      	blx	r3
 80008da:	bf00      	nop
 80008dc:	bd80      	pop	{r7, pc}
 80008de:	bf00      	nop
 80008e0:	40010400 	andmi	r0, r1, r0, lsl #8
 80008e4:	20000038 	andcs	r0, r0, r8, lsr r0

080008e8 <EXTI15_10_IRQHandler>:
 80008e8:	b580      	push	{r7, lr}
 80008ea:	af00      	add	r7, sp, #0
 80008ec:	4b2d      	ldr	r3, [pc, #180]	; (80009a4 <EXTI15_10_IRQHandler+0xbc>)
 80008ee:	695b      	ldr	r3, [r3, #20]
 80008f0:	f403 6380 	and.w	r3, r3, #1024	; 0x400
 80008f4:	2b00      	cmp	r3, #0
 80008f6:	d008      	beq.n	800090a <EXTI15_10_IRQHandler+0x22>
 80008f8:	4b2a      	ldr	r3, [pc, #168]	; (80009a4 <EXTI15_10_IRQHandler+0xbc>)
 80008fa:	695b      	ldr	r3, [r3, #20]
 80008fc:	4a29      	ldr	r2, [pc, #164]	; (80009a4 <EXTI15_10_IRQHandler+0xbc>)
 80008fe:	f443 6380 	orr.w	r3, r3, #1024	; 0x400
 8000902:	6153      	str	r3, [r2, #20]
 8000904:	4b28      	ldr	r3, [pc, #160]	; (80009a8 <EXTI15_10_IRQHandler+0xc0>)
 8000906:	6a9b      	ldr	r3, [r3, #40]	; 0x28
 8000908:	4798      	blx	r3
 800090a:	4b26      	ldr	r3, [pc, #152]	; (80009a4 <EXTI15_10_IRQHandler+0xbc>)
 800090c:	695b      	ldr	r3, [r3, #20]
 800090e:	f403 6300 	and.w	r3, r3, #2048	; 0x800
 8000912:	2b00      	cmp	r3, #0
 8000914:	d008      	beq.n	8000928 <EXTI15_10_IRQHandler+0x40>
 8000916:	4b23      	ldr	r3, [pc, #140]	; (80009a4 <EXTI15_10_IRQHandler+0xbc>)
 8000918:	695b      	ldr	r3, [r3, #20]
 800091a:	4a22      	ldr	r2, [pc, #136]	; (80009a4 <EXTI15_10_IRQHandler+0xbc>)
 800091c:	f443 6300 	orr.w	r3, r3, #2048	; 0x800
 8000920:	6153      	str	r3, [r2, #20]
 8000922:	4b21      	ldr	r3, [pc, #132]	; (80009a8 <EXTI15_10_IRQHandler+0xc0>)
 8000924:	6adb      	ldr	r3, [r3, #44]	; 0x2c
 8000926:	4798      	blx	r3
 8000928:	4b1e      	ldr	r3, [pc, #120]	; (80009a4 <EXTI15_10_IRQHandler+0xbc>)
 800092a:	695b      	ldr	r3, [r3, #20]
 800092c:	f403 5380 	and.w	r3, r3, #4096	; 0x1000
 8000930:	2b00      	cmp	r3, #0
 8000932:	d008      	beq.n	8000946 <EXTI15_10_IRQHandler+0x5e>
 8000934:	4b1b      	ldr	r3, [pc, #108]	; (80009a4 <EXTI15_10_IRQHandler+0xbc>)
 8000936:	695b      	ldr	r3, [r3, #20]
 8000938:	4a1a      	ldr	r2, [pc, #104]	; (80009a4 <EXTI15_10_IRQHandler+0xbc>)
 800093a:	f443 5380 	orr.w	r3, r3, #4096	; 0x1000
 800093e:	6153      	str	r3, [r2, #20]
 8000940:	4b19      	ldr	r3, [pc, #100]	; (80009a8 <EXTI15_10_IRQHandler+0xc0>)
 8000942:	6b1b      	ldr	r3, [r3, #48]	; 0x30
 8000944:	4798      	blx	r3
 8000946:	4b17      	ldr	r3, [pc, #92]	; (80009a4 <EXTI15_10_IRQHandler+0xbc>)
 8000948:	695b      	ldr	r3, [r3, #20]
 800094a:	f403 5300 	and.w	r3, r3, #8192	; 0x2000
 800094e:	2b00      	cmp	r3, #0
 8000950:	d008      	beq.n	8000964 <EXTI15_10_IRQHandler+0x7c>
 8000952:	4b14      	ldr	r3, [pc, #80]	; (80009a4 <EXTI15_10_IRQHandler+0xbc>)
 8000954:	695b      	ldr	r3, [r3, #20]
 8000956:	4a13      	ldr	r2, [pc, #76]	; (80009a4 <EXTI15_10_IRQHandler+0xbc>)
 8000958:	f443 5300 	orr.w	r3, r3, #8192	; 0x2000
 800095c:	6153      	str	r3, [r2, #20]
 800095e:	4b12      	ldr	r3, [pc, #72]	; (80009a8 <EXTI15_10_IRQHandler+0xc0>)
 8000960:	6b5b      	ldr	r3, [r3, #52]	; 0x34
 8000962:	4798      	blx	r3
 8000964:	4b0f      	ldr	r3, [pc, #60]	; (80009a4 <EXTI15_10_IRQHandler+0xbc>)
 8000966:	695b      	ldr	r3, [r3, #20]
 8000968:	f403 4380 	and.w	r3, r3, #16384	; 0x4000
 800096c:	2b00      	cmp	r3, #0
 800096e:	d008      	beq.n	8000982 <EXTI15_10_IRQHandler+0x9a>
 8000970:	4b0c      	ldr	r3, [pc, #48]	; (80009a4 <EXTI15_10_IRQHandler+0xbc>)
 8000972:	695b      	ldr	r3, [r3, #20]
 8000974:	4a0b      	ldr	r2, [pc, #44]	; (80009a4 <EXTI15_10_IRQHandler+0xbc>)
 8000976:	f443 4380 	orr.w	r3, r3, #16384	; 0x4000
 800097a:	6153      	str	r3, [r2, #20]
 800097c:	4b0a      	ldr	r3, [pc, #40]	; (80009a8 <EXTI15_10_IRQHandler+0xc0>)
 800097e:	6b9b      	ldr	r3, [r3, #56]	; 0x38
 8000980:	4798      	blx	r3
 8000982:	4b08      	ldr	r3, [pc, #32]	; (80009a4 <EXTI15_10_IRQHandler+0xbc>)
 8000984:	695b      	ldr	r3, [r3, #20]
 8000986:	f403 4300 	and.w	r3, r3, #32768	; 0x8000
 800098a:	2b00      	cmp	r3, #0
 800098c:	d008      	beq.n	80009a0 <EXTI15_10_IRQHandler+0xb8>
 800098e:	4b05      	ldr	r3, [pc, #20]	; (80009a4 <EXTI15_10_IRQHandler+0xbc>)
 8000990:	695b      	ldr	r3, [r3, #20]
 8000992:	4a04      	ldr	r2, [pc, #16]	; (80009a4 <EXTI15_10_IRQHandler+0xbc>)
 8000994:	f443 4300 	orr.w	r3, r3, #32768	; 0x8000
 8000998:	6153      	str	r3, [r2, #20]
 800099a:	4b03      	ldr	r3, [pc, #12]	; (80009a8 <EXTI15_10_IRQHandler+0xc0>)
 800099c:	6bdb      	ldr	r3, [r3, #60]	; 0x3c
 800099e:	4798      	blx	r3
 80009a0:	bf00      	nop
 80009a2:	bd80      	pop	{r7, pc}
 80009a4:	40010400 	andmi	r0, r1, r0, lsl #8
 80009a8:	20000038 	andcs	r0, r0, r8, lsr r0

080009ac <Get_PinPostion>:
 80009ac:	b480      	push	{r7}
 80009ae:	b083      	sub	sp, #12
 80009b0:	af00      	add	r7, sp, #0
 80009b2:	4603      	mov	r3, r0
 80009b4:	80fb      	strh	r3, [r7, #6]
 80009b6:	88fb      	ldrh	r3, [r7, #6]
 80009b8:	f5b3 4f00 	cmp.w	r3, #32768	; 0x8000
 80009bc:	f000 808f 	beq.w	8000ade <Get_PinPostion+0x132>
 80009c0:	f5b3 4f00 	cmp.w	r3, #32768	; 0x8000
 80009c4:	f300 808d 	bgt.w	8000ae2 <Get_PinPostion+0x136>
 80009c8:	f5b3 4f80 	cmp.w	r3, #16384	; 0x4000
 80009cc:	f000 8085 	beq.w	8000ada <Get_PinPostion+0x12e>
 80009d0:	f5b3 4f80 	cmp.w	r3, #16384	; 0x4000
 80009d4:	f300 8085 	bgt.w	8000ae2 <Get_PinPostion+0x136>
 80009d8:	f5b3 5f00 	cmp.w	r3, #8192	; 0x2000
 80009dc:	d07b      	beq.n	8000ad6 <Get_PinPostion+0x12a>
 80009de:	f5b3 5f00 	cmp.w	r3, #8192	; 0x2000
 80009e2:	dc7e      	bgt.n	8000ae2 <Get_PinPostion+0x136>
 80009e4:	f5b3 5f80 	cmp.w	r3, #4096	; 0x1000
 80009e8:	d073      	beq.n	8000ad2 <Get_PinPostion+0x126>
 80009ea:	f5b3 5f80 	cmp.w	r3, #4096	; 0x1000
 80009ee:	dc78      	bgt.n	8000ae2 <Get_PinPostion+0x136>
 80009f0:	f5b3 6f00 	cmp.w	r3, #2048	; 0x800
 80009f4:	d06b      	beq.n	8000ace <Get_PinPostion+0x122>
 80009f6:	f5b3 6f00 	cmp.w	r3, #2048	; 0x800
 80009fa:	dc72      	bgt.n	8000ae2 <Get_PinPostion+0x136>
 80009fc:	f5b3 6f80 	cmp.w	r3, #1024	; 0x400
 8000a00:	d063      	beq.n	8000aca <Get_PinPostion+0x11e>
 8000a02:	f5b3 6f80 	cmp.w	r3, #1024	; 0x400
 8000a06:	dc6c      	bgt.n	8000ae2 <Get_PinPostion+0x136>
 8000a08:	f5b3 7f00 	cmp.w	r3, #512	; 0x200
 8000a0c:	d05b      	beq.n	8000ac6 <Get_PinPostion+0x11a>
 8000a0e:	f5b3 7f00 	cmp.w	r3, #512	; 0x200
 8000a12:	dc66      	bgt.n	8000ae2 <Get_PinPostion+0x136>
 8000a14:	f5b3 7f80 	cmp.w	r3, #256	; 0x100
 8000a18:	d053      	beq.n	8000ac2 <Get_PinPostion+0x116>
 8000a1a:	f5b3 7f80 	cmp.w	r3, #256	; 0x100
 8000a1e:	dc60      	bgt.n	8000ae2 <Get_PinPostion+0x136>
 8000a20:	2b80      	cmp	r3, #128	; 0x80
 8000a22:	d05c      	beq.n	8000ade <Get_PinPostion+0x132>
 8000a24:	2b80      	cmp	r3, #128	; 0x80
 8000a26:	dc5c      	bgt.n	8000ae2 <Get_PinPostion+0x136>
 8000a28:	2b20      	cmp	r3, #32
 8000a2a:	dc47      	bgt.n	8000abc <Get_PinPostion+0x110>
 8000a2c:	2b00      	cmp	r3, #0
 8000a2e:	dd58      	ble.n	8000ae2 <Get_PinPostion+0x136>
 8000a30:	3b01      	subs	r3, #1
 8000a32:	2b1f      	cmp	r3, #31
 8000a34:	d855      	bhi.n	8000ae2 <Get_PinPostion+0x136>
 8000a36:	a201      	add	r2, pc, #4	; (adr r2, 8000a3c <Get_PinPostion+0x90>)
 8000a38:	f852 f023 	ldr.w	pc, [r2, r3, lsl #2]
 8000a3c:	08000ac3 	stmdaeq	r0, {r0, r1, r6, r7, r9, fp}
 8000a40:	08000ac7 	stmdaeq	r0, {r0, r1, r2, r6, r7, r9, fp}
 8000a44:	08000ae3 	stmdaeq	r0, {r0, r1, r5, r6, r7, r9, fp}
 8000a48:	08000acb 	stmdaeq	r0, {r0, r1, r3, r6, r7, r9, fp}
 8000a4c:	08000ae3 	stmdaeq	r0, {r0, r1, r5, r6, r7, r9, fp}
 8000a50:	08000ae3 	stmdaeq	r0, {r0, r1, r5, r6, r7, r9, fp}
 8000a54:	08000ae3 	stmdaeq	r0, {r0, r1, r5, r6, r7, r9, fp}
 8000a58:	08000acf 	stmdaeq	r0, {r0, r1, r2, r3, r6, r7, r9, fp}
 8000a5c:	08000ae3 	stmdaeq	r0, {r0, r1, r5, r6, r7, r9, fp}
 8000a60:	08000ae3 	stmdaeq	r0, {r0, r1, r5, r6, r7, r9, fp}
 8000a64:	08000ae3 	stmdaeq	r0, {r0, r1, r5, r6, r7, r9, fp}
 8000a68:	08000ae3 	stmdaeq	r0, {r0, r1, r5, r6, r7, r9, fp}
 8000a6c:	08000ae3 	stmdaeq	r0, {r0, r1, r5, r6, r7, r9, fp}
 8000a70:	08000ae3 	stmdaeq	r0, {r0, r1, r5, r6, r7, r9, fp}
 8000a74:	08000ae3 	stmdaeq	r0, {r0, r1, r5, r6, r7, r9, fp}
 8000a78:	08000ad3 	stmdaeq	r0, {r0, r1, r4, r6, r7, r9, fp}
 8000a7c:	08000ae3 	stmdaeq	r0, {r0, r1, r5, r6, r7, r9, fp}
 8000a80:	08000ae3 	stmdaeq	r0, {r0, r1, r5, r6, r7, r9, fp}
 8000a84:	08000ae3 	stmdaeq	r0, {r0, r1, r5, r6, r7, r9, fp}
 8000a88:	08000ae3 	stmdaeq	r0, {r0, r1, r5, r6, r7, r9, fp}
 8000a8c:	08000ae3 	stmdaeq	r0, {r0, r1, r5, r6, r7, r9, fp}
 8000a90:	08000ae3 	stmdaeq	r0, {r0, r1, r5, r6, r7, r9, fp}
 8000a94:	08000ae3 	stmdaeq	r0, {r0, r1, r5, r6, r7, r9, fp}
 8000a98:	08000ae3 	stmdaeq	r0, {r0, r1, r5, r6, r7, r9, fp}
 8000a9c:	08000ae3 	stmdaeq	r0, {r0, r1, r5, r6, r7, r9, fp}
 8000aa0:	08000ae3 	stmdaeq	r0, {r0, r1, r5, r6, r7, r9, fp}
 8000aa4:	08000ae3 	stmdaeq	r0, {r0, r1, r5, r6, r7, r9, fp}
 8000aa8:	08000ae3 	stmdaeq	r0, {r0, r1, r5, r6, r7, r9, fp}
 8000aac:	08000ae3 	stmdaeq	r0, {r0, r1, r5, r6, r7, r9, fp}
 8000ab0:	08000ae3 	stmdaeq	r0, {r0, r1, r5, r6, r7, r9, fp}
 8000ab4:	08000ae3 	stmdaeq	r0, {r0, r1, r5, r6, r7, r9, fp}
 8000ab8:	08000ad7 	stmdaeq	r0, {r0, r1, r2, r4, r6, r7, r9, fp}
 8000abc:	2b40      	cmp	r3, #64	; 0x40
 8000abe:	d00c      	beq.n	8000ada <Get_PinPostion+0x12e>
 8000ac0:	e00f      	b.n	8000ae2 <Get_PinPostion+0x136>
 8000ac2:	2300      	movs	r3, #0
 8000ac4:	e00e      	b.n	8000ae4 <Get_PinPostion+0x138>
 8000ac6:	2304      	movs	r3, #4
 8000ac8:	e00c      	b.n	8000ae4 <Get_PinPostion+0x138>
 8000aca:	2308      	movs	r3, #8
 8000acc:	e00a      	b.n	8000ae4 <Get_PinPostion+0x138>
 8000ace:	230c      	movs	r3, #12
 8000ad0:	e008      	b.n	8000ae4 <Get_PinPostion+0x138>
 8000ad2:	2310      	movs	r3, #16
 8000ad4:	e006      	b.n	8000ae4 <Get_PinPostion+0x138>
 8000ad6:	2314      	movs	r3, #20
 8000ad8:	e004      	b.n	8000ae4 <Get_PinPostion+0x138>
 8000ada:	2318      	movs	r3, #24
 8000adc:	e002      	b.n	8000ae4 <Get_PinPostion+0x138>
 8000ade:	231c      	movs	r3, #28
 8000ae0:	e000      	b.n	8000ae4 <Get_PinPostion+0x138>
 8000ae2:	2300      	movs	r3, #0
 8000ae4:	4618      	mov	r0, r3
 8000ae6:	370c      	adds	r7, #12
 8000ae8:	46bd      	mov	sp, r7
 8000aea:	bc80      	pop	{r7}
 8000aec:	4770      	bx	lr
 8000aee:	bf00      	nop

08000af0 <GPIO_Init>:
 8000af0:	b590      	push	{r4, r7, lr}
 8000af2:	b085      	sub	sp, #20
 8000af4:	af00      	add	r7, sp, #0
 8000af6:	6078      	str	r0, [r7, #4]
 8000af8:	6039      	str	r1, [r7, #0]
 8000afa:	2300      	movs	r3, #0
 8000afc:	60bb      	str	r3, [r7, #8]
 8000afe:	2300      	movs	r3, #0
 8000b00:	73fb      	strb	r3, [r7, #15]
 8000b02:	683b      	ldr	r3, [r7, #0]
 8000b04:	881b      	ldrh	r3, [r3, #0]
 8000b06:	2bff      	cmp	r3, #255	; 0xff
 8000b08:	d801      	bhi.n	8000b0e <GPIO_Init+0x1e>
 8000b0a:	687b      	ldr	r3, [r7, #4]
 8000b0c:	e001      	b.n	8000b12 <GPIO_Init+0x22>
 8000b0e:	687b      	ldr	r3, [r7, #4]
 8000b10:	3304      	adds	r3, #4
 8000b12:	60bb      	str	r3, [r7, #8]
 8000b14:	683b      	ldr	r3, [r7, #0]
 8000b16:	881b      	ldrh	r3, [r3, #0]
 8000b18:	4618      	mov	r0, r3
 8000b1a:	f7ff ff47 	bl	80009ac <Get_PinPostion>
 8000b1e:	4603      	mov	r3, r0
 8000b20:	461a      	mov	r2, r3
 8000b22:	230f      	movs	r3, #15
 8000b24:	4093      	lsls	r3, r2
 8000b26:	43da      	mvns	r2, r3
 8000b28:	68bb      	ldr	r3, [r7, #8]
 8000b2a:	681b      	ldr	r3, [r3, #0]
 8000b2c:	401a      	ands	r2, r3
 8000b2e:	68bb      	ldr	r3, [r7, #8]
 8000b30:	601a      	str	r2, [r3, #0]
 8000b32:	683b      	ldr	r3, [r7, #0]
 8000b34:	885b      	ldrh	r3, [r3, #2]
 8000b36:	2b04      	cmp	r3, #4
 8000b38:	d00b      	beq.n	8000b52 <GPIO_Init+0x62>
 8000b3a:	683b      	ldr	r3, [r7, #0]
 8000b3c:	885b      	ldrh	r3, [r3, #2]
 8000b3e:	2b05      	cmp	r3, #5
 8000b40:	d007      	beq.n	8000b52 <GPIO_Init+0x62>
 8000b42:	683b      	ldr	r3, [r7, #0]
 8000b44:	885b      	ldrh	r3, [r3, #2]
 8000b46:	2b06      	cmp	r3, #6
 8000b48:	d003      	beq.n	8000b52 <GPIO_Init+0x62>
 8000b4a:	683b      	ldr	r3, [r7, #0]
 8000b4c:	885b      	ldrh	r3, [r3, #2]
 8000b4e:	2b07      	cmp	r3, #7
 8000b50:	d11c      	bne.n	8000b8c <GPIO_Init+0x9c>
 8000b52:	683b      	ldr	r3, [r7, #0]
 8000b54:	885b      	ldrh	r3, [r3, #2]
 8000b56:	3b04      	subs	r3, #4
 8000b58:	009b      	lsls	r3, r3, #2
 8000b5a:	b25a      	sxtb	r2, r3
 8000b5c:	683b      	ldr	r3, [r7, #0]
 8000b5e:	889b      	ldrh	r3, [r3, #4]
 8000b60:	b25b      	sxtb	r3, r3
 8000b62:	4313      	orrs	r3, r2
 8000b64:	b25b      	sxtb	r3, r3
 8000b66:	b2db      	uxtb	r3, r3
 8000b68:	f003 030f 	and.w	r3, r3, #15
 8000b6c:	73fb      	strb	r3, [r7, #15]
 8000b6e:	7bfc      	ldrb	r4, [r7, #15]
 8000b70:	683b      	ldr	r3, [r7, #0]
 8000b72:	881b      	ldrh	r3, [r3, #0]
 8000b74:	4618      	mov	r0, r3
 8000b76:	f7ff ff19 	bl	80009ac <Get_PinPostion>
 8000b7a:	4603      	mov	r3, r0
 8000b7c:	fa04 f203 	lsl.w	r2, r4, r3
 8000b80:	68bb      	ldr	r3, [r7, #8]
 8000b82:	681b      	ldr	r3, [r3, #0]
 8000b84:	431a      	orrs	r2, r3
 8000b86:	68bb      	ldr	r3, [r7, #8]
 8000b88:	601a      	str	r2, [r3, #0]
 8000b8a:	e072      	b.n	8000c72 <GPIO_Init+0x182>
 8000b8c:	683b      	ldr	r3, [r7, #0]
 8000b8e:	885b      	ldrh	r3, [r3, #2]
 8000b90:	2b01      	cmp	r3, #1
 8000b92:	d003      	beq.n	8000b9c <GPIO_Init+0xac>
 8000b94:	683b      	ldr	r3, [r7, #0]
 8000b96:	885b      	ldrh	r3, [r3, #2]
 8000b98:	2b00      	cmp	r3, #0
 8000b9a:	d115      	bne.n	8000bc8 <GPIO_Init+0xd8>
 8000b9c:	683b      	ldr	r3, [r7, #0]
 8000b9e:	885b      	ldrh	r3, [r3, #2]
 8000ba0:	009b      	lsls	r3, r3, #2
 8000ba2:	b2db      	uxtb	r3, r3
 8000ba4:	f003 030f 	and.w	r3, r3, #15
 8000ba8:	73fb      	strb	r3, [r7, #15]
 8000baa:	7bfc      	ldrb	r4, [r7, #15]
 8000bac:	683b      	ldr	r3, [r7, #0]
 8000bae:	881b      	ldrh	r3, [r3, #0]
 8000bb0:	4618      	mov	r0, r3
 8000bb2:	f7ff fefb 	bl	80009ac <Get_PinPostion>
 8000bb6:	4603      	mov	r3, r0
 8000bb8:	fa04 f203 	lsl.w	r2, r4, r3
 8000bbc:	68bb      	ldr	r3, [r7, #8]
 8000bbe:	681b      	ldr	r3, [r3, #0]
 8000bc0:	431a      	orrs	r2, r3
 8000bc2:	68bb      	ldr	r3, [r7, #8]
 8000bc4:	601a      	str	r2, [r3, #0]
 8000bc6:	e054      	b.n	8000c72 <GPIO_Init+0x182>
 8000bc8:	683b      	ldr	r3, [r7, #0]
 8000bca:	885b      	ldrh	r3, [r3, #2]
 8000bcc:	2b02      	cmp	r3, #2
 8000bce:	d003      	beq.n	8000bd8 <GPIO_Init+0xe8>
 8000bd0:	683b      	ldr	r3, [r7, #0]
 8000bd2:	885b      	ldrh	r3, [r3, #2]
 8000bd4:	2b03      	cmp	r3, #3
 8000bd6:	d135      	bne.n	8000c44 <GPIO_Init+0x154>
 8000bd8:	683b      	ldr	r3, [r7, #0]
 8000bda:	885b      	ldrh	r3, [r3, #2]
 8000bdc:	2b02      	cmp	r3, #2
 8000bde:	d002      	beq.n	8000be6 <GPIO_Init+0xf6>
 8000be0:	2b03      	cmp	r3, #3
 8000be2:	d00f      	beq.n	8000c04 <GPIO_Init+0x114>
 8000be4:	e01f      	b.n	8000c26 <GPIO_Init+0x136>
 8000be6:	687b      	ldr	r3, [r7, #4]
 8000be8:	68db      	ldr	r3, [r3, #12]
 8000bea:	683a      	ldr	r2, [r7, #0]
 8000bec:	8812      	ldrh	r2, [r2, #0]
 8000bee:	431a      	orrs	r2, r3
 8000bf0:	687b      	ldr	r3, [r7, #4]
 8000bf2:	60da      	str	r2, [r3, #12]
 8000bf4:	683b      	ldr	r3, [r7, #0]
 8000bf6:	885b      	ldrh	r3, [r3, #2]
 8000bf8:	009b      	lsls	r3, r3, #2
 8000bfa:	b2db      	uxtb	r3, r3
 8000bfc:	f003 030f 	and.w	r3, r3, #15
 8000c00:	73fb      	strb	r3, [r7, #15]
 8000c02:	e010      	b.n	8000c26 <GPIO_Init+0x136>
 8000c04:	687b      	ldr	r3, [r7, #4]
 8000c06:	68db      	ldr	r3, [r3, #12]
 8000c08:	683a      	ldr	r2, [r7, #0]
 8000c0a:	8812      	ldrh	r2, [r2, #0]
 8000c0c:	43d2      	mvns	r2, r2
 8000c0e:	401a      	ands	r2, r3
 8000c10:	687b      	ldr	r3, [r7, #4]
 8000c12:	60da      	str	r2, [r3, #12]
 8000c14:	683b      	ldr	r3, [r7, #0]
 8000c16:	885b      	ldrh	r3, [r3, #2]
 8000c18:	3b01      	subs	r3, #1
 8000c1a:	009b      	lsls	r3, r3, #2
 8000c1c:	b2db      	uxtb	r3, r3
 8000c1e:	f003 030f 	and.w	r3, r3, #15
 8000c22:	73fb      	strb	r3, [r7, #15]
 8000c24:	bf00      	nop
 8000c26:	7bfc      	ldrb	r4, [r7, #15]
 8000c28:	683b      	ldr	r3, [r7, #0]
 8000c2a:	881b      	ldrh	r3, [r3, #0]
 8000c2c:	4618      	mov	r0, r3
 8000c2e:	f7ff febd 	bl	80009ac <Get_PinPostion>
 8000c32:	4603      	mov	r3, r0
 8000c34:	fa04 f203 	lsl.w	r2, r4, r3
 8000c38:	68bb      	ldr	r3, [r7, #8]
 8000c3a:	681b      	ldr	r3, [r3, #0]
 8000c3c:	431a      	orrs	r2, r3
 8000c3e:	68bb      	ldr	r3, [r7, #8]
 8000c40:	601a      	str	r2, [r3, #0]
 8000c42:	e016      	b.n	8000c72 <GPIO_Init+0x182>
 8000c44:	683b      	ldr	r3, [r7, #0]
 8000c46:	885b      	ldrh	r3, [r3, #2]
 8000c48:	3b07      	subs	r3, #7
 8000c4a:	009b      	lsls	r3, r3, #2
 8000c4c:	b2db      	uxtb	r3, r3
 8000c4e:	f003 030f 	and.w	r3, r3, #15
 8000c52:	73fb      	strb	r3, [r7, #15]
 8000c54:	7bfc      	ldrb	r4, [r7, #15]
 8000c56:	683b      	ldr	r3, [r7, #0]
 8000c58:	881b      	ldrh	r3, [r3, #0]
 8000c5a:	4618      	mov	r0, r3
 8000c5c:	f7ff fea6 	bl	80009ac <Get_PinPostion>
 8000c60:	4603      	mov	r3, r0
 8000c62:	fa04 f203 	lsl.w	r2, r4, r3
 8000c66:	68bb      	ldr	r3, [r7, #8]
 8000c68:	681b      	ldr	r3, [r3, #0]
 8000c6a:	431a      	orrs	r2, r3
 8000c6c:	68bb      	ldr	r3, [r7, #8]
 8000c6e:	601a      	str	r2, [r3, #0]
 8000c70:	bf00      	nop
 8000c72:	bf00      	nop
 8000c74:	3714      	adds	r7, #20
 8000c76:	46bd      	mov	sp, r7
 8000c78:	bd90      	pop	{r4, r7, pc}
	...

08000c7c <__libc_init_array>:
 8000c7c:	b570      	push	{r4, r5, r6, lr}
 8000c7e:	2600      	movs	r6, #0
 8000c80:	4d0c      	ldr	r5, [pc, #48]	; (8000cb4 <__libc_init_array+0x38>)
 8000c82:	4c0d      	ldr	r4, [pc, #52]	; (8000cb8 <__libc_init_array+0x3c>)
 8000c84:	1b64      	subs	r4, r4, r5
 8000c86:	10a4      	asrs	r4, r4, #2
 8000c88:	42a6      	cmp	r6, r4
 8000c8a:	d109      	bne.n	8000ca0 <__libc_init_array+0x24>
 8000c8c:	f000 f81a 	bl	8000cc4 <_init>
 8000c90:	2600      	movs	r6, #0
 8000c92:	4d0a      	ldr	r5, [pc, #40]	; (8000cbc <__libc_init_array+0x40>)
 8000c94:	4c0a      	ldr	r4, [pc, #40]	; (8000cc0 <__libc_init_array+0x44>)
 8000c96:	1b64      	subs	r4, r4, r5
 8000c98:	10a4      	asrs	r4, r4, #2
 8000c9a:	42a6      	cmp	r6, r4
 8000c9c:	d105      	bne.n	8000caa <__libc_init_array+0x2e>
 8000c9e:	bd70      	pop	{r4, r5, r6, pc}
 8000ca0:	f855 3b04 	ldr.w	r3, [r5], #4
 8000ca4:	4798      	blx	r3
 8000ca6:	3601      	adds	r6, #1
 8000ca8:	e7ee      	b.n	8000c88 <__libc_init_array+0xc>
 8000caa:	f855 3b04 	ldr.w	r3, [r5], #4
 8000cae:	4798      	blx	r3
 8000cb0:	3601      	adds	r6, #1
 8000cb2:	e7f2      	b.n	8000c9a <__libc_init_array+0x1e>
 8000cb4:	08000ce8 	stmdaeq	r0, {r3, r5, r6, r7, sl, fp}
 8000cb8:	08000ce8 	stmdaeq	r0, {r3, r5, r6, r7, sl, fp}
 8000cbc:	08000ce8 	stmdaeq	r0, {r3, r5, r6, r7, sl, fp}
 8000cc0:	08000cec 	stmdaeq	r0, {r2, r3, r5, r6, r7, sl, fp}

08000cc4 <_init>:
 8000cc4:	b5f8      	push	{r3, r4, r5, r6, r7, lr}
 8000cc6:	bf00      	nop
 8000cc8:	bcf8      	pop	{r3, r4, r5, r6, r7}
 8000cca:	bc08      	pop	{r3}
 8000ccc:	469e      	mov	lr, r3
 8000cce:	4770      	bx	lr

08000cd0 <_fini>:
 8000cd0:	b5f8      	push	{r3, r4, r5, r6, r7, lr}
 8000cd2:	bf00      	nop
 8000cd4:	bcf8      	pop	{r3, r4, r5, r6, r7}
 8000cd6:	bc08      	pop	{r3}
 8000cd8:	469e      	mov	lr, r3
 8000cda:	4770      	bx	lr

Disassembly of section .rodata:

08000cdc <.rodata>:
 8000cdc:	00000009 	andeq	r0, r0, r9
 8000ce0:	40010c00 	andmi	r0, r1, r0, lsl #24
 8000ce4:	00170200 	andseq	r0, r7, r0, lsl #4

Disassembly of section .init_array:

08000ce8 <__frame_dummy_init_array_entry>:
 8000ce8:	08000155 	stmdaeq	r0, {r0, r2, r4, r6, r8}

Disassembly of section .fini_array:

08000cec <__do_global_dtors_aux_fini_array_entry>:
 8000cec:	08000131 	stmdaeq	r0, {r0, r4, r5, r8}

Disassembly of section .data:

20000000 <_S_MSP>:
20000000:	20002800 	andcs	r2, r0, r0, lsl #16

Disassembly of section .bss:

20000004 <__bss_start__>:
20000004:	00000000 	andeq	r0, r0, r0

20000008 <object.0>:
	...

20000020 <_E_MSP>:
20000020:	00000000 	andeq	r0, r0, r0

20000024 <_S_PSP_TaskA>:
20000024:	00000000 	andeq	r0, r0, r0

20000028 <_E_PSP_TaskA>:
20000028:	00000000 	andeq	r0, r0, r0

2000002c <_S_PSP_TaskB>:
2000002c:	00000000 	andeq	r0, r0, r0

20000030 <_E_PSP_TaskB>:
20000030:	00000000 	andeq	r0, r0, r0

20000034 <IRQ_Flag>:
	...

20000035 <TaskA_Flag>:
	...

20000036 <TaskB_Flag>:
	...

20000038 <call_back>:
	...

Disassembly of section ._user_heap_stack:

20000074 <_end-0x4>:
20000074:	00000000 	andeq	r0, r0, r0

20000078 <_end>:
	...

Disassembly of section .ARM.attributes:

00000000 <.ARM.attributes>:
   0:	00002841 	andeq	r2, r0, r1, asr #16
   4:	61656100 	cmnvs	r5, r0, lsl #2
   8:	01006962 	tsteq	r0, r2, ror #18
   c:	0000001e 	andeq	r0, r0, lr, lsl r0
  10:	4d2d3705 	stcmi	7, cr3, [sp, #-20]!	; 0xffffffec
  14:	070a0600 	streq	r0, [sl, -r0, lsl #12]
  18:	1202094d 	andne	r0, r2, #1261568	; 0x134000
  1c:	15011404 	strne	r1, [r1, #-1028]	; 0xfffffbfc
  20:	18031701 	stmdane	r3, {r0, r8, r9, sl, ip}
  24:	22011a01 	andcs	r1, r1, #4096	; 0x1000
  28:	Address 0x0000000000000028 is out of bounds.


Disassembly of section .comment:

00000000 <.comment>:
   0:	3a434347 	bcc	10d0d24 <_Min_Stack_Size+0x10d0924>
   4:	4e472820 	cdpmi	8, 4, cr2, cr7, cr0, {1}
   8:	6f542055 	svcvs	0x00542055
   c:	20736c6f 	rsbscs	r6, r3, pc, ror #24
  10:	20726f66 	rsbscs	r6, r2, r6, ror #30
  14:	334d5453 	movtcc	r5, #54355	; 0xd453
  18:	31312032 	teqcc	r1, r2, lsr r0
  1c:	722e332e 	eorvc	r3, lr, #-1207959552	; 0xb8000000
  20:	2e316c65 	cdpcs	12, 3, cr6, cr1, cr5, {3}
  24:	33323032 	teqcc	r2, #50	; 0x32
  28:	32313930 	eorscc	r3, r1, #48, 18	; 0xc0000
  2c:	3036312d 	eorscc	r3, r6, sp, lsr #2
  30:	31202930 			; <UNDEFINED> instruction: 0x31202930
  34:	2e332e31 	mrccs	14, 1, r2, cr3, cr1, {1}
  38:	30322031 	eorscc	r2, r2, r1, lsr r0
  3c:	37303232 			; <UNDEFINED> instruction: 0x37303232
  40:	Address 0x0000000000000040 is out of bounds.


Disassembly of section .debug_info:

00000000 <.debug_info>:
   0:	000004c0 	andeq	r0, r0, r0, asr #9
   4:	00000002 	andeq	r0, r0, r2
   8:	01040000 	mrseq	r0, (UNDEF: 4)
   c:	0000128a 	andeq	r1, r0, sl, lsl #5
  10:	0023f20c 	eoreq	pc, r3, ip, lsl #4
  14:	0065fa00 	rsbeq	pc, r5, r0, lsl #20
	...
  2c:	177e0200 	ldrbne	r0, [lr, -r0, lsl #4]!
  30:	0c020000 	stceq	0, cr0, [r2], {-0}
  34:	00003925 	andeq	r3, r0, r5, lsr #18
  38:	08010300 	stmdaeq	r1, {r8, r9}
  3c:	00004052 	andeq	r4, r0, r2, asr r0
  40:	001bfc02 	andseq	pc, fp, r2, lsl #24
  44:	250d0200 	strcs	r0, [sp, #-512]	; 0xfffffe00
  48:	0000004c 	andeq	r0, r0, ip, asr #32
  4c:	09070203 	stmdbeq	r7, {r0, r1, r9}
  50:	0300004d 	movweq	r0, #77	; 0x4d
  54:	19790704 	ldmdbne	r9!, {r2, r8, r9, sl}^
  58:	53040000 	movwpl	r0, #16384	; 0x4000
  5c:	03000000 	movweq	r0, #0
  60:	2a080708 	bcs	201c88 <_Min_Stack_Size+0x201888>
  64:	01030000 	mrseq	r0, (UNDEF: 3)
  68:	0004e606 	andeq	lr, r4, r6, lsl #12
  6c:	05020300 	streq	r0, [r2, #-768]	; 0xfffffd00
  70:	0000067e 	andeq	r0, r0, lr, ror r6
  74:	69050405 	stmdbvs	r5, {r0, r2, sl}
  78:	0300746e 	movweq	r7, #1134	; 0x46e
  7c:	390a0508 	stmdbcc	sl, {r3, r8, sl}
  80:	a5020000 	strge	r0, [r2, #-0]
  84:	02000000 	andeq	r0, r0, #0
  88:	005a2d1a 	subseq	r2, sl, sl, lsl sp
  8c:	04030000 	streq	r0, [r3], #-0
  90:	00652d04 	rsbeq	r2, r5, r4, lsl #26
  94:	04080300 	streq	r0, [r8], #-768	; 0xfffffd00
  98:	0000385a 	andeq	r3, r0, sl, asr r8
  9c:	62032806 	andvs	r2, r3, #393216	; 0x60000
  a0:	00013b09 	andeq	r3, r1, r9, lsl #22
  a4:	52430700 	subpl	r0, r3, #0, 14
  a8:	0d640300 	stcleq	3, cr0, [r4, #-0]
  ac:	00000082 	andeq	r0, r0, r2, lsl #1
  b0:	08002302 	stmdaeq	r0, {r1, r8, r9, sp}
  b4:	00001214 	andeq	r1, r0, r4, lsl r2
  b8:	820d6503 	andhi	r6, sp, #12582912	; 0xc00000
  bc:	02000000 	andeq	r0, r0, #0
  c0:	43070423 	movwmi	r0, #29731	; 0x7423
  c4:	03005249 	movweq	r5, #585	; 0x249
  c8:	00820d66 	addeq	r0, r2, r6, ror #26
  cc:	23020000 	movwcs	r0, #8192	; 0x2000
  d0:	38c90808 	stmiacc	r9, {r3, fp}^
  d4:	67030000 	strvs	r0, [r3, -r0]
  d8:	0000820d 	andeq	r8, r0, sp, lsl #4
  dc:	0c230200 	sfmeq	f0, 4, [r3], #-0
  e0:	0048c908 	subeq	ip, r8, r8, lsl #18
  e4:	0d680300 	stcleq	3, cr0, [r8, #-0]
  e8:	00000082 	andeq	r0, r0, r2, lsl #1
  ec:	08102302 	ldmdaeq	r0, {r1, r8, r9, sp}
  f0:	00005bc2 	andeq	r5, r0, r2, asr #23
  f4:	820d6903 	andhi	r6, sp, #49152	; 0xc000
  f8:	02000000 	andeq	r0, r0, #0
  fc:	d4081423 	strle	r1, [r8], #-1059	; 0xfffffbdd
 100:	03000015 	movweq	r0, #21
 104:	00820d6a 	addeq	r0, r2, sl, ror #26
 108:	23020000 	movwcs	r0, #8192	; 0x2000
 10c:	49370818 	ldmdbmi	r7!, {r3, r4, fp}
 110:	6b030000 	blvs	c0118 <_Min_Stack_Size+0xbfd18>
 114:	0000820d 	andeq	r8, r0, sp, lsl #4
 118:	1c230200 	sfmne	f0, 4, [r3], #-0
 11c:	00245408 	eoreq	r5, r4, r8, lsl #8
 120:	0d6c0300 	stcleq	3, cr0, [ip, #-0]
 124:	00000082 	andeq	r0, r0, r2, lsl #1
 128:	07202302 	streq	r2, [r0, -r2, lsl #6]!
 12c:	00525343 	subseq	r5, r2, r3, asr #6
 130:	820d6d03 	andhi	r6, sp, #3, 26	; 0xc0
 134:	02000000 	andeq	r0, r0, #0
 138:	02002423 	andeq	r2, r0, #587202560	; 0x23000000
 13c:	000028cc 	andeq	r2, r0, ip, asr #17
 140:	9c026e03 	stcls	14, cr6, [r2], {3}
 144:	06000000 	streq	r0, [r0], -r0
 148:	0974031c 	ldmdbeq	r4!, {r2, r3, r4, r8, r9}^
 14c:	000001ba 			; <UNDEFINED> instruction: 0x000001ba
 150:	4c524307 	mrrcmi	3, 0, r4, r2, cr7
 154:	0d760300 	ldcleq	3, cr0, [r6, #-0]
 158:	00000082 	andeq	r0, r0, r2, lsl #1
 15c:	07002302 	streq	r2, [r0, -r2, lsl #6]
 160:	00485243 	subeq	r5, r8, r3, asr #4
 164:	820d7703 	andhi	r7, sp, #786432	; 0xc0000
 168:	02000000 	andeq	r0, r0, #0
 16c:	49070423 	stmdbmi	r7, {r0, r1, r5, sl}
 170:	03005244 	movweq	r5, #580	; 0x244
 174:	00820d78 	addeq	r0, r2, r8, ror sp
 178:	23020000 	movwcs	r0, #8192	; 0x2000
 17c:	444f0708 	strbmi	r0, [pc], #-1800	; 184 <_Min_Heap_Size-0x7c>
 180:	79030052 	stmdbvc	r3, {r1, r4, r6}
 184:	0000820d 	andeq	r8, r0, sp, lsl #4
 188:	0c230200 	sfmeq	f0, 4, [r3], #-0
 18c:	005d0208 	subseq	r0, sp, r8, lsl #4
 190:	0d7a0300 	ldcleq	3, cr0, [sl, #-0]
 194:	00000082 	andeq	r0, r0, r2, lsl #1
 198:	07102302 	ldreq	r2, [r0, -r2, lsl #6]
 19c:	00525242 	subseq	r5, r2, r2, asr #4
 1a0:	820d7b03 	andhi	r7, sp, #3072	; 0xc00
 1a4:	02000000 	andeq	r0, r0, #0
 1a8:	39081423 	stmdbcc	r8, {r0, r1, r5, sl, ip}
 1ac:	03000030 	movweq	r0, #48	; 0x30
 1b0:	00820d7c 	addeq	r0, r2, ip, ror sp
 1b4:	23020000 	movwcs	r0, #8192	; 0x2000
 1b8:	b5020018 	strlt	r0, [r2, #-24]	; 0xffffffe8
 1bc:	03000008 	movweq	r0, #8
 1c0:	0147027d 	hvceq	28717	; 0x702d
 1c4:	0c060000 	stceq	0, cr0, [r6], {-0}
 1c8:	0c091104 	stfeqs	f1, [r9], {4}
 1cc:	08000002 	stmdaeq	r0, {r1}
 1d0:	00003803 	andeq	r3, r0, r3, lsl #16
 1d4:	400b1304 	andmi	r1, fp, r4, lsl #6
 1d8:	02000000 	andeq	r0, r0, #0
 1dc:	98080023 	stmdals	r8, {r0, r1, r5}
 1e0:	04000016 	streq	r0, [r0], #-22	; 0xffffffea
 1e4:	020c0b14 	andeq	r0, ip, #20, 22	; 0x5000
 1e8:	23020000 	movwcs	r0, #8192	; 0x2000
 1ec:	4eb30804 	cdpmi	8, 11, cr0, cr3, cr4, {0}
 1f0:	15040000 	strne	r0, [r4, #-0]
 1f4:	0000400b 	andeq	r4, r0, fp
 1f8:	08230200 	stmdaeq	r3!, {r9}
 1fc:	00447008 	subeq	r7, r4, r8
 200:	0b160400 	bleq	581208 <_Min_Stack_Size+0x580e08>
 204:	0000002d 	andeq	r0, r0, sp, lsr #32
 208:	000a2302 	andeq	r2, sl, r2, lsl #6
 20c:	01ba0409 			; <UNDEFINED> instruction: 0x01ba0409
 210:	50020000 	andpl	r0, r2, r0
 214:	0400005a 	streq	r0, [r0], #-90	; 0xffffffa6
 218:	01c60218 	biceq	r0, r6, r8, lsl r2
 21c:	14060000 	strne	r0, [r6], #-0
 220:	64091a04 	strvs	r1, [r9], #-2564	; 0xfffff5fc
 224:	08000002 	stmdaeq	r0, {r1}
 228:	00003977 	andeq	r3, r0, r7, ror r9
 22c:	12121c04 	andsne	r1, r2, #4, 24	; 0x400
 230:	02000002 	andeq	r0, r0, #2
 234:	5e080023 	cdppl	0, 0, cr0, cr8, cr3, {1}
 238:	04000021 	streq	r0, [r0], #-33	; 0xffffffdf
 23c:	002d0a1f 	eoreq	r0, sp, pc, lsl sl
 240:	23020000 	movwcs	r0, #8192	; 0x2000
 244:	4d6c080c 	stclmi	8, cr0, [ip, #-48]!	; 0xffffffd0
 248:	22040000 	andcs	r0, r4, #0
 24c:	00002d0a 	andeq	r2, r0, sl, lsl #26
 250:	0d230200 	sfmeq	f0, 4, [r3, #-0]
 254:	0007f508 	andeq	pc, r7, r8, lsl #10
 258:	08250400 	stmdaeq	r5!, {sl}
 25c:	00000266 	andeq	r0, r0, r6, ror #4
 260:	00102302 	andseq	r2, r0, r2, lsl #6
 264:	0409010a 	streq	r0, [r9], #-266	; 0xfffffef6
 268:	00000264 	andeq	r0, r0, r4, ror #4
 26c:	000e7102 	andeq	r7, lr, r2, lsl #2
 270:	02260400 	eoreq	r0, r6, #0, 8
 274:	0000021e 	andeq	r0, r0, lr, lsl r2
 278:	00427d0b 	subeq	r7, r2, fp, lsl #26
 27c:	151c0100 	ldrne	r0, [ip, #-256]	; 0xffffff00
 280:	00000053 	andeq	r0, r0, r3, asr r0
 284:	240c0101 	strcs	r0, [ip], #-257	; 0xfffffeff
 288:	0100001f 	tsteq	r0, pc, lsl r0
 28c:	00530e1f 	subseq	r0, r3, pc, lsl lr
 290:	05010000 	streq	r0, [r1, #-0]
 294:	00000003 	andeq	r0, r0, r3
 298:	2f0d0c20 	svccs	0x000d0c20
 29c:	20010000 	andcs	r0, r1, r0
 2a0:	0000530e 	andeq	r5, r0, lr, lsl #6
 2a4:	03050100 	movweq	r0, #20736	; 0x5100
 2a8:	20000020 	andcs	r0, r0, r0, lsr #32
 2ac:	00285e0c 	eoreq	r5, r8, ip, lsl #28
 2b0:	0e230100 	sufeqs	f0, f3, f0
 2b4:	00000053 	andeq	r0, r0, r3, asr r0
 2b8:	24030501 	strcs	r0, [r3], #-1281	; 0xfffffaff
 2bc:	0c200000 	stceq	0, cr0, [r0], #-0
 2c0:	00002735 	andeq	r2, r0, r5, lsr r7
 2c4:	530e2401 	movwpl	r2, #58369	; 0xe401
 2c8:	01000000 	mrseq	r0, (UNDEF: 0)
 2cc:	00280305 	eoreq	r0, r8, r5, lsl #6
 2d0:	6b0c2000 	blvs	3082d8 <_Min_Stack_Size+0x307ed8>
 2d4:	01000028 	tsteq	r0, r8, lsr #32
 2d8:	00530e28 	subseq	r0, r3, r8, lsr #28
 2dc:	05010000 	streq	r0, [r1, #-0]
 2e0:	00002c03 	andeq	r2, r0, r3, lsl #24
 2e4:	27420c20 	strbcs	r0, [r2, -r0, lsr #24]
 2e8:	29010000 	stmdbcs	r1, {}	; <UNPREDICTABLE>
 2ec:	0000530e 	andeq	r5, r0, lr, lsl #6
 2f0:	03050100 	movweq	r0, #20736	; 0x5100
 2f4:	20000030 	andcs	r0, r0, r0, lsr r0
 2f8:	0023970c 	eoreq	r9, r3, ip, lsl #14
 2fc:	09390100 	ldmdbeq	r9!, {r8}
 300:	0000002d 	andeq	r0, r0, sp, lsr #32
 304:	34030501 	strcc	r0, [r3], #-1281	; 0xfffffaff
 308:	0c200000 	stceq	0, cr0, [r0], #-0
 30c:	00006533 	andeq	r6, r0, r3, lsr r5
 310:	2d093a01 	vstrcs	s6, [r9, #-4]
 314:	01000000 	mrseq	r0, (UNDEF: 0)
 318:	00350305 	eorseq	r0, r5, r5, lsl #6
 31c:	cd0c2000 	stcgt	0, cr2, [ip, #-0]
 320:	01000004 	tsteq	r0, r4
 324:	002d093b 	eoreq	r0, sp, fp, lsr r9
 328:	05010000 	streq	r0, [r1, #-0]
 32c:	00003603 	andeq	r3, r0, r3, lsl #12
 330:	01070d20 	tsteq	r7, r0, lsr #26
 334:	00000039 	andeq	r0, r0, r9, lsr r0
 338:	4c014601 	stcmi	6, cr4, [r1], {1}
 33c:	0e000003 	cdpeq	0, 0, cr0, cr0, cr3, {0}
 340:	00000c23 	andeq	r0, r0, r3, lsr #24
 344:	0c210e00 	stceq	14, cr0, [r1], #-0
 348:	00010000 	andeq	r0, r1, r0
 34c:	00596d02 	subseq	r6, r9, r2, lsl #26
 350:	02490100 	subeq	r0, r9, #0, 2
 354:	00000331 	andeq	r0, r0, r1, lsr r3
 358:	1549010f 	strbne	r0, [r9, #-271]	; 0xfffffef1
 35c:	b0040000 	andlt	r0, r4, r0
 360:	6d010106 	stfvss	f0, [r1, #-24]	; 0xffffffe8
 364:	10000003 	andne	r0, r0, r3
 368:	0000036d 	andeq	r0, r0, sp, ror #6
 36c:	6c040900 			; <UNDEFINED> instruction: 0x6c040900
 370:	11000002 	tstne	r0, r2
 374:	005f1601 	subseq	r1, pc, r1, lsl #12
 378:	05b90100 	ldreq	r0, [r9, #256]!	; 0x100
 37c:	00007401 	andeq	r7, r0, r1, lsl #8
 380:	00036000 	andeq	r6, r3, r0
 384:	0003ac08 	andeq	sl, r3, r8, lsl #24
 388:	00000008 	andeq	r0, r0, r8
 38c:	03a20100 			; <UNDEFINED> instruction: 0x03a20100
 390:	42120000 	andsmi	r0, r2, #0
 394:	01000057 	qaddeq	r0, r7, r0
 398:	026c13bf 	rsbeq	r1, ip, #-67108862	; 0xfc000002
 39c:	91020000 	mrsls	r0, (UNDEF: 2)
 3a0:	01130064 	tsteq	r3, r4, rrx
 3a4:	0000676e 	andeq	r6, r0, lr, ror #14
 3a8:	0106b401 	tsteq	r6, r1, lsl #8
 3ac:	08000350 	stmdaeq	r0, {r4, r6, r8, r9}
 3b0:	0800035e 	stmdaeq	r0, {r1, r2, r3, r4, r6, r8, r9}
 3b4:	00000038 	andeq	r0, r0, r8, lsr r0
 3b8:	0c011301 	stceq	3, cr1, [r1], {1}
 3bc:	01000050 	qaddeq	r0, r0, r0
 3c0:	5801067a 	stmdapl	r1, {r1, r3, r4, r5, r6, r9, sl}
 3c4:	50080002 	andpl	r0, r8, r2
 3c8:	64080003 	strvs	r0, [r8], #-3
 3cc:	01000000 	mrseq	r0, (UNDEF: 0)
 3d0:	27490114 	smlaldcs	r0, r9, r4, r1
 3d4:	75010000 	strvc	r0, [r1, #-0]
 3d8:	00740105 	rsbseq	r0, r4, r5, lsl #2
 3dc:	02300000 	eorseq	r0, r0, #0
 3e0:	02560800 	subseq	r0, r6, #0, 16
 3e4:	00900800 	addseq	r0, r0, r0, lsl #16
 3e8:	24010000 	strcs	r0, [r1], #-0
 3ec:	15000004 	strne	r0, [r0, #-4]
 3f0:	75010061 	strvc	r0, [r1, #-97]	; 0xffffff9f
 3f4:	0000740f 	andeq	r7, r0, pc, lsl #8
 3f8:	74910200 	ldrvc	r0, [r1], #512	; 0x200
 3fc:	01006215 	tsteq	r0, r5, lsl r2
 400:	00741675 	rsbseq	r1, r4, r5, ror r6
 404:	91020000 	mrsls	r0, (UNDEF: 2)
 408:	00631570 	rsbeq	r1, r3, r0, ror r5
 40c:	741d7501 	ldrvc	r7, [sp], #-1281	; 0xfffffaff
 410:	02000000 	andeq	r0, r0, #0
 414:	64156c91 	ldrvs	r6, [r5], #-3217	; 0xfffff36f
 418:	24750100 	ldrbtcs	r0, [r5], #-256	; 0xffffff00
 41c:	00000074 	andeq	r0, r0, r4, ror r0
 420:	00689102 	rsbeq	r9, r8, r2, lsl #2
 424:	273c0114 			; <UNDEFINED> instruction: 0x273c0114
 428:	70010000 	andvc	r0, r1, r0
 42c:	00740105 	rsbseq	r0, r4, r5, lsl #2
 430:	02100000 	andseq	r0, r0, #0
 434:	02300800 	eorseq	r0, r0, #0, 16
 438:	00ec0800 	rsceq	r0, ip, r0, lsl #16
 43c:	6b010000 	blvs	40444 <_Min_Stack_Size+0x40044>
 440:	15000004 	strne	r0, [r0, #-4]
 444:	70010061 	andvc	r0, r1, r1, rrx
 448:	0000740f 	andeq	r7, r0, pc, lsl #8
 44c:	74910200 	ldrvc	r0, [r1], #512	; 0x200
 450:	01006215 	tsteq	r0, r5, lsl r2
 454:	00741670 	rsbseq	r1, r4, r0, ror r6
 458:	91020000 	mrsls	r0, (UNDEF: 2)
 45c:	00631570 	rsbeq	r1, r3, r0, ror r5
 460:	741d7001 	ldrvc	r7, [sp], #-1
 464:	02000000 	andeq	r0, r0, #0
 468:	16006c91 			; <UNDEFINED> instruction: 0x16006c91
 46c:	0059fb01 	subseq	pc, r9, r1, lsl #22
 470:	06600100 	strbteq	r0, [r0], -r0, lsl #2
 474:	0001e401 	andeq	lr, r1, r1, lsl #8
 478:	00021008 	andeq	r1, r2, r8
 47c:	00014808 	andeq	r4, r1, r8, lsl #16
 480:	01170100 	tsteq	r7, r0, lsl #2
 484:	00004662 	andeq	r4, r0, r2, ror #12
 488:	01064b01 	tsteq	r6, r1, lsl #22
 48c:	080001a4 	stmdaeq	r0, {r2, r5, r7, r8}
 490:	080001e4 	stmdaeq	r0, {r2, r5, r6, r7, r8}
 494:	0000018c 	andeq	r0, r0, ip, lsl #3
 498:	0004ad01 	andeq	sl, r4, r1, lsl #26
 49c:	46691800 	strbtmi	r1, [r9], -r0, lsl #16
 4a0:	4b010000 	blmi	404a8 <_Min_Stack_Size+0x400a8>
 4a4:	00034c2f 	andeq	r4, r3, pc, lsr #24
 4a8:	77910200 	ldrvc	r0, [r1, r0, lsl #4]
 4ac:	11011900 	tstne	r1, r0, lsl #18
 4b0:	0100001b 	tsteq	r0, fp, lsl r0
 4b4:	0170062d 	cmneq	r0, sp, lsr #12
 4b8:	01a40800 			; <UNDEFINED> instruction: 0x01a40800
 4bc:	01e80800 	mvneq	r0, r0, lsl #16
 4c0:	00010000 	andeq	r0, r1, r0
 4c4:	0000001e 	andeq	r0, r0, lr, lsl r0
 4c8:	01bb0002 			; <UNDEFINED> instruction: 0x01bb0002
 4cc:	01040000 	mrseq	r0, (UNDEF: 4)
 4d0:	0000021d 	andeq	r0, r0, sp, lsl r2
 4d4:	00000048 	andeq	r0, r0, r8, asr #32
 4d8:	00006dd0 	ldrdeq	r6, [r0], -r0
 4dc:	00006df3 	strdeq	r6, [r0], -r3
 4e0:	00006e1e 	andeq	r6, r0, lr, lsl lr
 4e4:	05018001 	streq	r8, [r1, #-1]
 4e8:	00020000 	andeq	r0, r2, r0
 4ec:	000001cd 	andeq	r0, r0, sp, asr #3
 4f0:	128a0104 	addne	r0, sl, #4, 2
 4f4:	a10c0000 	mrsge	r0, (UNDEF: 12)
 4f8:	fa00006f 	blx	6bc <_Min_Stack_Size+0x2bc>
 4fc:	68000065 	stmdavs	r0, {r0, r2, r5, r6}
	...
 508:	a1000000 	mrsge	r0, (UNDEF: 0)
 50c:	63000002 	movwvs	r0, #2
 510:	02000003 	andeq	r0, r0, #3
 514:	0000177e 	andeq	r1, r0, lr, ror r7
 518:	39250c02 	stmdbcc	r5!, {r1, sl, fp}
 51c:	03000000 	movweq	r0, #0
 520:	40520801 	subsmi	r0, r2, r1, lsl #16
 524:	fc020000 	stc2	0, cr0, [r2], {-0}
 528:	0200001b 	andeq	r0, r0, #27
 52c:	004c250d 	subeq	r2, ip, sp, lsl #10
 530:	02030000 	andeq	r0, r3, #0
 534:	004d0907 	subeq	r0, sp, r7, lsl #18
 538:	00a60200 	adceq	r0, r6, r0, lsl #4
 53c:	0e020000 	cdpeq	0, 0, cr0, cr2, cr0, {0}
 540:	00005f25 	andeq	r5, r0, r5, lsr #30
 544:	07040300 	streq	r0, [r4, -r0, lsl #6]
 548:	00001979 	andeq	r1, r0, r9, ror r9
 54c:	00005f04 	andeq	r5, r0, r4, lsl #30
 550:	07080300 	streq	r0, [r8, -r0, lsl #6]
 554:	00002a08 	andeq	r2, r0, r8, lsl #20
 558:	e6060103 	str	r0, [r6], -r3, lsl #2
 55c:	03000004 	movweq	r0, #4
 560:	067e0502 	ldrbteq	r0, [lr], -r2, lsl #10
 564:	04050000 	streq	r0, [r5], #-0
 568:	746e6905 	strbtvc	r6, [lr], #-2309	; 0xfffff6fb
 56c:	05080300 	streq	r0, [r8, #-768]	; 0xfffffd00
 570:	0000390a 	andeq	r3, r0, sl, lsl #18
 574:	0000a502 	andeq	sl, r0, r2, lsl #10
 578:	2d1a0200 	lfmcs	f0, 4, [sl, #-0]
 57c:	00000066 	andeq	r0, r0, r6, rrx
 580:	2d040403 	cfstrscs	mvf0, [r4, #-12]
 584:	03000065 	movweq	r0, #101	; 0x65
 588:	385a0408 	ldmdacc	sl, {r3, sl}^
 58c:	1c060000 	stcne	0, cr0, [r6], {-0}
 590:	1b097403 	blne	25d5a4 <_Min_Stack_Size+0x25d1a4>
 594:	07000001 	streq	r0, [r0, -r1]
 598:	004c5243 	subeq	r5, ip, r3, asr #4
 59c:	8e0d7603 	cfmadd32hi	mvax0, mvfx7, mvfx13, mvfx3
 5a0:	02000000 	andeq	r0, r0, #0
 5a4:	43070023 	movwmi	r0, #28707	; 0x7023
 5a8:	03004852 	movweq	r4, #2130	; 0x852
 5ac:	008e0d77 	addeq	r0, lr, r7, ror sp
 5b0:	23020000 	movwcs	r0, #8192	; 0x2000
 5b4:	44490704 	strbmi	r0, [r9], #-1796	; 0xfffff8fc
 5b8:	78030052 	stmdavc	r3, {r1, r4, r6}
 5bc:	00008e0d 	andeq	r8, r0, sp, lsl #28
 5c0:	08230200 	stmdaeq	r3!, {r9}
 5c4:	52444f07 	subpl	r4, r4, #7, 30
 5c8:	0d790300 	ldcleq	3, cr0, [r9, #-0]
 5cc:	0000008e 	andeq	r0, r0, lr, lsl #1
 5d0:	080c2302 	stmdaeq	ip, {r1, r8, r9, sp}
 5d4:	00005d02 	andeq	r5, r0, r2, lsl #26
 5d8:	8e0d7a03 	vmlahi.f32	s14, s26, s6
 5dc:	02000000 	andeq	r0, r0, #0
 5e0:	42071023 	andmi	r1, r7, #35	; 0x23
 5e4:	03005252 	movweq	r5, #594	; 0x252
 5e8:	008e0d7b 	addeq	r0, lr, fp, ror sp
 5ec:	23020000 	movwcs	r0, #8192	; 0x2000
 5f0:	30390814 	eorscc	r0, r9, r4, lsl r8
 5f4:	7c030000 	stcvc	0, cr0, [r3], {-0}
 5f8:	00008e0d 	andeq	r8, r0, sp, lsl #28
 5fc:	18230200 	stmdane	r3!, {r9}
 600:	08b50200 	ldmeq	r5!, {r9}
 604:	7d030000 	stcvc	0, cr0, [r3, #-0]
 608:	0000a802 	andeq	sl, r0, r2, lsl #16
 60c:	03200600 	nopeq	{0}	; <UNPREDICTABLE>
 610:	017c0983 	cmneq	ip, r3, lsl #19
 614:	d4080000 	strle	r0, [r8], #-0
 618:	0300006e 	movweq	r0, #110	; 0x6e
 61c:	008e0d85 	addeq	r0, lr, r5, lsl #27
 620:	23020000 	movwcs	r0, #8192	; 0x2000
 624:	6f0c0800 	svcvs	0x000c0800
 628:	86030000 	strhi	r0, [r3], -r0
 62c:	00008e0d 	andeq	r8, r0, sp, lsl #28
 630:	04230200 	strteq	r0, [r3], #-512	; 0xfffffe00
 634:	006e2a08 	rsbeq	r2, lr, r8, lsl #20
 638:	0d870300 	stceq	3, cr0, [r7]
 63c:	0000018c 	andeq	r0, r0, ip, lsl #3
 640:	08082302 	stmdaeq	r8, {r1, r8, r9, sp}
 644:	00006fc0 	andeq	r6, r0, r0, asr #31
 648:	530d8803 	movwpl	r8, #55299	; 0xd803
 64c:	02000000 	andeq	r0, r0, #0
 650:	a8081823 	stmdage	r8, {r0, r1, r5, fp, ip}
 654:	0300006e 	movweq	r0, #110	; 0x6e
 658:	008e0d89 	addeq	r0, lr, r9, lsl #27
 65c:	23020000 	movwcs	r0, #8192	; 0x2000
 660:	8e09001c 	mcrhi	0, 0, r0, cr9, cr12, {0}
 664:	8c000000 	stchi	0, cr0, [r0], {-0}
 668:	0a000001 	beq	674 <_Min_Stack_Size+0x274>
 66c:	0000005f 	andeq	r0, r0, pc, asr r0
 670:	7c040003 	stcvc	0, cr0, [r4], {3}
 674:	02000001 	andeq	r0, r0, #1
 678:	00006ea1 	andeq	r6, r0, r1, lsr #29
 67c:	27028a03 	strcs	r8, [r2, -r3, lsl #20]
 680:	06000001 	streq	r0, [r0], -r1
 684:	09900318 	ldmibeq	r0, {r3, r4, r8, r9}
 688:	00000200 	andeq	r0, r0, r0, lsl #4
 68c:	524d4907 	subpl	r4, sp, #114688	; 0x1c000
 690:	0d920300 	ldceq	3, cr0, [r2]
 694:	0000008e 	andeq	r0, r0, lr, lsl #1
 698:	07002302 	streq	r2, [r0, -r2, lsl #6]
 69c:	00524d45 	subseq	r4, r2, r5, asr #26
 6a0:	8e0d9303 	cdphi	3, 0, cr9, cr13, cr3, {0}
 6a4:	02000000 	andeq	r0, r0, #0
 6a8:	5b080423 	blpl	20173c <_Min_Stack_Size+0x20133c>
 6ac:	0300006e 	movweq	r0, #110	; 0x6e
 6b0:	008e0d94 	umulleq	r0, lr, r4, sp
 6b4:	23020000 	movwcs	r0, #8192	; 0x2000
 6b8:	6e3e0808 	cdpvs	8, 3, cr0, cr14, cr8, {0}
 6bc:	95030000 	strls	r0, [r3, #-0]
 6c0:	00008e0d 	andeq	r8, r0, sp, lsl #28
 6c4:	0c230200 	sfmeq	f0, 4, [r3], #-0
 6c8:	006efc08 	rsbeq	pc, lr, r8, lsl #24
 6cc:	0d960300 	ldceq	3, cr0, [r6]
 6d0:	0000008e 	andeq	r0, r0, lr, lsl #1
 6d4:	07102302 	ldreq	r2, [r0, -r2, lsl #6]
 6d8:	03005250 	movweq	r5, #592	; 0x250
 6dc:	008e0d97 	umulleq	r0, lr, r7, sp
 6e0:	23020000 	movwcs	r0, #8192	; 0x2000
 6e4:	9a020014 	bls	8073c <_Min_Stack_Size+0x8033c>
 6e8:	0300006f 	movweq	r0, #111	; 0x6f
 6ec:	019d0298 			; <UNDEFINED> instruction: 0x019d0298
 6f0:	06060000 	streq	r0, [r6], -r0
 6f4:	43091004 	movwmi	r1, #36868	; 0x9004
 6f8:	08000002 	stmdaeq	r0, {r1}
 6fc:	00006f24 	andeq	r6, r0, r4, lsr #30
 700:	400b1404 	andmi	r1, fp, r4, lsl #8
 704:	02000000 	andeq	r0, r0, #0
 708:	31080023 	tstcc	r8, r3, lsr #32
 70c:	0400006e 	streq	r0, [r0], #-110	; 0xffffff92
 710:	00400b18 	subeq	r0, r0, r8, lsl fp
 714:	23020000 	movwcs	r0, #8192	; 0x2000
 718:	6ec60802 	cdpvs	8, 12, cr0, cr6, cr2, {0}
 71c:	1c040000 	stcne	0, cr0, [r4], {-0}
 720:	0000400b 	andeq	r4, r0, fp
 724:	04230200 	strteq	r0, [r3], #-512	; 0xfffffe00
 728:	6f770200 	svcvs	0x00770200
 72c:	1d040000 	stcne	0, cr0, [r4, #-0]
 730:	00020c02 	andeq	r0, r2, r2, lsl #24
 734:	050c0600 	streq	r0, [ip, #-1536]	; 0xfffffa00
 738:	02950911 	addseq	r0, r5, #278528	; 0x44000
 73c:	03080000 	movweq	r0, #32768	; 0x8000
 740:	05000038 	streq	r0, [r0, #-56]	; 0xffffffc8
 744:	00400b13 	subeq	r0, r0, r3, lsl fp
 748:	23020000 	movwcs	r0, #8192	; 0x2000
 74c:	16980800 	ldrne	r0, [r8], r0, lsl #16
 750:	14050000 	strne	r0, [r5], #-0
 754:	0002950b 	andeq	r9, r2, fp, lsl #10
 758:	04230200 	strteq	r0, [r3], #-512	; 0xfffffe00
 75c:	004eb308 	subeq	fp, lr, r8, lsl #6
 760:	0b150500 	bleq	541b68 <_Min_Stack_Size+0x541768>
 764:	00000040 	andeq	r0, r0, r0, asr #32
 768:	08082302 	stmdaeq	r8, {r1, r8, r9, sp}
 76c:	00004470 	andeq	r4, r0, r0, ror r4
 770:	2d0b1605 	stccs	6, cr1, [fp, #-20]	; 0xffffffec
 774:	02000000 	andeq	r0, r0, #0
 778:	0b000a23 	bleq	300c <_Min_Stack_Size+0x2c0c>
 77c:	00011b04 	andeq	r1, r1, r4, lsl #22
 780:	5a500200 	bpl	1400f88 <_Min_Stack_Size+0x1400b88>
 784:	18050000 	stmdane	r5, {}	; <UNPREDICTABLE>
 788:	00024f02 	andeq	r4, r2, r2, lsl #30
 78c:	05140600 	ldreq	r0, [r4, #-1536]	; 0xfffffa00
 790:	02ed091a 	rsceq	r0, sp, #425984	; 0x68000
 794:	77080000 	strvc	r0, [r8, -r0]
 798:	05000039 	streq	r0, [r0, #-57]	; 0xffffffc7
 79c:	029b121c 	addseq	r1, fp, #28, 4	; 0xc0000001
 7a0:	23020000 	movwcs	r0, #8192	; 0x2000
 7a4:	215e0800 	cmpcs	lr, r0, lsl #16
 7a8:	1f050000 	svcne	0x00050000
 7ac:	00002d0a 	andeq	r2, r0, sl, lsl #26
 7b0:	0c230200 	sfmeq	f0, 4, [r3], #-0
 7b4:	004d6c08 	subeq	r6, sp, r8, lsl #24
 7b8:	0a220500 	beq	881bc0 <_Min_Stack_Size+0x8817c0>
 7bc:	0000002d 	andeq	r0, r0, sp, lsr #32
 7c0:	080d2302 	stmdaeq	sp, {r1, r8, r9, sp}
 7c4:	000007f5 	strdeq	r0, [r0], -r5
 7c8:	ef082505 	svc	0x00082505
 7cc:	02000002 	andeq	r0, r0, #2
 7d0:	0c001023 	stceq	0, cr1, [r0], {35}	; 0x23
 7d4:	ed040b01 	vstr	d0, [r4, #-4]
 7d8:	02000002 	andeq	r0, r0, #2
 7dc:	00000e71 	andeq	r0, r0, r1, ror lr
 7e0:	a7022605 	strge	r2, [r2, -r5, lsl #12]
 7e4:	09000002 	stmdbeq	r0, {r1}
 7e8:	000002ef 	andeq	r0, r0, pc, ror #5
 7ec:	00000311 	andeq	r0, r0, r1, lsl r3
 7f0:	00005f0a 	andeq	r5, r0, sl, lsl #30
 7f4:	0d000e00 	stceq	14, cr0, [r0, #-0]
 7f8:	00006ef2 	strdeq	r6, [r0], -r2
 7fc:	01070b01 	tsteq	r7, r1, lsl #22
 800:	01000003 	tsteq	r0, r3
 804:	00380305 	eorseq	r0, r8, r5, lsl #6
 808:	010e2000 	mrseq	r2, (UNDEF: 14)
 80c:	00006f02 	andeq	r6, r0, r2, lsl #30
 810:	01066504 	tsteq	r6, r4, lsl #10
 814:	00033e01 	andeq	r3, r3, r1, lsl #28
 818:	02950f00 	addseq	r0, r5, #0, 30
 81c:	3e0f0000 	cdpcc	0, 0, cr0, cr15, cr0, {0}
 820:	00000003 	andeq	r0, r0, r3
 824:	0243040b 	subeq	r0, r3, #184549376	; 0xb000000
 828:	01100000 	tsteq	r0, r0
 82c:	00006f62 	andeq	r6, r0, r2, ror #30
 830:	06012601 	streq	r2, [r1], -r1, lsl #12
 834:	0008e801 	andeq	lr, r8, r1, lsl #16
 838:	0009ac08 	andeq	sl, r9, r8, lsl #24
 83c:	00022c08 	andeq	r2, r2, r8, lsl #24
 840:	01100100 	tsteq	r0, r0, lsl #2
 844:	00006f11 	andeq	r6, r0, r1, lsl pc
 848:	06011e01 	streq	r1, [r1], -r1, lsl #28
 84c:	00084001 	andeq	r4, r8, r1
 850:	0008e808 	andeq	lr, r8, r8, lsl #16
 854:	00025808 	andeq	r5, r2, r8, lsl #16
 858:	01100100 	tsteq	r0, r0, lsl #2
 85c:	00006e72 	andeq	r6, r0, r2, ror lr
 860:	06011501 	streq	r1, [r1], -r1, lsl #10
 864:	00081c01 	andeq	r1, r8, r1, lsl #24
 868:	00084008 	andeq	r4, r8, r8
 86c:	00028408 	andeq	r8, r2, r8, lsl #8
 870:	01100100 	tsteq	r0, r0, lsl #2
 874:	00006f40 	andeq	r6, r0, r0, asr #30
 878:	06010c01 	streq	r0, [r1], -r1, lsl #24
 87c:	0007f801 	andeq	pc, r7, r1, lsl #16
 880:	00081c08 	andeq	r1, r8, r8, lsl #24
 884:	0002b008 	andeq	fp, r2, r8
 888:	01100100 	tsteq	r0, r0, lsl #2
 88c:	00006ee1 	andeq	r6, r0, r1, ror #29
 890:	06010301 	streq	r0, [r1], -r1, lsl #6
 894:	0007d401 	andeq	sp, r7, r1, lsl #8
 898:	0007f808 	andeq	pc, r7, r8, lsl #16
 89c:	0002dc08 	andeq	sp, r2, r8, lsl #24
 8a0:	01110100 	tsteq	r1, r0, lsl #2
 8a4:	00006fcb 	andeq	r6, r0, fp, asr #31
 8a8:	0106fa01 	tsteq	r6, r1, lsl #20	; <UNPREDICTABLE>
 8ac:	080007b0 	stmdaeq	r0, {r4, r5, r7, r8, r9, sl}
 8b0:	080007d4 	stmdaeq	r0, {r2, r4, r6, r7, r8, r9, sl}
 8b4:	00000308 	andeq	r0, r0, r8, lsl #6
 8b8:	51011101 	tstpl	r1, r1, lsl #2
 8bc:	0100006f 	tsteq	r0, pc, rrx
 8c0:	8c0106f0 	stchi	6, cr0, [r1], {240}	; 0xf0
 8c4:	b0080007 	andlt	r0, r8, r7
 8c8:	34080007 	strcc	r0, [r8], #-7
 8cc:	01000003 	tsteq	r0, r3
 8d0:	006f3312 	rsbeq	r3, pc, r2, lsl r3	; <UNPREDICTABLE>
 8d4:	06c50100 	strbeq	r0, [r5], r0, lsl #2
 8d8:	0006c001 	andeq	ip, r6, r1
 8dc:	00078c08 	andeq	r8, r7, r8, lsl #24
 8e0:	00036008 	andeq	r6, r3, r8
 8e4:	04140100 	ldreq	r0, [r4], #-256	; 0xffffff00
 8e8:	8f130000 	svchi	0x00130000
 8ec:	0100006e 	tsteq	r0, lr, rrx
 8f0:	00401cc5 	subeq	r1, r0, r5, asr #25
 8f4:	91020000 	mrsls	r0, (UNDEF: 2)
 8f8:	ba120076 	blt	480ad8 <_Min_Stack_Size+0x4806d8>
 8fc:	0100006e 	tsteq	r0, lr, rrx
 900:	f4010694 	vst1.32	{d0-d2}, [r1 :64], r4
 904:	c0080005 	andgt	r0, r8, r5
 908:	bc080006 	stclt	0, cr0, [r8], {6}
 90c:	01000003 	tsteq	r0, r3
 910:	0000043e 	andeq	r0, r0, lr, lsr r4
 914:	006e8f13 	rsbeq	r8, lr, r3, lsl pc
 918:	1b940100 	blne	fe500d20 <_estack+0xde4fe520>
 91c:	00000040 	andeq	r0, r0, r0, asr #32
 920:	00769102 	rsbseq	r9, r6, r2, lsl #2
 924:	006e4f14 	rsbeq	r4, lr, r4, lsl pc
 928:	064f0100 	strbeq	r0, [pc], -r0, lsl #2
 92c:	00041401 	andeq	r1, r4, r1, lsl #8
 930:	0005f408 	andeq	pc, r5, r8, lsl #8
 934:	00041808 	andeq	r1, r4, r8, lsl #16
 938:	04950100 	ldreq	r0, [r5], #256	; 0x100
 93c:	83130000 	tsthi	r3, #0
 940:	0100006e 	tsteq	r0, lr, rrx
 944:	0495254f 	ldreq	r2, [r5], #1359	; 0x54f
 948:	91020000 	mrsls	r0, (UNDEF: 2)
 94c:	6ed9156c 	cdpvs	5, 13, cr1, cr9, cr12, {3}
 950:	52010000 	andpl	r0, r1, #0
 954:	00024310 	andeq	r4, r2, r0, lsl r3
 958:	70910200 	addsvc	r0, r1, r0, lsl #4
 95c:	006e6015 	rsbeq	r6, lr, r5, lsl r0
 960:	0a580100 	beq	1600d68 <_Min_Stack_Size+0x1600968>
 964:	0000002d 	andeq	r0, r0, sp, lsr #32
 968:	15779102 	ldrbne	r9, [r7, #-258]!	; 0xfffffefe
 96c:	00006f85 	andeq	r6, r0, r5, lsl #31
 970:	2d0a5b01 	vstrcs	d5, [sl, #-4]
 974:	02000000 	andeq	r0, r0, #0
 978:	0b007691 	bleq	1e3c4 <_Min_Stack_Size+0x1dfc4>
 97c:	0002f504 	andeq	pc, r2, r4, lsl #10
 980:	ae011600 	cfmadd32ge	mvax0, mvfx1, mvfx1, mvfx0
 984:	0100006e 	tsteq	r0, lr, rrx
 988:	00010637 	andeq	r0, r1, r7, lsr r6
 98c:	00000000 	andeq	r0, r0, r0
 990:	68000000 	stmdavs	r0, {}	; <UNPREDICTABLE>
 994:	01000004 	tsteq	r0, r4
 998:	6e430117 	mcrvs	1, 2, r0, cr3, cr7, {0}
 99c:	2c010000 	stccs	0, cr0, [r1], {-0}
 9a0:	00000106 	andeq	r0, r0, r6, lsl #2
 9a4:	00000000 	andeq	r0, r0, r0
 9a8:	04ac0000 	strteq	r0, [ip], #0
 9ac:	dd010000 	stcle	0, cr0, [r1, #-0]
 9b0:	13000004 	movwne	r0, #4
 9b4:	00006e83 	andeq	r6, r0, r3, lsl #29
 9b8:	95242c01 	strls	r2, [r4, #-3073]!	; 0xfffff3ff
 9bc:	02000004 	andeq	r0, r0, #4
 9c0:	18007491 	stmdane	r0, {r0, r4, r7, sl, ip, sp, lr}
 9c4:	00154901 	andseq	r4, r5, r1, lsl #18
 9c8:	06210100 	strteq	r0, [r1], -r0, lsl #2
 9cc:	0003fe01 	andeq	pc, r3, r1, lsl #28
 9d0:	00041408 	andeq	r1, r4, r8, lsl #8
 9d4:	0004fc08 	andeq	pc, r4, r8, lsl #24
 9d8:	83130100 	tsthi	r3, #0, 2
 9dc:	0100006e 	tsteq	r0, lr, rrx
 9e0:	04952221 	ldreq	r2, [r5], #545	; 0x221
 9e4:	91020000 	mrsls	r0, (UNDEF: 2)
 9e8:	61000074 	tstvs	r0, r4, ror r0
 9ec:	02000004 	andeq	r0, r0, #4
 9f0:	00036e00 	andeq	r6, r3, r0, lsl #28
 9f4:	8a010400 	bhi	419fc <_Min_Stack_Size+0x415fc>
 9f8:	0c000012 	stceq	0, cr0, [r0], {18}
 9fc:	00007083 	andeq	r7, r0, r3, lsl #1
 a00:	000065fa 	strdeq	r6, [r0], -sl
 a04:	000000d8 	ldrdeq	r0, [r0], -r8
	...
 a10:	00000705 	andeq	r0, r0, r5, lsl #14
 a14:	00000482 	andeq	r0, r0, r2, lsl #9
 a18:	00177e02 	andseq	r7, r7, r2, lsl #28
 a1c:	250c0200 	strcs	r0, [ip, #-512]	; 0xfffffe00
 a20:	00000039 	andeq	r0, r0, r9, lsr r0
 a24:	52080103 	andpl	r0, r8, #-1073741824	; 0xc0000000
 a28:	02000040 	andeq	r0, r0, #64	; 0x40
 a2c:	00001bfc 	strdeq	r1, [r0], -ip
 a30:	4c250d02 	stcmi	13, cr0, [r5], #-8
 a34:	03000000 	movweq	r0, #0
 a38:	4d090702 	stcmi	7, cr0, [r9, #-8]
 a3c:	a6020000 	strge	r0, [r2], -r0
 a40:	02000000 	andeq	r0, r0, #0
 a44:	0064250e 	rsbeq	r2, r4, lr, lsl #10
 a48:	53040000 	movwpl	r0, #16384	; 0x4000
 a4c:	03000000 	movweq	r0, #0
 a50:	19790704 	ldmdbne	r9!, {r2, r8, r9, sl}^
 a54:	64040000 	strvs	r0, [r4], #-0
 a58:	03000000 	movweq	r0, #0
 a5c:	2a080708 	bcs	202684 <_Min_Stack_Size+0x202284>
 a60:	01030000 	mrseq	r0, (UNDEF: 3)
 a64:	0004e606 	andeq	lr, r4, r6, lsl #12
 a68:	05020300 	streq	r0, [r2, #-768]	; 0xfffffd00
 a6c:	0000067e 	andeq	r0, r0, lr, ror r6
 a70:	69050405 	stmdbvs	r5, {r0, r2, sl}
 a74:	0300746e 	movweq	r7, #1134	; 0x46e
 a78:	390a0508 	stmdbcc	sl, {r3, r8, sl}
 a7c:	a5020000 	strge	r0, [r2, #-0]
 a80:	02000000 	andeq	r0, r0, #0
 a84:	006b2d1a 	rsbeq	r2, fp, sl, lsl sp
 a88:	04030000 	streq	r0, [r3], #-0
 a8c:	00652d04 	rsbeq	r2, r5, r4, lsl #26
 a90:	04080300 	streq	r0, [r8], #-768	; 0xfffffd00
 a94:	0000385a 	andeq	r3, r0, sl, asr r8
 a98:	62032806 	andvs	r2, r3, #393216	; 0x60000
 a9c:	00014c09 	andeq	r4, r1, r9, lsl #24
 aa0:	52430700 	subpl	r0, r3, #0, 14
 aa4:	0d640300 	stcleq	3, cr0, [r4, #-0]
 aa8:	00000093 	muleq	r0, r3, r0
 aac:	08002302 	stmdaeq	r0, {r1, r8, r9, sp}
 ab0:	00001214 	andeq	r1, r0, r4, lsl r2
 ab4:	930d6503 	movwls	r6, #54531	; 0xd503
 ab8:	02000000 	andeq	r0, r0, #0
 abc:	43070423 	movwmi	r0, #29731	; 0x7423
 ac0:	03005249 	movweq	r5, #585	; 0x249
 ac4:	00930d66 	addseq	r0, r3, r6, ror #26
 ac8:	23020000 	movwcs	r0, #8192	; 0x2000
 acc:	38c90808 	stmiacc	r9, {r3, fp}^
 ad0:	67030000 	strvs	r0, [r3, -r0]
 ad4:	0000930d 	andeq	r9, r0, sp, lsl #6
 ad8:	0c230200 	sfmeq	f0, 4, [r3], #-0
 adc:	0048c908 	subeq	ip, r8, r8, lsl #18
 ae0:	0d680300 	stcleq	3, cr0, [r8, #-0]
 ae4:	00000093 	muleq	r0, r3, r0
 ae8:	08102302 	ldmdaeq	r0, {r1, r8, r9, sp}
 aec:	00005bc2 	andeq	r5, r0, r2, asr #23
 af0:	930d6903 	movwls	r6, #55555	; 0xd903
 af4:	02000000 	andeq	r0, r0, #0
 af8:	d4081423 	strle	r1, [r8], #-1059	; 0xfffffbdd
 afc:	03000015 	movweq	r0, #21
 b00:	00930d6a 	addseq	r0, r3, sl, ror #26
 b04:	23020000 	movwcs	r0, #8192	; 0x2000
 b08:	49370818 	ldmdbmi	r7!, {r3, r4, fp}
 b0c:	6b030000 	blvs	c0b14 <_Min_Stack_Size+0xc0714>
 b10:	0000930d 	andeq	r9, r0, sp, lsl #6
 b14:	1c230200 	sfmne	f0, 4, [r3], #-0
 b18:	00245408 	eoreq	r5, r4, r8, lsl #8
 b1c:	0d6c0300 	stcleq	3, cr0, [ip, #-0]
 b20:	00000093 	muleq	r0, r3, r0
 b24:	07202302 	streq	r2, [r0, -r2, lsl #6]!
 b28:	00525343 	subseq	r5, r2, r3, asr #6
 b2c:	930d6d03 	movwls	r6, #56579	; 0xdd03
 b30:	02000000 	andeq	r0, r0, #0
 b34:	02002423 	andeq	r2, r0, #587202560	; 0x23000000
 b38:	000028cc 	andeq	r2, r0, ip, asr #17
 b3c:	ad026e03 	stcge	14, cr6, [r2, #-12]
 b40:	06000000 	streq	r0, [r0], -r0
 b44:	0974031c 	ldmdbeq	r4!, {r2, r3, r4, r8, r9}^
 b48:	000001cb 	andeq	r0, r0, fp, asr #3
 b4c:	4c524307 	mrrcmi	3, 0, r4, r2, cr7
 b50:	0d760300 	ldcleq	3, cr0, [r6, #-0]
 b54:	00000093 	muleq	r0, r3, r0
 b58:	07002302 	streq	r2, [r0, -r2, lsl #6]
 b5c:	00485243 	subeq	r5, r8, r3, asr #4
 b60:	930d7703 	movwls	r7, #55043	; 0xd703
 b64:	02000000 	andeq	r0, r0, #0
 b68:	49070423 	stmdbmi	r7, {r0, r1, r5, sl}
 b6c:	03005244 	movweq	r5, #580	; 0x244
 b70:	00930d78 	addseq	r0, r3, r8, ror sp
 b74:	23020000 	movwcs	r0, #8192	; 0x2000
 b78:	444f0708 	strbmi	r0, [pc], #-1800	; b80 <_Min_Stack_Size+0x780>
 b7c:	79030052 	stmdbvc	r3, {r1, r4, r6}
 b80:	0000930d 	andeq	r9, r0, sp, lsl #6
 b84:	0c230200 	sfmeq	f0, 4, [r3], #-0
 b88:	005d0208 	subseq	r0, sp, r8, lsl #4
 b8c:	0d7a0300 	ldcleq	3, cr0, [sl, #-0]
 b90:	00000093 	muleq	r0, r3, r0
 b94:	07102302 	ldreq	r2, [r0, -r2, lsl #6]
 b98:	00525242 	subseq	r5, r2, r2, asr #4
 b9c:	930d7b03 	movwls	r7, #56067	; 0xdb03
 ba0:	02000000 	andeq	r0, r0, #0
 ba4:	39081423 	stmdbcc	r8, {r0, r1, r5, sl, ip}
 ba8:	03000030 	movweq	r0, #48	; 0x30
 bac:	00930d7c 	addseq	r0, r3, ip, ror sp
 bb0:	23020000 	movwcs	r0, #8192	; 0x2000
 bb4:	b5020018 	strlt	r0, [r2, #-24]	; 0xffffffe8
 bb8:	03000008 	movweq	r0, #8
 bbc:	0158027d 	cmpeq	r8, sp, ror r2
 bc0:	06060000 	streq	r0, [r6], -r0
 bc4:	0e091004 	cdpeq	0, 0, cr1, cr9, cr4, {0}
 bc8:	08000002 	stmdaeq	r0, {r1}
 bcc:	00006f24 	andeq	r6, r0, r4, lsr #30
 bd0:	400b1404 	andmi	r1, fp, r4, lsl #8
 bd4:	02000000 	andeq	r0, r0, #0
 bd8:	31080023 	tstcc	r8, r3, lsr #32
 bdc:	0400006e 	streq	r0, [r0], #-110	; 0xffffff92
 be0:	00400b18 	subeq	r0, r0, r8, lsl fp
 be4:	23020000 	movwcs	r0, #8192	; 0x2000
 be8:	6ec60802 	cdpvs	8, 12, cr0, cr6, cr2, {0}
 bec:	1c040000 	stcne	0, cr0, [r4], {-0}
 bf0:	0000400b 	andeq	r4, r0, fp
 bf4:	04230200 	strteq	r0, [r3], #-512	; 0xfffffe00
 bf8:	6f770200 	svcvs	0x00770200
 bfc:	1d040000 	stcne	0, cr0, [r4, #-0]
 c00:	0001d702 	andeq	sp, r1, r2, lsl #14
 c04:	fc010900 	stc2	9, cr0, [r1], {-0}	; <UNPREDICTABLE>
 c08:	01000070 	tsteq	r0, r0, ror r0
 c0c:	01090103 	tsteq	r9, r3, lsl #2
 c10:	0000002d 	andeq	r0, r0, sp, lsr #32
	...
 c1c:	0000054c 	andeq	r0, r0, ip, asr #10
 c20:	00026b01 	andeq	r6, r2, r1, lsl #22
 c24:	70a20a00 	adcvc	r0, r2, r0, lsl #20
 c28:	03010000 	movweq	r0, #4096	; 0x1000
 c2c:	026b1f01 	rsbeq	r1, fp, #1, 30
 c30:	91020000 	mrsls	r0, (UNDEF: 2)
 c34:	70c20a6c 	sbcvc	r0, r2, ip, ror #20
 c38:	03010000 	movweq	r0, #4096	; 0x1000
 c3c:	00402e01 	subeq	r2, r0, r1, lsl #28
 c40:	91020000 	mrsls	r0, (UNDEF: 2)
 c44:	70e60b6a 	rscvc	r0, r6, sl, ror #22
 c48:	16010000 	strne	r0, [r1], -r0
 c4c:	005f1401 	subseq	r1, pc, r1, lsl #8
 c50:	91020000 	mrsls	r0, (UNDEF: 2)
 c54:	040c0074 	streq	r0, [ip], #-116	; 0xffffff8c
 c58:	000001cb 	andeq	r0, r0, fp, asr #3
 c5c:	7058010d 	subsvc	r0, r8, sp, lsl #2
 c60:	f7010000 			; <UNDEFINED> instruction: 0xf7010000
 c64:	00000106 	andeq	r0, r0, r6, lsl #2
 c68:	00000000 	andeq	r0, r0, r0
 c6c:	05a80000 	streq	r0, [r8, #0]!
 c70:	ab010000 	blge	40c78 <_Min_Stack_Size+0x40878>
 c74:	0e000002 	cdpeq	0, 0, cr0, cr0, cr2, {0}
 c78:	000070a2 	andeq	r7, r0, r2, lsr #1
 c7c:	6b1ef701 	blvs	7be888 <_Min_Stack_Size+0x7be488>
 c80:	02000002 	andeq	r0, r0, #2
 c84:	c20e7491 	andgt	r7, lr, #-1862270976	; 0x91000000
 c88:	01000070 	tsteq	r0, r0, ror r0
 c8c:	00402df7 	strdeq	r2, [r0], #-215	; 0xffffff29
 c90:	91020000 	mrsls	r0, (UNDEF: 2)
 c94:	010d0072 	tsteq	sp, r2, ror r0
 c98:	000070ec 	andeq	r7, r0, ip, ror #1
 c9c:	0106eb01 	tsteq	r6, r1, lsl #22
	...
 ca8:	00000604 	andeq	r0, r0, r4, lsl #12
 cac:	0002e501 	andeq	lr, r2, r1, lsl #10
 cb0:	70a20e00 	adcvc	r0, r2, r0, lsl #28
 cb4:	eb010000 	bl	40cbc <_Min_Stack_Size+0x408bc>
 cb8:	00026b1e 	andeq	r6, r2, lr, lsl fp
 cbc:	74910200 	ldrvc	r0, [r1], #512	; 0x200
 cc0:	0070680e 	rsbseq	r6, r0, lr, lsl #16
 cc4:	2ceb0100 	stfcse	f0, [fp]
 cc8:	0000002d 	andeq	r0, r0, sp, lsr #32
 ccc:	00739102 	rsbseq	r9, r3, r2, lsl #2
 cd0:	70a8010d 	adcvc	r0, r8, sp, lsl #2
 cd4:	d1010000 	mrsle	r0, (UNDEF: 1)
 cd8:	00000106 	andeq	r0, r0, r6, lsl #2
 cdc:	00000000 	andeq	r0, r0, r0
 ce0:	06600000 	strbteq	r0, [r0], -r0
 ce4:	2e010000 	cdpcs	0, 0, cr0, cr1, cr0, {0}
 ce8:	0e000003 	cdpeq	0, 0, cr0, cr0, cr3, {0}
 cec:	000070a2 	andeq	r7, r0, r2, lsr #1
 cf0:	6b1dd101 	blvs	7750fc <_Min_Stack_Size+0x774cfc>
 cf4:	02000002 	andeq	r0, r0, #2
 cf8:	c20e7491 	andgt	r7, lr, #-1862270976	; 0x91000000
 cfc:	01000070 	tsteq	r0, r0, ror r0
 d00:	00402cd1 	ldrdeq	r2, [r0], #-193	; 0xffffff3f
 d04:	91020000 	mrsls	r0, (UNDEF: 2)
 d08:	70680e72 	rsbvc	r0, r8, r2, ror lr
 d0c:	d1010000 	mrsle	r0, (UNDEF: 1)
 d10:	00002d3e 	andeq	r2, r0, lr, lsr sp
 d14:	71910200 	orrsvc	r0, r1, r0, lsl #4
 d18:	3a010f00 	bcc	44920 <_Min_Stack_Size+0x44520>
 d1c:	01000070 	tsteq	r0, r0, ror r0
 d20:	40010ac4 	andmi	r0, r1, r4, asr #21
	...
 d2c:	bc000000 	stclt	0, cr0, [r0], {-0}
 d30:	01000006 	tsteq	r0, r6
 d34:	0000035d 	andeq	r0, r0, sp, asr r3
 d38:	0070a20e 	rsbseq	sl, r0, lr, lsl #4
 d3c:	21c40100 	biccs	r0, r4, r0, lsl #2
 d40:	0000026b 	andeq	r0, r0, fp, ror #4
 d44:	00749102 	rsbseq	r9, r4, r2, lsl #2
 d48:	70cc010f 	sbcvc	r0, ip, pc, lsl #2
 d4c:	bc010000 	stclt	0, cr0, [r1], {-0}
 d50:	002d0109 	eoreq	r0, sp, r9, lsl #2
	...
 d5c:	07180000 	ldreq	r0, [r8, -r0]
 d60:	9b010000 	blls	40d68 <_Min_Stack_Size+0x40968>
 d64:	0e000003 	cdpeq	0, 0, cr0, cr0, cr3, {0}
 d68:	000070a2 	andeq	r7, r0, r2, lsr #1
 d6c:	6b1fbc01 	blvs	7efd78 <_Min_Stack_Size+0x7ef978>
 d70:	02000002 	andeq	r0, r0, #2
 d74:	c20e7491 	andgt	r7, lr, #-1862270976	; 0x91000000
 d78:	01000070 	tsteq	r0, r0, ror r0
 d7c:	00402ebc 	strheq	r2, [r0], #-236	; 0xffffff14
 d80:	91020000 	mrsls	r0, (UNDEF: 2)
 d84:	010d0072 	tsteq	sp, r2, ror r0
 d88:	000070da 	ldrdeq	r7, [r0], -sl
 d8c:	01068a01 	tsteq	r6, r1, lsl #20
	...
 d98:	00000774 	andeq	r0, r0, r4, ror r7
 d9c:	0003d501 	andeq	sp, r3, r1, lsl #10
 da0:	70a20e00 	adcvc	r0, r2, r0, lsl #28
 da4:	8a010000 	bhi	40dac <_Min_Stack_Size+0x409ac>
 da8:	00026b1a 	andeq	r6, r2, sl, lsl fp
 dac:	74910200 	ldrvc	r0, [r1], #512	; 0x200
 db0:	0070780e 	rsbseq	r7, r0, lr, lsl #16
 db4:	2f8a0100 	svccs	0x008a0100
 db8:	000003d5 	ldrdeq	r0, [r0], -r5
 dbc:	00709102 	rsbseq	r9, r0, r2, lsl #2
 dc0:	020e040c 	andeq	r0, lr, #12, 8	; 0xc000000
 dc4:	01100000 	tsteq	r0, r0
 dc8:	00006f02 	andeq	r6, r0, r2, lsl #30
 dcc:	01064001 	tsteq	r6, r1
 dd0:	08000af0 	stmdaeq	r0, {r4, r5, r6, r7, r9, fp}
 dd4:	08000c7a 	stmdaeq	r0, {r1, r3, r4, r5, r6, sl, fp}
 dd8:	000007d0 	ldrdeq	r0, [r0], -r0	; <UNPREDICTABLE>
 ddc:	00043301 	andeq	r3, r4, r1, lsl #6
 de0:	70a20e00 	adcvc	r0, r2, r0, lsl #28
 de4:	40010000 	andmi	r0, r1, r0
 de8:	00026b18 	andeq	r6, r2, r8, lsl fp
 dec:	64910200 	ldrvs	r0, [r1], #512	; 0x200
 df0:	00706e0e 	rsbseq	r6, r0, lr, lsl #28
 df4:	2d400100 	stfcse	f0, [r0, #-0]
 df8:	000003d5 	ldrdeq	r0, [r0], -r5
 dfc:	11609102 	cmnne	r0, r2, lsl #2
 e00:	0000710a 	andeq	r7, r0, sl, lsl #2
 e04:	33154401 	tstcc	r5, #16777216	; 0x1000000
 e08:	02000004 	andeq	r0, r0, #4
 e0c:	b7116891 			; <UNDEFINED> instruction: 0xb7116891
 e10:	01000070 	tsteq	r0, r0, ror r0
 e14:	002d0a45 	eoreq	r0, sp, r5, asr #20
 e18:	91020000 	mrsls	r0, (UNDEF: 2)
 e1c:	040c006f 	streq	r0, [ip], #-111	; 0xffffff91
 e20:	0000005f 	andeq	r0, r0, pc, asr r0
 e24:	70490112 	subvc	r0, r9, r2, lsl r1
 e28:	08010000 	stmdaeq	r1, {}	; <UNPREDICTABLE>
 e2c:	002d0109 	eoreq	r0, sp, r9, lsl #2
 e30:	09ac0000 	stmibeq	ip!, {}	; <UNPREDICTABLE>
 e34:	0aee0800 	beq	ffb82e3c <_estack+0xdfb8063c>
 e38:	08200800 	stmdaeq	r0!, {fp}
 e3c:	0e010000 	cdpeq	0, 0, cr0, cr1, cr0, {0}
 e40:	00006f29 	andeq	r6, r0, r9, lsr #30
 e44:	40210801 	eormi	r0, r1, r1, lsl #16
 e48:	02000000 	andeq	r0, r0, #0
 e4c:	00007691 	muleq	r0, r1, r6

Disassembly of section .debug_abbrev:

00000000 <.debug_abbrev>:
   0:	25011101 	strcs	r1, [r1, #-257]	; 0xfffffeff
   4:	030b130e 	movweq	r1, #45838	; 0xb30e
   8:	550e1b0e 	strpl	r1, [lr, #-2830]	; 0xfffff4f2
   c:	52011106 	andpl	r1, r1, #-2147483647	; 0x80000001
  10:	99061001 	stmdbls	r6, {r0, ip}
  14:	00000642 	andeq	r0, r0, r2, asr #12
  18:	03001602 	movweq	r1, #1538	; 0x602
  1c:	3b0b3a0e 	blcc	2ce85c <_Min_Stack_Size+0x2ce45c>
  20:	490b390b 	stmdbmi	fp, {r0, r1, r3, r8, fp, ip, sp}
  24:	03000013 	movweq	r0, #19
  28:	0b0b0024 	bleq	2c00c0 <_Min_Stack_Size+0x2bfcc0>
  2c:	0e030b3e 	vmoveq.16	d3[0], r0
  30:	35040000 	strcc	r0, [r4, #-0]
  34:	00134900 	andseq	r4, r3, r0, lsl #18
  38:	00240500 	eoreq	r0, r4, r0, lsl #10
  3c:	0b3e0b0b 	bleq	f82c70 <_Min_Stack_Size+0xf82870>
  40:	00000803 	andeq	r0, r0, r3, lsl #16
  44:	0b011306 	bleq	44c64 <_Min_Stack_Size+0x44864>
  48:	3b0b3a0b 	blcc	2ce87c <_Min_Stack_Size+0x2ce47c>
  4c:	010b390b 	tsteq	fp, fp, lsl #18
  50:	07000013 	smladeq	r0, r3, r0, r0
  54:	0803000d 	stmdaeq	r3, {r0, r2, r3}
  58:	0b3b0b3a 	bleq	ec2d48 <_Min_Stack_Size+0xec2948>
  5c:	13490b39 	movtne	r0, #39737	; 0x9b39
  60:	00000a38 	andeq	r0, r0, r8, lsr sl
  64:	03000d08 	movweq	r0, #3336	; 0xd08
  68:	3b0b3a0e 	blcc	2ce8a8 <_Min_Stack_Size+0x2ce4a8>
  6c:	490b390b 	stmdbmi	fp, {r0, r1, r3, r8, fp, ip, sp}
  70:	000a3813 	andeq	r3, sl, r3, lsl r8
  74:	000f0900 	andeq	r0, pc, r0, lsl #18
  78:	13490b0b 	movtne	r0, #39691	; 0x9b0b
  7c:	150a0000 	strne	r0, [sl, #-0]
  80:	000c2700 	andeq	r2, ip, r0, lsl #14
  84:	00340b00 	eorseq	r0, r4, r0, lsl #22
  88:	0b3a0e03 	bleq	e8389c <_Min_Stack_Size+0xe8349c>
  8c:	0b390b3b 	bleq	e42d80 <_Min_Stack_Size+0xe42980>
  90:	0c3f1349 	ldceq	3, cr1, [pc], #-292	; ffffff74 <_estack+0xdfffd774>
  94:	00000c3c 	andeq	r0, r0, ip, lsr ip
  98:	0300340c 	movweq	r3, #1036	; 0x40c
  9c:	3b0b3a0e 	blcc	2ce8dc <_Min_Stack_Size+0x2ce4dc>
  a0:	490b390b 	stmdbmi	fp, {r0, r1, r3, r8, fp, ip, sp}
  a4:	020c3f13 	andeq	r3, ip, #19, 30	; 0x4c
  a8:	0d00000a 	stceq	0, cr0, [r0, #-40]	; 0xffffffd8
  ac:	0b3e0104 	bleq	f804c4 <_Min_Stack_Size+0xf800c4>
  b0:	13490b0b 	movtne	r0, #39691	; 0x9b0b
  b4:	0b3b0b3a 	bleq	ec2da4 <_Min_Stack_Size+0xec29a4>
  b8:	13010b39 	movwne	r0, #6969	; 0x1b39
  bc:	280e0000 	stmdacs	lr, {}	; <UNPREDICTABLE>
  c0:	1c0e0300 	stcne	3, cr0, [lr], {-0}
  c4:	0f00000b 	svceq	0x0000000b
  c8:	0c3f012e 	ldfeqs	f0, [pc], #-184	; 18 <_Min_Heap_Size-0x1e8>
  cc:	0b3a0e03 	bleq	e838e0 <_Min_Stack_Size+0xe834e0>
  d0:	0b390b3b 	bleq	e42dc4 <_Min_Stack_Size+0xe429c4>
  d4:	0c3c0c27 	ldceq	12, cr0, [ip], #-156	; 0xffffff64
  d8:	00001301 	andeq	r1, r0, r1, lsl #6
  dc:	49000510 	stmdbmi	r0, {r4, r8, sl}
  e0:	11000013 	tstne	r0, r3, lsl r0
  e4:	0c3f012e 	ldfeqs	f0, [pc], #-184	; 34 <_Min_Heap_Size-0x1cc>
  e8:	0b3a0e03 	bleq	e838fc <_Min_Stack_Size+0xe834fc>
  ec:	0b390b3b 	bleq	e42de0 <_Min_Stack_Size+0xe429e0>
  f0:	13490c27 	movtne	r0, #39975	; 0x9c27
  f4:	01120111 	tsteq	r2, r1, lsl r1
  f8:	42960640 	addsmi	r0, r6, #64, 12	; 0x4000000
  fc:	0013010c 	andseq	r0, r3, ip, lsl #2
 100:	00341200 	eorseq	r1, r4, r0, lsl #4
 104:	0b3a0e03 	bleq	e83918 <_Min_Stack_Size+0xe83518>
 108:	0b390b3b 	bleq	e42dfc <_Min_Stack_Size+0xe429fc>
 10c:	0a021349 	beq	84e38 <_Min_Stack_Size+0x84a38>
 110:	2e130000 	cdpcs	0, 1, cr0, cr3, cr0, {0}
 114:	030c3f00 	movweq	r3, #52992	; 0xcf00
 118:	3b0b3a0e 	blcc	2ce958 <_Min_Stack_Size+0x2ce558>
 11c:	270b390b 	strcs	r3, [fp, -fp, lsl #18]
 120:	1201110c 	andne	r1, r1, #12, 2
 124:	96064001 	strls	r4, [r6], -r1
 128:	00000c42 	andeq	r0, r0, r2, asr #24
 12c:	3f012e14 	svccc	0x00012e14
 130:	3a0e030c 	bcc	380d68 <_Min_Stack_Size+0x380968>
 134:	390b3b0b 	stmdbcc	fp, {r0, r1, r3, r8, r9, fp, ip, sp}
 138:	490c270b 	stmdbmi	ip, {r0, r1, r3, r8, r9, sl, sp}
 13c:	12011113 	andne	r1, r1, #-1073741820	; 0xc0000004
 140:	97064001 	strls	r4, [r6, -r1]
 144:	13010c42 	movwne	r0, #7234	; 0x1c42
 148:	05150000 	ldreq	r0, [r5, #-0]
 14c:	3a080300 	bcc	200d54 <_Min_Stack_Size+0x200954>
 150:	390b3b0b 	stmdbcc	fp, {r0, r1, r3, r8, r9, fp, ip, sp}
 154:	0213490b 	andseq	r4, r3, #180224	; 0x2c000
 158:	1600000a 	strne	r0, [r0], -sl
 15c:	0c3f002e 	ldceq	0, cr0, [pc], #-184	; ac <_Min_Heap_Size-0x154>
 160:	0b3a0e03 	bleq	e83974 <_Min_Stack_Size+0xe83574>
 164:	0b390b3b 	bleq	e42e58 <_Min_Stack_Size+0xe42a58>
 168:	01110c27 	tsteq	r1, r7, lsr #24
 16c:	06400112 			; <UNDEFINED> instruction: 0x06400112
 170:	000c4297 	muleq	ip, r7, r2
 174:	012e1700 			; <UNDEFINED> instruction: 0x012e1700
 178:	0e030c3f 	mcreq	12, 0, r0, cr3, cr15, {1}
 17c:	0b3b0b3a 	bleq	ec2e6c <_Min_Stack_Size+0xec2a6c>
 180:	0c270b39 			; <UNDEFINED> instruction: 0x0c270b39
 184:	01120111 	tsteq	r2, r1, lsl r1
 188:	42970640 	addsmi	r0, r7, #64, 12	; 0x4000000
 18c:	0013010c 	andseq	r0, r3, ip, lsl #2
 190:	00051800 	andeq	r1, r5, r0, lsl #16
 194:	0b3a0e03 	bleq	e839a8 <_Min_Stack_Size+0xe835a8>
 198:	0b390b3b 	bleq	e42e8c <_Min_Stack_Size+0xe42a8c>
 19c:	0a021349 	beq	84ec8 <_Min_Stack_Size+0x84ac8>
 1a0:	2e190000 	cdpcs	0, 1, cr0, cr9, cr0, {0}
 1a4:	030c3f00 	movweq	r3, #52992	; 0xcf00
 1a8:	3b0b3a0e 	blcc	2ce9e8 <_Min_Stack_Size+0x2ce5e8>
 1ac:	110b390b 	tstne	fp, fp, lsl #18
 1b0:	40011201 	andmi	r1, r1, r1, lsl #4
 1b4:	0c429706 	mcrreq	7, 0, r9, r2, cr6
 1b8:	01000000 	mrseq	r0, (UNDEF: 0)
 1bc:	06100011 			; <UNDEFINED> instruction: 0x06100011
 1c0:	0e030655 	mcreq	6, 0, r0, cr3, cr5, {2}
 1c4:	0e250e1b 	mcreq	14, 1, r0, cr5, cr11, {0}
 1c8:	00000513 	andeq	r0, r0, r3, lsl r5
 1cc:	01110100 	tsteq	r1, r0, lsl #2
 1d0:	0b130e25 	bleq	4c3a6c <_Min_Stack_Size+0x4c366c>
 1d4:	0e1b0e03 	cdpeq	14, 1, cr0, cr11, cr3, {0}
 1d8:	01110655 	tsteq	r1, r5, asr r6
 1dc:	06100152 			; <UNDEFINED> instruction: 0x06100152
 1e0:	00064299 	muleq	r6, r9, r2
 1e4:	00160200 	andseq	r0, r6, r0, lsl #4
 1e8:	0b3a0e03 	bleq	e839fc <_Min_Stack_Size+0xe835fc>
 1ec:	0b390b3b 	bleq	e42ee0 <_Min_Stack_Size+0xe42ae0>
 1f0:	00001349 	andeq	r1, r0, r9, asr #6
 1f4:	0b002403 	bleq	9208 <_Min_Stack_Size+0x8e08>
 1f8:	030b3e0b 	movweq	r3, #48651	; 0xbe0b
 1fc:	0400000e 	streq	r0, [r0], #-14
 200:	13490035 	movtne	r0, #36917	; 0x9035
 204:	24050000 	strcs	r0, [r5], #-0
 208:	3e0b0b00 	vmlacc.f64	d0, d11, d0
 20c:	0008030b 	andeq	r0, r8, fp, lsl #6
 210:	01130600 	tsteq	r3, r0, lsl #12
 214:	0b3a0b0b 	bleq	e82e48 <_Min_Stack_Size+0xe82a48>
 218:	0b390b3b 	bleq	e42f0c <_Min_Stack_Size+0xe42b0c>
 21c:	00001301 	andeq	r1, r0, r1, lsl #6
 220:	03000d07 	movweq	r0, #3335	; 0xd07
 224:	3b0b3a08 	blcc	2cea4c <_Min_Stack_Size+0x2ce64c>
 228:	490b390b 	stmdbmi	fp, {r0, r1, r3, r8, fp, ip, sp}
 22c:	000a3813 	andeq	r3, sl, r3, lsl r8
 230:	000d0800 	andeq	r0, sp, r0, lsl #16
 234:	0b3a0e03 	bleq	e83a48 <_Min_Stack_Size+0xe83648>
 238:	0b390b3b 	bleq	e42f2c <_Min_Stack_Size+0xe42b2c>
 23c:	0a381349 	beq	e04f68 <_Min_Stack_Size+0xe04b68>
 240:	01090000 	mrseq	r0, (UNDEF: 9)
 244:	01134901 	tsteq	r3, r1, lsl #18
 248:	0a000013 	beq	29c <_Min_Heap_Size+0x9c>
 24c:	13490021 	movtne	r0, #36897	; 0x9021
 250:	00000b2f 	andeq	r0, r0, pc, lsr #22
 254:	0b000f0b 	bleq	3e88 <_Min_Stack_Size+0x3a88>
 258:	0013490b 	andseq	r4, r3, fp, lsl #18
 25c:	00150c00 	andseq	r0, r5, r0, lsl #24
 260:	00000c27 	andeq	r0, r0, r7, lsr #24
 264:	0300340d 	movweq	r3, #1037	; 0x40d
 268:	3b0b3a0e 	blcc	2ceaa8 <_Min_Stack_Size+0x2ce6a8>
 26c:	490b390b 	stmdbmi	fp, {r0, r1, r3, r8, fp, ip, sp}
 270:	020c3f13 	andeq	r3, ip, #19, 30	; 0x4c
 274:	0e00000a 	cdpeq	0, 0, cr0, cr0, cr10, {0}
 278:	0c3f012e 	ldfeqs	f0, [pc], #-184	; 1c8 <_Min_Heap_Size-0x38>
 27c:	0b3a0e03 	bleq	e83a90 <_Min_Stack_Size+0xe83690>
 280:	0b390b3b 	bleq	e42f74 <_Min_Stack_Size+0xe42b74>
 284:	0c3c0c27 	ldceq	12, cr0, [ip], #-156	; 0xffffff64
 288:	00001301 	andeq	r1, r0, r1, lsl #6
 28c:	4900050f 	stmdbmi	r0, {r0, r1, r2, r3, r8, sl}
 290:	10000013 	andne	r0, r0, r3, lsl r0
 294:	0c3f002e 	ldceq	0, cr0, [pc], #-184	; 1e4 <_Min_Heap_Size-0x1c>
 298:	0b3a0e03 	bleq	e83aac <_Min_Stack_Size+0xe836ac>
 29c:	0b39053b 	bleq	e41790 <_Min_Stack_Size+0xe41390>
 2a0:	01110c27 	tsteq	r1, r7, lsr #24
 2a4:	06400112 			; <UNDEFINED> instruction: 0x06400112
 2a8:	000c4296 	muleq	ip, r6, r2
 2ac:	002e1100 	eoreq	r1, lr, r0, lsl #2
 2b0:	0e030c3f 	mcreq	12, 0, r0, cr3, cr15, {1}
 2b4:	0b3b0b3a 	bleq	ec2fa4 <_Min_Stack_Size+0xec2ba4>
 2b8:	0c270b39 			; <UNDEFINED> instruction: 0x0c270b39
 2bc:	01120111 	tsteq	r2, r1, lsl r1
 2c0:	42960640 	addsmi	r0, r6, #64, 12	; 0x4000000
 2c4:	1200000c 	andne	r0, r0, #12
 2c8:	0e03012e 	adfeqsp	f0, f3, #0.5
 2cc:	0b3b0b3a 	bleq	ec2fbc <_Min_Stack_Size+0xec2bbc>
 2d0:	0c270b39 			; <UNDEFINED> instruction: 0x0c270b39
 2d4:	01120111 	tsteq	r2, r1, lsl r1
 2d8:	42970640 	addsmi	r0, r7, #64, 12	; 0x4000000
 2dc:	0013010c 	andseq	r0, r3, ip, lsl #2
 2e0:	00051300 	andeq	r1, r5, r0, lsl #6
 2e4:	0b3a0e03 	bleq	e83af8 <_Min_Stack_Size+0xe836f8>
 2e8:	0b390b3b 	bleq	e42fdc <_Min_Stack_Size+0xe42bdc>
 2ec:	0a021349 	beq	85018 <_Min_Stack_Size+0x84c18>
 2f0:	2e140000 	cdpcs	0, 1, cr0, cr4, cr0, {0}
 2f4:	3a0e0301 	bcc	380f00 <_Min_Stack_Size+0x380b00>
 2f8:	390b3b0b 	stmdbcc	fp, {r0, r1, r3, r8, r9, fp, ip, sp}
 2fc:	110c270b 	tstne	ip, fp, lsl #14
 300:	40011201 	andmi	r1, r1, r1, lsl #4
 304:	0c429606 	mcrreq	6, 0, r9, r2, cr6
 308:	00001301 	andeq	r1, r0, r1, lsl #6
 30c:	03003415 	movweq	r3, #1045	; 0x415
 310:	3b0b3a0e 	blcc	2ceb50 <_Min_Stack_Size+0x2ce750>
 314:	490b390b 	stmdbmi	fp, {r0, r1, r3, r8, fp, ip, sp}
 318:	000a0213 	andeq	r0, sl, r3, lsl r2
 31c:	002e1600 	eoreq	r1, lr, r0, lsl #12
 320:	0e030c3f 	mcreq	12, 0, r0, cr3, cr15, {1}
 324:	0b3b0b3a 	bleq	ec3014 <_Min_Stack_Size+0xec2c14>
 328:	0c270b39 			; <UNDEFINED> instruction: 0x0c270b39
 32c:	01120111 	tsteq	r2, r1, lsl r1
 330:	42970640 	addsmi	r0, r7, #64, 12	; 0x4000000
 334:	1700000c 	strne	r0, [r0, -ip]
 338:	0c3f012e 	ldfeqs	f0, [pc], #-184	; 288 <_Min_Heap_Size+0x88>
 33c:	0b3a0e03 	bleq	e83b50 <_Min_Stack_Size+0xe83750>
 340:	0b390b3b 	bleq	e43034 <_Min_Stack_Size+0xe42c34>
 344:	01110c27 	tsteq	r1, r7, lsr #24
 348:	06400112 			; <UNDEFINED> instruction: 0x06400112
 34c:	010c4296 			; <UNDEFINED> instruction: 0x010c4296
 350:	18000013 	stmdane	r0, {r0, r1, r4}
 354:	0c3f012e 	ldfeqs	f0, [pc], #-184	; 2a4 <_Min_Heap_Size+0xa4>
 358:	0b3a0e03 	bleq	e83b6c <_Min_Stack_Size+0xe8376c>
 35c:	0b390b3b 	bleq	e43050 <_Min_Stack_Size+0xe42c50>
 360:	01110c27 	tsteq	r1, r7, lsr #24
 364:	06400112 			; <UNDEFINED> instruction: 0x06400112
 368:	000c4296 	muleq	ip, r6, r2
 36c:	11010000 	mrsne	r0, (UNDEF: 1)
 370:	130e2501 	movwne	r2, #58625	; 0xe501
 374:	1b0e030b 	blne	380fa8 <_Min_Stack_Size+0x380ba8>
 378:	1106550e 	tstne	r6, lr, lsl #10
 37c:	10015201 	andne	r5, r1, r1, lsl #4
 380:	06429906 	strbeq	r9, [r2], -r6, lsl #18
 384:	16020000 	strne	r0, [r2], -r0
 388:	3a0e0300 	bcc	380f90 <_Min_Stack_Size+0x380b90>
 38c:	390b3b0b 	stmdbcc	fp, {r0, r1, r3, r8, r9, fp, ip, sp}
 390:	0013490b 	andseq	r4, r3, fp, lsl #18
 394:	00240300 	eoreq	r0, r4, r0, lsl #6
 398:	0b3e0b0b 	bleq	f82fcc <_Min_Stack_Size+0xf82bcc>
 39c:	00000e03 	andeq	r0, r0, r3, lsl #28
 3a0:	49003504 	stmdbmi	r0, {r2, r8, sl, ip, sp}
 3a4:	05000013 	streq	r0, [r0, #-19]	; 0xffffffed
 3a8:	0b0b0024 	bleq	2c0440 <_Min_Stack_Size+0x2c0040>
 3ac:	08030b3e 	stmdaeq	r3, {r1, r2, r3, r4, r5, r8, r9, fp}
 3b0:	13060000 	movwne	r0, #24576	; 0x6000
 3b4:	3a0b0b01 	bcc	2c2fc0 <_Min_Stack_Size+0x2c2bc0>
 3b8:	390b3b0b 	stmdbcc	fp, {r0, r1, r3, r8, r9, fp, ip, sp}
 3bc:	0013010b 	andseq	r0, r3, fp, lsl #2
 3c0:	000d0700 	andeq	r0, sp, r0, lsl #14
 3c4:	0b3a0803 	bleq	e823d8 <_Min_Stack_Size+0xe81fd8>
 3c8:	0b390b3b 	bleq	e430bc <_Min_Stack_Size+0xe42cbc>
 3cc:	0a381349 	beq	e050f8 <_Min_Stack_Size+0xe04cf8>
 3d0:	0d080000 	stceq	0, cr0, [r8, #-0]
 3d4:	3a0e0300 	bcc	380fdc <_Min_Stack_Size+0x380bdc>
 3d8:	390b3b0b 	stmdbcc	fp, {r0, r1, r3, r8, r9, fp, ip, sp}
 3dc:	3813490b 	ldmdacc	r3, {r0, r1, r3, r8, fp, lr}
 3e0:	0900000a 	stmdbeq	r0, {r1, r3}
 3e4:	0c3f012e 	ldfeqs	f0, [pc], #-184	; 334 <_Min_Heap_Size+0x134>
 3e8:	0b3a0e03 	bleq	e83bfc <_Min_Stack_Size+0xe837fc>
 3ec:	0b39053b 	bleq	e418e0 <_Min_Stack_Size+0xe414e0>
 3f0:	13490c27 	movtne	r0, #39975	; 0x9c27
 3f4:	01120111 	tsteq	r2, r1, lsl r1
 3f8:	42970640 	addsmi	r0, r7, #64, 12	; 0x4000000
 3fc:	0013010c 	andseq	r0, r3, ip, lsl #2
 400:	00050a00 	andeq	r0, r5, r0, lsl #20
 404:	0b3a0e03 	bleq	e83c18 <_Min_Stack_Size+0xe83818>
 408:	0b39053b 	bleq	e418fc <_Min_Stack_Size+0xe414fc>
 40c:	0a021349 	beq	85138 <_Min_Stack_Size+0x84d38>
 410:	340b0000 	strcc	r0, [fp], #-0
 414:	3a0e0300 	bcc	38101c <_Min_Stack_Size+0x380c1c>
 418:	39053b0b 	stmdbcc	r5, {r0, r1, r3, r8, r9, fp, ip, sp}
 41c:	0213490b 	andseq	r4, r3, #180224	; 0x2c000
 420:	0c00000a 	stceq	0, cr0, [r0], {10}
 424:	0b0b000f 	bleq	2c0468 <_Min_Stack_Size+0x2c0068>
 428:	00001349 	andeq	r1, r0, r9, asr #6
 42c:	3f012e0d 	svccc	0x00012e0d
 430:	3a0e030c 	bcc	381068 <_Min_Stack_Size+0x380c68>
 434:	390b3b0b 	stmdbcc	fp, {r0, r1, r3, r8, r9, fp, ip, sp}
 438:	110c270b 	tstne	ip, fp, lsl #14
 43c:	40011201 	andmi	r1, r1, r1, lsl #4
 440:	0c429706 	mcrreq	7, 0, r9, r2, cr6
 444:	00001301 	andeq	r1, r0, r1, lsl #6
 448:	0300050e 	movweq	r0, #1294	; 0x50e
 44c:	3b0b3a0e 	blcc	2cec8c <_Min_Stack_Size+0x2ce88c>
 450:	490b390b 	stmdbmi	fp, {r0, r1, r3, r8, fp, ip, sp}
 454:	000a0213 	andeq	r0, sl, r3, lsl r2
 458:	012e0f00 			; <UNDEFINED> instruction: 0x012e0f00
 45c:	0e030c3f 	mcreq	12, 0, r0, cr3, cr15, {1}
 460:	0b3b0b3a 	bleq	ec3150 <_Min_Stack_Size+0xec2d50>
 464:	0c270b39 			; <UNDEFINED> instruction: 0x0c270b39
 468:	01111349 	tsteq	r1, r9, asr #6
 46c:	06400112 			; <UNDEFINED> instruction: 0x06400112
 470:	010c4297 			; <UNDEFINED> instruction: 0x010c4297
 474:	10000013 	andne	r0, r0, r3, lsl r0
 478:	0c3f012e 	ldfeqs	f0, [pc], #-184	; 3c8 <_Min_Heap_Size+0x1c8>
 47c:	0b3a0e03 	bleq	e83c90 <_Min_Stack_Size+0xe83890>
 480:	0b390b3b 	bleq	e43174 <_Min_Stack_Size+0xe42d74>
 484:	01110c27 	tsteq	r1, r7, lsr #24
 488:	06400112 			; <UNDEFINED> instruction: 0x06400112
 48c:	010c4296 			; <UNDEFINED> instruction: 0x010c4296
 490:	11000013 	tstne	r0, r3, lsl r0
 494:	0e030034 	mcreq	0, 0, r0, cr3, cr4, {1}
 498:	0b3b0b3a 	bleq	ec3188 <_Min_Stack_Size+0xec2d88>
 49c:	13490b39 	movtne	r0, #39737	; 0x9b39
 4a0:	00000a02 	andeq	r0, r0, r2, lsl #20
 4a4:	3f012e12 	svccc	0x00012e12
 4a8:	3a0e030c 	bcc	3810e0 <_Min_Stack_Size+0x380ce0>
 4ac:	390b3b0b 	stmdbcc	fp, {r0, r1, r3, r8, r9, fp, ip, sp}
 4b0:	490c270b 	stmdbmi	ip, {r0, r1, r3, r8, r9, sl, sp}
 4b4:	12011113 	andne	r1, r1, #-1073741820	; 0xc0000004
 4b8:	97064001 	strls	r4, [r6, -r1]
 4bc:	00000c42 	andeq	r0, r0, r2, asr #24
	...

Disassembly of section .debug_loc:

00000000 <.debug_loc>:
   0:	08000360 	stmdaeq	r0, {r5, r6, r8, r9}
   4:	08000362 	stmdaeq	r0, {r1, r5, r6, r8, r9}
   8:	007d0002 	rsbseq	r0, sp, r2
   c:	08000362 	stmdaeq	r0, {r1, r5, r6, r8, r9}
  10:	08000364 	stmdaeq	r0, {r2, r5, r6, r8, r9}
  14:	087d0002 	ldmdaeq	sp!, {r1}^
  18:	08000364 	stmdaeq	r0, {r2, r5, r6, r8, r9}
  1c:	08000366 	stmdaeq	r0, {r1, r2, r5, r6, r8, r9}
  20:	287d0002 	ldmdacs	sp!, {r1}^
  24:	08000366 	stmdaeq	r0, {r1, r2, r5, r6, r8, r9}
  28:	080003ac 	stmdaeq	r0, {r2, r3, r5, r7, r8, r9}
  2c:	28770002 	ldmdacs	r7!, {r1}^
	...
  38:	08000350 	stmdaeq	r0, {r4, r6, r8, r9}
  3c:	08000352 	stmdaeq	r0, {r1, r4, r6, r8, r9}
  40:	007d0002 	rsbseq	r0, sp, r2
  44:	08000352 	stmdaeq	r0, {r1, r4, r6, r8, r9}
  48:	08000354 	stmdaeq	r0, {r2, r4, r6, r8, r9}
  4c:	087d0002 	ldmdaeq	sp!, {r1}^
  50:	08000354 	stmdaeq	r0, {r2, r4, r6, r8, r9}
  54:	0800035e 	stmdaeq	r0, {r1, r2, r3, r4, r6, r8, r9}
  58:	08770002 	ldmdaeq	r7!, {r1}^
	...
  64:	08000258 	stmdaeq	r0, {r3, r4, r6, r9}
  68:	0800025a 	stmdaeq	r0, {r1, r3, r4, r6, r9}
  6c:	007d0002 	rsbseq	r0, sp, r2
  70:	0800025a 	stmdaeq	r0, {r1, r3, r4, r6, r9}
  74:	0800025c 	stmdaeq	r0, {r2, r3, r4, r6, r9}
  78:	087d0002 	ldmdaeq	sp!, {r1}^
  7c:	0800025c 	stmdaeq	r0, {r2, r3, r4, r6, r9}
  80:	08000350 	stmdaeq	r0, {r4, r6, r8, r9}
  84:	08770002 	ldmdaeq	r7!, {r1}^
	...
  90:	08000230 	stmdaeq	r0, {r4, r5, r9}
  94:	08000232 	stmdaeq	r0, {r1, r4, r5, r9}
  98:	007d0002 	rsbseq	r0, sp, r2
  9c:	08000232 	stmdaeq	r0, {r1, r4, r5, r9}
  a0:	08000234 	stmdaeq	r0, {r2, r4, r5, r9}
  a4:	047d0002 	ldrbteq	r0, [sp], #-2
  a8:	08000234 	stmdaeq	r0, {r2, r4, r5, r9}
  ac:	08000236 	stmdaeq	r0, {r1, r2, r4, r5, r9}
  b0:	187d0002 	ldmdane	sp!, {r1}^
  b4:	08000236 	stmdaeq	r0, {r1, r2, r4, r5, r9}
  b8:	08000250 	stmdaeq	r0, {r4, r6, r9}
  bc:	18770002 	ldmdane	r7!, {r1}^
  c0:	08000250 	stmdaeq	r0, {r4, r6, r9}
  c4:	08000252 	stmdaeq	r0, {r1, r4, r6, r9}
  c8:	04770002 	ldrbteq	r0, [r7], #-2
  cc:	08000252 	stmdaeq	r0, {r1, r4, r6, r9}
  d0:	08000254 	stmdaeq	r0, {r2, r4, r6, r9}
  d4:	047d0002 	ldrbteq	r0, [sp], #-2
  d8:	08000254 	stmdaeq	r0, {r2, r4, r6, r9}
  dc:	08000256 	stmdaeq	r0, {r1, r2, r4, r6, r9}
  e0:	007d0002 	rsbseq	r0, sp, r2
	...
  ec:	08000210 	stmdaeq	r0, {r4, r9}
  f0:	08000212 	stmdaeq	r0, {r1, r4, r9}
  f4:	007d0002 	rsbseq	r0, sp, r2
  f8:	08000212 	stmdaeq	r0, {r1, r4, r9}
  fc:	08000214 	stmdaeq	r0, {r2, r4, r9}
 100:	047d0002 	ldrbteq	r0, [sp], #-2
 104:	08000214 	stmdaeq	r0, {r2, r4, r9}
 108:	08000216 	stmdaeq	r0, {r1, r2, r4, r9}
 10c:	187d0002 	ldmdane	sp!, {r1}^
 110:	08000216 	stmdaeq	r0, {r1, r2, r4, r9}
 114:	0800022a 	stmdaeq	r0, {r1, r3, r5, r9}
 118:	18770002 	ldmdane	r7!, {r1}^
 11c:	0800022a 	stmdaeq	r0, {r1, r3, r5, r9}
 120:	0800022c 	stmdaeq	r0, {r2, r3, r5, r9}
 124:	04770002 	ldrbteq	r0, [r7], #-2
 128:	0800022c 	stmdaeq	r0, {r2, r3, r5, r9}
 12c:	0800022e 	stmdaeq	r0, {r1, r2, r3, r5, r9}
 130:	047d0002 	ldrbteq	r0, [sp], #-2
 134:	0800022e 	stmdaeq	r0, {r1, r2, r3, r5, r9}
 138:	08000230 	stmdaeq	r0, {r4, r5, r9}
 13c:	007d0002 	rsbseq	r0, sp, r2
	...
 148:	080001e4 	stmdaeq	r0, {r2, r5, r6, r7, r8}
 14c:	080001e6 	stmdaeq	r0, {r1, r2, r5, r6, r7, r8}
 150:	007d0002 	rsbseq	r0, sp, r2
 154:	080001e6 	stmdaeq	r0, {r1, r2, r5, r6, r7, r8}
 158:	080001e8 	stmdaeq	r0, {r3, r5, r6, r7, r8}
 15c:	047d0002 	ldrbteq	r0, [sp], #-2
 160:	080001e8 	stmdaeq	r0, {r3, r5, r6, r7, r8}
 164:	08000204 	stmdaeq	r0, {r2, r9}
 168:	04770002 	ldrbteq	r0, [r7], #-2
 16c:	08000204 	stmdaeq	r0, {r2, r9}
 170:	08000206 	stmdaeq	r0, {r1, r2, r9}
 174:	047d0002 	ldrbteq	r0, [sp], #-2
 178:	08000206 	stmdaeq	r0, {r1, r2, r9}
 17c:	08000210 	stmdaeq	r0, {r4, r9}
 180:	007d0002 	rsbseq	r0, sp, r2
	...
 18c:	080001a4 	stmdaeq	r0, {r2, r5, r7, r8}
 190:	080001a6 	stmdaeq	r0, {r1, r2, r5, r7, r8}
 194:	007d0002 	rsbseq	r0, sp, r2
 198:	080001a6 	stmdaeq	r0, {r1, r2, r5, r7, r8}
 19c:	080001a8 	stmdaeq	r0, {r3, r5, r7, r8}
 1a0:	047d0002 	ldrbteq	r0, [sp], #-2
 1a4:	080001a8 	stmdaeq	r0, {r3, r5, r7, r8}
 1a8:	080001aa 	stmdaeq	r0, {r1, r3, r5, r7, r8}
 1ac:	107d0002 	rsbsne	r0, sp, r2
 1b0:	080001aa 	stmdaeq	r0, {r1, r3, r5, r7, r8}
 1b4:	080001de 	stmdaeq	r0, {r1, r2, r3, r4, r6, r7, r8}
 1b8:	10770002 	rsbsne	r0, r7, r2
 1bc:	080001de 	stmdaeq	r0, {r1, r2, r3, r4, r6, r7, r8}
 1c0:	080001e0 	stmdaeq	r0, {r5, r6, r7, r8}
 1c4:	04770002 	ldrbteq	r0, [r7], #-2
 1c8:	080001e0 	stmdaeq	r0, {r5, r6, r7, r8}
 1cc:	080001e2 	stmdaeq	r0, {r1, r5, r6, r7, r8}
 1d0:	047d0002 	ldrbteq	r0, [sp], #-2
 1d4:	080001e2 	stmdaeq	r0, {r1, r5, r6, r7, r8}
 1d8:	080001e4 	stmdaeq	r0, {r2, r5, r6, r7, r8}
 1dc:	007d0002 	rsbseq	r0, sp, r2
	...
 1e8:	08000170 	stmdaeq	r0, {r4, r5, r6, r8}
 1ec:	08000172 	stmdaeq	r0, {r1, r4, r5, r6, r8}
 1f0:	007d0002 	rsbseq	r0, sp, r2
 1f4:	08000172 	stmdaeq	r0, {r1, r4, r5, r6, r8}
 1f8:	08000174 	stmdaeq	r0, {r2, r4, r5, r6, r8}
 1fc:	047d0002 	ldrbteq	r0, [sp], #-2
 200:	08000174 	stmdaeq	r0, {r2, r4, r5, r6, r8}
 204:	0800019c 	stmdaeq	r0, {r2, r3, r4, r7, r8}
 208:	04770002 	ldrbteq	r0, [r7], #-2
 20c:	0800019c 	stmdaeq	r0, {r2, r3, r4, r7, r8}
 210:	0800019e 	stmdaeq	r0, {r1, r2, r3, r4, r7, r8}
 214:	047d0002 	ldrbteq	r0, [sp], #-2
 218:	0800019e 	stmdaeq	r0, {r1, r2, r3, r4, r7, r8}
 21c:	080001a4 	stmdaeq	r0, {r2, r5, r7, r8}
 220:	007d0002 	rsbseq	r0, sp, r2
	...
 22c:	080008e8 	stmdaeq	r0, {r3, r5, r6, r7, fp}
 230:	080008ea 	stmdaeq	r0, {r1, r3, r5, r6, r7, fp}
 234:	007d0002 	rsbseq	r0, sp, r2
 238:	080008ea 	stmdaeq	r0, {r1, r3, r5, r6, r7, fp}
 23c:	080008ec 	stmdaeq	r0, {r2, r3, r5, r6, r7, fp}
 240:	087d0002 	ldmdaeq	sp!, {r1}^
 244:	080008ec 	stmdaeq	r0, {r2, r3, r5, r6, r7, fp}
 248:	080009ac 	stmdaeq	r0, {r2, r3, r5, r7, r8, fp}
 24c:	08770002 	ldmdaeq	r7!, {r1}^
	...
 258:	08000840 	stmdaeq	r0, {r6, fp}
 25c:	08000842 	stmdaeq	r0, {r1, r6, fp}
 260:	007d0002 	rsbseq	r0, sp, r2
 264:	08000842 	stmdaeq	r0, {r1, r6, fp}
 268:	08000844 	stmdaeq	r0, {r2, r6, fp}
 26c:	087d0002 	ldmdaeq	sp!, {r1}^
 270:	08000844 	stmdaeq	r0, {r2, r6, fp}
 274:	080008e8 	stmdaeq	r0, {r3, r5, r6, r7, fp}
 278:	08770002 	ldmdaeq	r7!, {r1}^
	...
 284:	0800081c 	stmdaeq	r0, {r2, r3, r4, fp}
 288:	0800081e 	stmdaeq	r0, {r1, r2, r3, r4, fp}
 28c:	007d0002 	rsbseq	r0, sp, r2
 290:	0800081e 	stmdaeq	r0, {r1, r2, r3, r4, fp}
 294:	08000820 	stmdaeq	r0, {r5, fp}
 298:	087d0002 	ldmdaeq	sp!, {r1}^
 29c:	08000820 	stmdaeq	r0, {r5, fp}
 2a0:	08000840 	stmdaeq	r0, {r6, fp}
 2a4:	08770002 	ldmdaeq	r7!, {r1}^
	...
 2b0:	080007f8 	stmdaeq	r0, {r3, r4, r5, r6, r7, r8, r9, sl}
 2b4:	080007fa 	stmdaeq	r0, {r1, r3, r4, r5, r6, r7, r8, r9, sl}
 2b8:	007d0002 	rsbseq	r0, sp, r2
 2bc:	080007fa 	stmdaeq	r0, {r1, r3, r4, r5, r6, r7, r8, r9, sl}
 2c0:	080007fc 	stmdaeq	r0, {r2, r3, r4, r5, r6, r7, r8, r9, sl}
 2c4:	087d0002 	ldmdaeq	sp!, {r1}^
 2c8:	080007fc 	stmdaeq	r0, {r2, r3, r4, r5, r6, r7, r8, r9, sl}
 2cc:	0800081c 	stmdaeq	r0, {r2, r3, r4, fp}
 2d0:	08770002 	ldmdaeq	r7!, {r1}^
	...
 2dc:	080007d4 	stmdaeq	r0, {r2, r4, r6, r7, r8, r9, sl}
 2e0:	080007d6 	stmdaeq	r0, {r1, r2, r4, r6, r7, r8, r9, sl}
 2e4:	007d0002 	rsbseq	r0, sp, r2
 2e8:	080007d6 	stmdaeq	r0, {r1, r2, r4, r6, r7, r8, r9, sl}
 2ec:	080007d8 	stmdaeq	r0, {r3, r4, r6, r7, r8, r9, sl}
 2f0:	087d0002 	ldmdaeq	sp!, {r1}^
 2f4:	080007d8 	stmdaeq	r0, {r3, r4, r6, r7, r8, r9, sl}
 2f8:	080007f8 	stmdaeq	r0, {r3, r4, r5, r6, r7, r8, r9, sl}
 2fc:	08770002 	ldmdaeq	r7!, {r1}^
	...
 308:	080007b0 	stmdaeq	r0, {r4, r5, r7, r8, r9, sl}
 30c:	080007b2 	stmdaeq	r0, {r1, r4, r5, r7, r8, r9, sl}
 310:	007d0002 	rsbseq	r0, sp, r2
 314:	080007b2 	stmdaeq	r0, {r1, r4, r5, r7, r8, r9, sl}
 318:	080007b4 	stmdaeq	r0, {r2, r4, r5, r7, r8, r9, sl}
 31c:	087d0002 	ldmdaeq	sp!, {r1}^
 320:	080007b4 	stmdaeq	r0, {r2, r4, r5, r7, r8, r9, sl}
 324:	080007d4 	stmdaeq	r0, {r2, r4, r6, r7, r8, r9, sl}
 328:	08770002 	ldmdaeq	r7!, {r1}^
	...
 334:	0800078c 	stmdaeq	r0, {r2, r3, r7, r8, r9, sl}
 338:	0800078e 	stmdaeq	r0, {r1, r2, r3, r7, r8, r9, sl}
 33c:	007d0002 	rsbseq	r0, sp, r2
 340:	0800078e 	stmdaeq	r0, {r1, r2, r3, r7, r8, r9, sl}
 344:	08000790 	stmdaeq	r0, {r4, r7, r8, r9, sl}
 348:	087d0002 	ldmdaeq	sp!, {r1}^
 34c:	08000790 	stmdaeq	r0, {r4, r7, r8, r9, sl}
 350:	080007b0 	stmdaeq	r0, {r4, r5, r7, r8, r9, sl}
 354:	08770002 	ldmdaeq	r7!, {r1}^
	...
 360:	080006c0 	stmdaeq	r0, {r6, r7, r9, sl}
 364:	080006c2 	stmdaeq	r0, {r1, r6, r7, r9, sl}
 368:	007d0002 	rsbseq	r0, sp, r2
 36c:	080006c2 	stmdaeq	r0, {r1, r6, r7, r9, sl}
 370:	080006c4 	stmdaeq	r0, {r2, r6, r7, r9, sl}
 374:	047d0002 	ldrbteq	r0, [sp], #-2
 378:	080006c4 	stmdaeq	r0, {r2, r6, r7, r9, sl}
 37c:	080006c6 	stmdaeq	r0, {r1, r2, r6, r7, r9, sl}
 380:	107d0002 	rsbsne	r0, sp, r2
 384:	080006c6 	stmdaeq	r0, {r1, r2, r6, r7, r9, sl}
 388:	0800077e 	stmdaeq	r0, {r1, r2, r3, r4, r5, r6, r8, r9, sl}
 38c:	10770002 	rsbsne	r0, r7, r2
 390:	0800077e 	stmdaeq	r0, {r1, r2, r3, r4, r5, r6, r8, r9, sl}
 394:	08000780 	stmdaeq	r0, {r7, r8, r9, sl}
 398:	04770002 	ldrbteq	r0, [r7], #-2
 39c:	08000780 	stmdaeq	r0, {r7, r8, r9, sl}
 3a0:	08000782 	stmdaeq	r0, {r1, r7, r8, r9, sl}
 3a4:	047d0002 	ldrbteq	r0, [sp], #-2
 3a8:	08000782 	stmdaeq	r0, {r1, r7, r8, r9, sl}
 3ac:	0800078c 	stmdaeq	r0, {r2, r3, r7, r8, r9, sl}
 3b0:	007d0002 	rsbseq	r0, sp, r2
	...
 3bc:	080005f4 	stmdaeq	r0, {r2, r4, r5, r6, r7, r8, sl}
 3c0:	080005f6 	stmdaeq	r0, {r1, r2, r4, r5, r6, r7, r8, sl}
 3c4:	007d0002 	rsbseq	r0, sp, r2
 3c8:	080005f6 	stmdaeq	r0, {r1, r2, r4, r5, r6, r7, r8, sl}
 3cc:	080005f8 	stmdaeq	r0, {r3, r4, r5, r6, r7, r8, sl}
 3d0:	047d0002 	ldrbteq	r0, [sp], #-2
 3d4:	080005f8 	stmdaeq	r0, {r3, r4, r5, r6, r7, r8, sl}
 3d8:	080005fa 	stmdaeq	r0, {r1, r3, r4, r5, r6, r7, r8, sl}
 3dc:	107d0002 	rsbsne	r0, sp, r2
 3e0:	080005fa 	stmdaeq	r0, {r1, r3, r4, r5, r6, r7, r8, sl}
 3e4:	080006b2 	stmdaeq	r0, {r1, r4, r5, r7, r9, sl}
 3e8:	10770002 	rsbsne	r0, r7, r2
 3ec:	080006b2 	stmdaeq	r0, {r1, r4, r5, r7, r9, sl}
 3f0:	080006b4 	stmdaeq	r0, {r2, r4, r5, r7, r9, sl}
 3f4:	04770002 	ldrbteq	r0, [r7], #-2
 3f8:	080006b4 	stmdaeq	r0, {r2, r4, r5, r7, r9, sl}
 3fc:	080006b6 	stmdaeq	r0, {r1, r2, r4, r5, r7, r9, sl}
 400:	047d0002 	ldrbteq	r0, [sp], #-2
 404:	080006b6 	stmdaeq	r0, {r1, r2, r4, r5, r7, r9, sl}
 408:	080006c0 	stmdaeq	r0, {r6, r7, r9, sl}
 40c:	007d0002 	rsbseq	r0, sp, r2
	...
 418:	08000414 	stmdaeq	r0, {r2, r4, sl}
 41c:	08000416 	stmdaeq	r0, {r1, r2, r4, sl}
 420:	007d0002 	rsbseq	r0, sp, r2
 424:	08000416 	stmdaeq	r0, {r1, r2, r4, sl}
 428:	08000418 	stmdaeq	r0, {r3, r4, sl}
 42c:	087d0002 	ldmdaeq	sp!, {r1}^
 430:	08000418 	stmdaeq	r0, {r3, r4, sl}
 434:	0800041a 	stmdaeq	r0, {r1, r3, r4, sl}
 438:	187d0002 	ldmdane	sp!, {r1}^
 43c:	0800041a 	stmdaeq	r0, {r1, r3, r4, sl}
 440:	080005d2 	stmdaeq	r0, {r1, r4, r6, r7, r8, sl}
 444:	18770002 	ldmdane	r7!, {r1}^
 448:	080005d2 	stmdaeq	r0, {r1, r4, r6, r7, r8, sl}
 44c:	080005d4 	stmdaeq	r0, {r2, r4, r6, r7, r8, sl}
 450:	08770002 	ldmdaeq	r7!, {r1}^
 454:	080005d4 	stmdaeq	r0, {r2, r4, r6, r7, r8, sl}
 458:	080005f4 	stmdaeq	r0, {r2, r4, r5, r6, r7, r8, sl}
 45c:	087d0002 	ldmdaeq	sp!, {r1}^
	...
 470:	007d0002 	rsbseq	r0, sp, r2
	...
 47c:	047d0002 	ldrbteq	r0, [sp], #-2
	...
 488:	04770002 	ldrbteq	r0, [r7], #-2
	...
 494:	047d0002 	ldrbteq	r0, [sp], #-2
	...
 4a0:	007d0002 	rsbseq	r0, sp, r2
	...
 4b4:	007d0002 	rsbseq	r0, sp, r2
	...
 4c0:	087d0002 	ldmdaeq	sp!, {r1}^
	...
 4cc:	107d0002 	rsbsne	r0, sp, r2
	...
 4d8:	10770002 	rsbsne	r0, r7, r2
	...
 4e4:	08770002 	ldmdaeq	r7!, {r1}^
	...
 4f0:	087d0002 	ldmdaeq	sp!, {r1}^
	...
 4fc:	080003fe 	stmdaeq	r0, {r1, r2, r3, r4, r5, r6, r7, r8, r9}
 500:	08000400 	stmdaeq	r0, {sl}
 504:	007d0002 	rsbseq	r0, sp, r2
 508:	08000400 	stmdaeq	r0, {sl}
 50c:	08000402 	stmdaeq	r0, {r1, sl}
 510:	087d0002 	ldmdaeq	sp!, {r1}^
 514:	08000402 	stmdaeq	r0, {r1, sl}
 518:	08000404 	stmdaeq	r0, {r2, sl}
 51c:	107d0002 	rsbsne	r0, sp, r2
 520:	08000404 	stmdaeq	r0, {r2, sl}
 524:	08000410 	stmdaeq	r0, {r4, sl}
 528:	10770002 	rsbsne	r0, r7, r2
 52c:	08000410 	stmdaeq	r0, {r4, sl}
 530:	08000412 	stmdaeq	r0, {r1, r4, sl}
 534:	08770002 	ldmdaeq	r7!, {r1}^
 538:	08000412 	stmdaeq	r0, {r1, r4, sl}
 53c:	08000414 	stmdaeq	r0, {r2, r4, sl}
 540:	087d0002 	ldmdaeq	sp!, {r1}^
	...
 554:	007d0002 	rsbseq	r0, sp, r2
	...
 560:	047d0002 	ldrbteq	r0, [sp], #-2
	...
 56c:	187d0002 	ldmdane	sp!, {r1}^
	...
 578:	18770002 	ldmdane	r7!, {r1}^
	...
 584:	04770002 	ldrbteq	r0, [r7], #-2
	...
 590:	047d0002 	ldrbteq	r0, [sp], #-2
	...
 59c:	007d0002 	rsbseq	r0, sp, r2
	...
 5b0:	007d0002 	rsbseq	r0, sp, r2
	...
 5bc:	047d0002 	ldrbteq	r0, [sp], #-2
	...
 5c8:	107d0002 	rsbsne	r0, sp, r2
	...
 5d4:	10770002 	rsbsne	r0, r7, r2
	...
 5e0:	04770002 	ldrbteq	r0, [r7], #-2
	...
 5ec:	047d0002 	ldrbteq	r0, [sp], #-2
	...
 5f8:	007d0002 	rsbseq	r0, sp, r2
	...
 60c:	007d0002 	rsbseq	r0, sp, r2
	...
 618:	047d0002 	ldrbteq	r0, [sp], #-2
	...
 624:	107d0002 	rsbsne	r0, sp, r2
	...
 630:	10770002 	rsbsne	r0, r7, r2
	...
 63c:	04770002 	ldrbteq	r0, [r7], #-2
	...
 648:	047d0002 	ldrbteq	r0, [sp], #-2
	...
 654:	007d0002 	rsbseq	r0, sp, r2
	...
 668:	007d0002 	rsbseq	r0, sp, r2
	...
 674:	047d0002 	ldrbteq	r0, [sp], #-2
	...
 680:	107d0002 	rsbsne	r0, sp, r2
	...
 68c:	10770002 	rsbsne	r0, r7, r2
	...
 698:	04770002 	ldrbteq	r0, [r7], #-2
	...
 6a4:	047d0002 	ldrbteq	r0, [sp], #-2
	...
 6b0:	007d0002 	rsbseq	r0, sp, r2
	...
 6c4:	007d0002 	rsbseq	r0, sp, r2
	...
 6d0:	047d0002 	ldrbteq	r0, [sp], #-2
	...
 6dc:	107d0002 	rsbsne	r0, sp, r2
	...
 6e8:	10770002 	rsbsne	r0, r7, r2
	...
 6f4:	04770002 	ldrbteq	r0, [r7], #-2
	...
 700:	047d0002 	ldrbteq	r0, [sp], #-2
	...
 70c:	007d0002 	rsbseq	r0, sp, r2
	...
 720:	007d0002 	rsbseq	r0, sp, r2
	...
 72c:	047d0002 	ldrbteq	r0, [sp], #-2
	...
 738:	107d0002 	rsbsne	r0, sp, r2
	...
 744:	10770002 	rsbsne	r0, r7, r2
	...
 750:	04770002 	ldrbteq	r0, [r7], #-2
	...
 75c:	047d0002 	ldrbteq	r0, [sp], #-2
	...
 768:	007d0002 	rsbseq	r0, sp, r2
	...
 77c:	007d0002 	rsbseq	r0, sp, r2
	...
 788:	047d0002 	ldrbteq	r0, [sp], #-2
	...
 794:	107d0002 	rsbsne	r0, sp, r2
	...
 7a0:	10770002 	rsbsne	r0, r7, r2
	...
 7ac:	04770002 	ldrbteq	r0, [r7], #-2
	...
 7b8:	047d0002 	ldrbteq	r0, [sp], #-2
	...
 7c4:	007d0002 	rsbseq	r0, sp, r2
	...
 7d0:	08000af0 	stmdaeq	r0, {r4, r5, r6, r7, r9, fp}
 7d4:	08000af2 	stmdaeq	r0, {r1, r4, r5, r6, r7, r9, fp}
 7d8:	007d0002 	rsbseq	r0, sp, r2
 7dc:	08000af2 	stmdaeq	r0, {r1, r4, r5, r6, r7, r9, fp}
 7e0:	08000af4 	stmdaeq	r0, {r2, r4, r5, r6, r7, r9, fp}
 7e4:	0c7d0002 	ldcleq	0, cr0, [sp], #-8
 7e8:	08000af4 	stmdaeq	r0, {r2, r4, r5, r6, r7, r9, fp}
 7ec:	08000af6 	stmdaeq	r0, {r1, r2, r4, r5, r6, r7, r9, fp}
 7f0:	207d0002 	rsbscs	r0, sp, r2
 7f4:	08000af6 	stmdaeq	r0, {r1, r2, r4, r5, r6, r7, r9, fp}
 7f8:	08000c76 	stmdaeq	r0, {r1, r2, r4, r5, r6, sl, fp}
 7fc:	20770002 	rsbscs	r0, r7, r2
 800:	08000c76 	stmdaeq	r0, {r1, r2, r4, r5, r6, sl, fp}
 804:	08000c78 	stmdaeq	r0, {r3, r4, r5, r6, sl, fp}
 808:	0c770002 	ldcleq	0, cr0, [r7], #-8
 80c:	08000c78 	stmdaeq	r0, {r3, r4, r5, r6, sl, fp}
 810:	08000c7a 	stmdaeq	r0, {r1, r3, r4, r5, r6, sl, fp}
 814:	0c7d0002 	ldcleq	0, cr0, [sp], #-8
	...
 820:	080009ac 	stmdaeq	r0, {r2, r3, r5, r7, r8, fp}
 824:	080009ae 	stmdaeq	r0, {r1, r2, r3, r5, r7, r8, fp}
 828:	007d0002 	rsbseq	r0, sp, r2
 82c:	080009ae 	stmdaeq	r0, {r1, r2, r3, r5, r7, r8, fp}
 830:	080009b0 	stmdaeq	r0, {r4, r5, r7, r8, fp}
 834:	047d0002 	ldrbteq	r0, [sp], #-2
 838:	080009b0 	stmdaeq	r0, {r4, r5, r7, r8, fp}
 83c:	080009b2 	stmdaeq	r0, {r1, r4, r5, r7, r8, fp}
 840:	107d0002 	rsbsne	r0, sp, r2
 844:	080009b2 	stmdaeq	r0, {r1, r4, r5, r7, r8, fp}
 848:	08000ae8 	stmdaeq	r0, {r3, r5, r6, r7, r9, fp}
 84c:	10770002 	rsbsne	r0, r7, r2
 850:	08000ae8 	stmdaeq	r0, {r3, r5, r6, r7, r9, fp}
 854:	08000aea 	stmdaeq	r0, {r1, r3, r5, r6, r7, r9, fp}
 858:	04770002 	ldrbteq	r0, [r7], #-2
 85c:	08000aea 	stmdaeq	r0, {r1, r3, r5, r6, r7, r9, fp}
 860:	08000aec 	stmdaeq	r0, {r2, r3, r5, r6, r7, r9, fp}
 864:	047d0002 	ldrbteq	r0, [sp], #-2
 868:	08000aec 	stmdaeq	r0, {r2, r3, r5, r6, r7, r9, fp}
 86c:	08000aee 	stmdaeq	r0, {r1, r2, r3, r5, r6, r7, r9, fp}
 870:	007d0002 	rsbseq	r0, sp, r2
	...

Disassembly of section .debug_aranges:

00000000 <.debug_aranges>:
   0:	00000054 	andeq	r0, r0, r4, asr r0
   4:	00000002 	andeq	r0, r0, r2
   8:	00040000 	andeq	r0, r4, r0
   c:	00000000 	andeq	r0, r0, r0
  10:	08000170 	stmdaeq	r0, {r4, r5, r6, r8}
  14:	00000034 	andeq	r0, r0, r4, lsr r0
  18:	080001a4 	stmdaeq	r0, {r2, r5, r7, r8}
  1c:	00000040 	andeq	r0, r0, r0, asr #32
  20:	080001e4 	stmdaeq	r0, {r2, r5, r6, r7, r8}
  24:	0000002c 	andeq	r0, r0, ip, lsr #32
  28:	08000210 	stmdaeq	r0, {r4, r9}
  2c:	00000020 	andeq	r0, r0, r0, lsr #32
  30:	08000230 	stmdaeq	r0, {r4, r5, r9}
  34:	00000026 	andeq	r0, r0, r6, lsr #32
  38:	08000258 	stmdaeq	r0, {r3, r4, r6, r9}
  3c:	000000f8 	strdeq	r0, [r0], -r8
  40:	08000350 	stmdaeq	r0, {r4, r6, r8, r9}
  44:	0000000e 	andeq	r0, r0, lr
  48:	08000360 	stmdaeq	r0, {r5, r6, r8, r9}
  4c:	0000004c 	andeq	r0, r0, ip, asr #32
	...
  58:	00000024 	andeq	r0, r0, r4, lsr #32
  5c:	04c40002 	strbeq	r0, [r4], #2
  60:	00040000 	andeq	r0, r4, r0
  64:	00000000 	andeq	r0, r0, r0
  68:	080003ac 	stmdaeq	r0, {r2, r3, r5, r7, r8, r9}
  6c:	00000050 	andeq	r0, r0, r0, asr r0
  70:	080003fc 	stmdaeq	r0, {r2, r3, r4, r5, r6, r7, r8, r9}
  74:	00000002 	andeq	r0, r0, r2
	...
  80:	0000007c 	andeq	r0, r0, ip, ror r0
  84:	04e60002 	strbteq	r0, [r6], #2
  88:	00040000 	andeq	r0, r4, r0
  8c:	00000000 	andeq	r0, r0, r0
  90:	080003fe 	stmdaeq	r0, {r1, r2, r3, r4, r5, r6, r7, r8, r9}
  94:	00000016 	andeq	r0, r0, r6, lsl r0
  98:	00000000 	andeq	r0, r0, r0
  9c:	00000016 	andeq	r0, r0, r6, lsl r0
  a0:	00000000 	andeq	r0, r0, r0
  a4:	0000008c 	andeq	r0, r0, ip, lsl #1
  a8:	08000414 	stmdaeq	r0, {r2, r4, sl}
  ac:	000001e0 	andeq	r0, r0, r0, ror #3
  b0:	080005f4 	stmdaeq	r0, {r2, r4, r5, r6, r7, r8, sl}
  b4:	000000cc 	andeq	r0, r0, ip, asr #1
  b8:	080006c0 	stmdaeq	r0, {r6, r7, r9, sl}
  bc:	000000cc 	andeq	r0, r0, ip, asr #1
  c0:	0800078c 	stmdaeq	r0, {r2, r3, r7, r8, r9, sl}
  c4:	00000024 	andeq	r0, r0, r4, lsr #32
  c8:	080007b0 	stmdaeq	r0, {r4, r5, r7, r8, r9, sl}
  cc:	00000024 	andeq	r0, r0, r4, lsr #32
  d0:	080007d4 	stmdaeq	r0, {r2, r4, r6, r7, r8, r9, sl}
  d4:	00000024 	andeq	r0, r0, r4, lsr #32
  d8:	080007f8 	stmdaeq	r0, {r3, r4, r5, r6, r7, r8, r9, sl}
  dc:	00000024 	andeq	r0, r0, r4, lsr #32
  e0:	0800081c 	stmdaeq	r0, {r2, r3, r4, fp}
  e4:	00000024 	andeq	r0, r0, r4, lsr #32
  e8:	08000840 	stmdaeq	r0, {r6, fp}
  ec:	000000a8 	andeq	r0, r0, r8, lsr #1
  f0:	080008e8 	stmdaeq	r0, {r3, r5, r6, r7, fp}
  f4:	000000c4 	andeq	r0, r0, r4, asr #1
	...
 100:	0000005c 	andeq	r0, r0, ip, asr r0
 104:	09eb0002 	stmibeq	fp!, {r1}^
 108:	00040000 	andeq	r0, r4, r0
 10c:	00000000 	andeq	r0, r0, r0
 110:	080009ac 	stmdaeq	r0, {r2, r3, r5, r7, r8, fp}
 114:	00000142 	andeq	r0, r0, r2, asr #2
 118:	08000af0 	stmdaeq	r0, {r4, r5, r6, r7, r9, fp}
 11c:	0000018a 	andeq	r0, r0, sl, lsl #3
 120:	00000000 	andeq	r0, r0, r0
 124:	000000b0 	strheq	r0, [r0], -r0	; <UNPREDICTABLE>
 128:	00000000 	andeq	r0, r0, r0
 12c:	00000028 	andeq	r0, r0, r8, lsr #32
 130:	00000000 	andeq	r0, r0, r0
 134:	00000018 	andeq	r0, r0, r8, lsl r0
 138:	00000000 	andeq	r0, r0, r0
 13c:	0000002e 	andeq	r0, r0, lr, lsr #32
 140:	00000000 	andeq	r0, r0, r0
 144:	00000022 	andeq	r0, r0, r2, lsr #32
 148:	00000000 	andeq	r0, r0, r0
 14c:	00000022 	andeq	r0, r0, r2, lsr #32
 150:	00000000 	andeq	r0, r0, r0
 154:	0000004e 	andeq	r0, r0, lr, asr #32
	...

Disassembly of section .debug_ranges:

00000000 <.debug_ranges>:
   0:	08000170 	stmdaeq	r0, {r4, r5, r6, r8}
   4:	080001a4 	stmdaeq	r0, {r2, r5, r7, r8}
   8:	080001a4 	stmdaeq	r0, {r2, r5, r7, r8}
   c:	080001e4 	stmdaeq	r0, {r2, r5, r6, r7, r8}
  10:	080001e4 	stmdaeq	r0, {r2, r5, r6, r7, r8}
  14:	08000210 	stmdaeq	r0, {r4, r9}
  18:	08000210 	stmdaeq	r0, {r4, r9}
  1c:	08000230 	stmdaeq	r0, {r4, r5, r9}
  20:	08000230 	stmdaeq	r0, {r4, r5, r9}
  24:	08000256 	stmdaeq	r0, {r1, r2, r4, r6, r9}
  28:	08000258 	stmdaeq	r0, {r3, r4, r6, r9}
  2c:	08000350 	stmdaeq	r0, {r4, r6, r8, r9}
  30:	08000350 	stmdaeq	r0, {r4, r6, r8, r9}
  34:	0800035e 	stmdaeq	r0, {r1, r2, r3, r4, r6, r8, r9}
  38:	08000360 	stmdaeq	r0, {r5, r6, r8, r9}
  3c:	080003ac 	stmdaeq	r0, {r2, r3, r5, r7, r8, r9}
	...
  48:	ffffffff 			; <UNDEFINED> instruction: 0xffffffff
  4c:	00000000 	andeq	r0, r0, r0
  50:	080003ac 	stmdaeq	r0, {r2, r3, r5, r7, r8, r9}
  54:	080003fc 	stmdaeq	r0, {r2, r3, r4, r5, r6, r7, r8, r9}
  58:	080003fc 	stmdaeq	r0, {r2, r3, r4, r5, r6, r7, r8, r9}
  5c:	080003fe 	stmdaeq	r0, {r1, r2, r3, r4, r5, r6, r7, r8, r9}
	...
  68:	080003fe 	stmdaeq	r0, {r1, r2, r3, r4, r5, r6, r7, r8, r9}
  6c:	08000414 	stmdaeq	r0, {r2, r4, sl}
  70:	00000001 	andeq	r0, r0, r1
  74:	00000001 	andeq	r0, r0, r1
  78:	00000001 	andeq	r0, r0, r1
  7c:	00000001 	andeq	r0, r0, r1
  80:	08000414 	stmdaeq	r0, {r2, r4, sl}
  84:	080005f4 	stmdaeq	r0, {r2, r4, r5, r6, r7, r8, sl}
  88:	080005f4 	stmdaeq	r0, {r2, r4, r5, r6, r7, r8, sl}
  8c:	080006c0 	stmdaeq	r0, {r6, r7, r9, sl}
  90:	080006c0 	stmdaeq	r0, {r6, r7, r9, sl}
  94:	0800078c 	stmdaeq	r0, {r2, r3, r7, r8, r9, sl}
  98:	0800078c 	stmdaeq	r0, {r2, r3, r7, r8, r9, sl}
  9c:	080007b0 	stmdaeq	r0, {r4, r5, r7, r8, r9, sl}
  a0:	080007b0 	stmdaeq	r0, {r4, r5, r7, r8, r9, sl}
  a4:	080007d4 	stmdaeq	r0, {r2, r4, r6, r7, r8, r9, sl}
  a8:	080007d4 	stmdaeq	r0, {r2, r4, r6, r7, r8, r9, sl}
  ac:	080007f8 	stmdaeq	r0, {r3, r4, r5, r6, r7, r8, r9, sl}
  b0:	080007f8 	stmdaeq	r0, {r3, r4, r5, r6, r7, r8, r9, sl}
  b4:	0800081c 	stmdaeq	r0, {r2, r3, r4, fp}
  b8:	0800081c 	stmdaeq	r0, {r2, r3, r4, fp}
  bc:	08000840 	stmdaeq	r0, {r6, fp}
  c0:	08000840 	stmdaeq	r0, {r6, fp}
  c4:	080008e8 	stmdaeq	r0, {r3, r5, r6, r7, fp}
  c8:	080008e8 	stmdaeq	r0, {r3, r5, r6, r7, fp}
  cc:	080009ac 	stmdaeq	r0, {r2, r3, r5, r7, r8, fp}
	...
  d8:	080009ac 	stmdaeq	r0, {r2, r3, r5, r7, r8, fp}
  dc:	08000aee 	stmdaeq	r0, {r1, r2, r3, r5, r6, r7, r9, fp}
  e0:	08000af0 	stmdaeq	r0, {r4, r5, r6, r7, r9, fp}
  e4:	08000c7a 	stmdaeq	r0, {r1, r3, r4, r5, r6, sl, fp}
  e8:	00000001 	andeq	r0, r0, r1
  ec:	00000001 	andeq	r0, r0, r1
  f0:	00000001 	andeq	r0, r0, r1
  f4:	00000001 	andeq	r0, r0, r1
  f8:	00000001 	andeq	r0, r0, r1
  fc:	00000001 	andeq	r0, r0, r1
 100:	00000001 	andeq	r0, r0, r1
 104:	00000001 	andeq	r0, r0, r1
 108:	00000001 	andeq	r0, r0, r1
 10c:	00000001 	andeq	r0, r0, r1
 110:	00000001 	andeq	r0, r0, r1
 114:	00000001 	andeq	r0, r0, r1
 118:	00000001 	andeq	r0, r0, r1
 11c:	00000001 	andeq	r0, r0, r1
	...

Disassembly of section .debug_macro:

00000000 <.debug_macro>:
   0:	00020004 	andeq	r0, r2, r4
   4:	07000000 	streq	r0, [r0, -r0]
   8:	00000000 	andeq	r0, r0, r0
   c:	03010003 	movweq	r0, #4099	; 0x1003
  10:	09050313 	stmdbeq	r5, {r0, r1, r4, r8, r9}
  14:	00002416 	andeq	r2, r0, r6, lsl r4
  18:	07020f03 	streq	r0, [r2, -r3, lsl #30]
  1c:	00000000 	andeq	r0, r0, r0
  20:	00000704 	andeq	r0, r0, r4, lsl #14
  24:	03040000 	movweq	r0, #16384	; 0x4000
  28:	09050514 	stmdbeq	r5, {r2, r4, r8, sl}
  2c:	000031da 	ldrdeq	r3, [r0], -sl
  30:	04030b03 	streq	r0, [r3], #-2819	; 0xfffff4fd
  34:	00000007 	andeq	r0, r0, r7
  38:	15030400 	strne	r0, [r3, #-1024]	; 0xfffffc00
  3c:	00820706 	addeq	r0, r2, r6, lsl #14
  40:	03040000 	movweq	r0, #16384	; 0x4000
  44:	09050416 	stmdbeq	r5, {r1, r2, r4, sl}
  48:	00006db5 			; <UNDEFINED> instruction: 0x00006db5
  4c:	04050c03 	streq	r0, [r5], #-3075	; 0xfffff3fd
  50:	00014607 	andeq	r4, r1, r7, lsl #12
  54:	18050400 	stmdane	r5, {sl}
  58:	00003da8 	andeq	r3, r0, r8, lsr #27
  5c:	42221905 	eormi	r1, r2, #81920	; 0x14000
  60:	1a050000 	bne	140068 <_Min_Stack_Size+0x13fc68>
  64:	00000328 	andeq	r0, r0, r8, lsr #6
  68:	1c9c3d05 	ldcne	13, cr3, [ip], {5}
  6c:	3f050000 	svccc	0x00050000
  70:	000010ea 	andeq	r1, r0, sl, ror #1
  74:	1a694105 	bne	1a50490 <_Min_Stack_Size+0x1a50090>
  78:	43050000 	movwmi	r0, #20480	; 0x5000
  7c:	00005471 	andeq	r5, r0, r1, ror r4
  80:	00040004 	andeq	r0, r4, r4
  84:	ff090500 			; <UNDEFINED> instruction: 0xff090500
  88:	05000040 	streq	r0, [r0, #-64]	; 0xffffffc0
  8c:	0065910d 	rsbeq	r9, r5, sp, lsl #2
  90:	89150500 	ldmdbhi	r5, {r8, sl}
  94:	0500004a 	streq	r0, [r0, #-74]	; 0xffffffb6
  98:	002ac016 	eoreq	ip, sl, r6, lsl r0
  9c:	59170500 	ldmdbpl	r7, {r8, sl}
  a0:	05000049 	streq	r0, [r0, #-73]	; 0xffffffb7
  a4:	00395618 	eorseq	r5, r9, r8, lsl r6
  a8:	1a190500 	bne	6414b0 <_Min_Stack_Size+0x6410b0>
  ac:	0500001e 	streq	r0, [r0, #-30]	; 0xffffffe2
  b0:	004c9e1a 	subeq	r9, ip, sl, lsl lr
  b4:	ec1b0500 	cfldr32	mvfx0, [fp], {-0}
  b8:	05000030 	streq	r0, [r0, #-48]	; 0xffffffd0
  bc:	0035401c 	eorseq	r4, r5, ip, lsl r0
  c0:	771d0500 	ldrvc	r0, [sp, -r0, lsl #10]
  c4:	0500004e 	streq	r0, [r0, #-78]	; 0xffffffb2
  c8:	0066c11e 	rsbeq	ip, r6, lr, lsl r1
  cc:	ca1f0500 	bgt	7c14d4 <_Min_Stack_Size+0x7c10d4>
  d0:	05000017 	streq	r0, [r0, #-23]	; 0xffffffe9
  d4:	000f9020 	andeq	r9, pc, r0, lsr #32
  d8:	00210500 	eoreq	r0, r1, r0, lsl #10
  dc:	05000016 	streq	r0, [r0, #-22]	; 0xffffffea
  e0:	003e6922 	eorseq	r6, lr, r2, lsr #18
  e4:	5f230500 	svcpl	0x00230500
  e8:	0500005a 	streq	r0, [r0, #-90]	; 0xffffffa6
  ec:	00222a24 	eoreq	r2, r2, r4, lsr #20
  f0:	d6250500 	strtle	r0, [r5], -r0, lsl #10
  f4:	05000032 	streq	r0, [r0, #-50]	; 0xffffffce
  f8:	0014a827 	andseq	sl, r4, r7, lsr #16
  fc:	3b280500 	blcc	a01504 <_Min_Stack_Size+0xa01104>
 100:	0500005a 	streq	r0, [r0, #-90]	; 0xffffffa6
 104:	0004b72b 	andeq	fp, r4, fp, lsr #14
 108:	dc2c0500 	cfstr32le	mvfx0, [ip], #-0
 10c:	05000015 	streq	r0, [r0, #-21]	; 0xffffffeb
 110:	003d282d 	eorseq	r2, sp, sp, lsr #16
 114:	c02e0500 	eorgt	r0, lr, r0, lsl #10
 118:	0500000b 	streq	r0, [r0, #-11]
 11c:	0009bc2f 	andeq	fp, r9, pc, lsr #24
 120:	27300500 	ldrcs	r0, [r0, -r0, lsl #10]!
 124:	0500000b 	streq	r0, [r0, #-11]
 128:	00012c31 	andeq	r2, r1, r1, lsr ip
 12c:	0b320500 	bleq	c81534 <_Min_Stack_Size+0xc81134>
 130:	0500002e 	streq	r0, [r0, #-46]	; 0xffffffd2
 134:	00071236 	andeq	r1, r7, r6, lsr r2
 138:	35370500 	ldrcc	r0, [r7, #-1280]!	; 0xfffffb00
 13c:	05000040 	streq	r0, [r0, #-64]	; 0xffffffc0
 140:	00688b38 	rsbeq	r8, r8, r8, lsr fp
 144:	00040000 	andeq	r0, r4, r0
 148:	e42e0500 	strt	r0, [lr], #-1280	; 0xfffffb00
 14c:	05000000 	streq	r0, [r0, #-0]
 150:	003bef2f 	eorseq	lr, fp, pc, lsr #30
 154:	a8300500 	ldmdage	r0!, {r8, sl}
 158:	05000050 	streq	r0, [r0, #-80]	; 0xffffffb0
 15c:	0067ac31 	rsbeq	sl, r7, r1, lsr ip
 160:	08320500 	ldmdaeq	r2!, {r8, sl}
 164:	05000045 	streq	r0, [r0, #-69]	; 0xffffffbb
 168:	00265433 	eoreq	r5, r6, r3, lsr r4
 16c:	b2340500 	eorslt	r0, r4, #0, 10
 170:	0500003c 	streq	r0, [r0, #-60]	; 0xffffffc4
 174:	00677a35 	rsbeq	r7, r7, r5, lsr sl
 178:	e6360500 	ldrt	r0, [r6], -r0, lsl #10
 17c:	05000068 	streq	r0, [r0, #-104]	; 0xffffff98
 180:	00141337 	andseq	r1, r4, r7, lsr r3
 184:	96380500 	ldrtls	r0, [r8], -r0, lsl #10
 188:	05000009 	streq	r0, [r0, #-9]
 18c:	003fc139 	eorseq	ip, pc, r9, lsr r1	; <UNPREDICTABLE>
 190:	cf3a0500 	svcgt	0x003a0500
 194:	0500000a 	streq	r0, [r0, #-10]
 198:	0067d93b 	rsbeq	sp, r7, fp, lsr r9
 19c:	173c0500 	ldrne	r0, [ip, -r0, lsl #10]!
 1a0:	05000010 	streq	r0, [r0, #-16]
 1a4:	0042373d 	subeq	r3, r2, sp, lsr r7
 1a8:	c6420500 	strbgt	r0, [r2], -r0, lsl #10
 1ac:	0500002c 	streq	r0, [r0, #-44]	; 0xffffffd4
 1b0:	00366943 	eorseq	r6, r6, r3, asr #18
 1b4:	1c440500 	cfstr64ne	mvdx0, [r4], {-0}
 1b8:	0500001b 	streq	r0, [r0, #-27]	; 0xffffffe5
 1bc:	006a4445 	rsbeq	r4, sl, r5, asr #8
 1c0:	07480500 	strbeq	r0, [r8, -r0, lsl #10]
 1c4:	0500005d 	streq	r0, [r0, #-93]	; 0xffffffa3
 1c8:	001da349 	andseq	sl, sp, r9, asr #6
 1cc:	7e4a0500 	cdpvc	5, 4, cr0, cr10, cr0, {0}
 1d0:	0500000d 	streq	r0, [r0, #-13]
 1d4:	0009244b 	andeq	r2, r9, fp, asr #8
 1d8:	204e0500 	subcs	r0, lr, r0, lsl #10
 1dc:	05000069 	streq	r0, [r0, #-105]	; 0xffffff97
 1e0:	004ac54f 	subeq	ip, sl, pc, asr #10
 1e4:	6e500500 	cdpvs	5, 5, cr0, cr0, cr0, {0}
 1e8:	0500000b 	streq	r0, [r0, #-11]
 1ec:	00432351 	subeq	r2, r3, r1, asr r3
 1f0:	75540500 	ldrbvc	r0, [r4, #-1280]	; 0xfffffb00
 1f4:	05000005 	streq	r0, [r0, #-5]
 1f8:	000ea055 	andeq	sl, lr, r5, asr r0
 1fc:	d0560500 	subsle	r0, r6, r0, lsl #10
 200:	05000039 	streq	r0, [r0, #-57]	; 0xffffffc7
 204:	0065ac57 	rsbeq	sl, r5, r7, asr ip
 208:	2d5a0500 	cfldr64cs	mvdx0, [sl, #-0]
 20c:	0500001d 	streq	r0, [r0, #-29]	; 0xffffffe3
 210:	0019f35b 	andseq	pc, r9, fp, asr r3	; <UNPREDICTABLE>
 214:	de5c0500 	cdple	5, 5, cr0, cr12, cr0, {0}
 218:	0500005b 	streq	r0, [r0, #-91]	; 0xffffffa5
 21c:	0026e15d 	eoreq	lr, r6, sp, asr r1
 220:	05600500 	strbeq	r0, [r0, #-1280]!	; 0xfffffb00
 224:	0500001c 	streq	r0, [r0, #-28]	; 0xffffffe4
 228:	0046ad61 	subeq	sl, r6, r1, ror #26
 22c:	62620500 	rsbvs	r0, r2, #0, 10
 230:	05000007 	streq	r0, [r0, #-7]
 234:	00566e63 	subseq	r6, r6, r3, ror #28
 238:	7b660500 	blvc	1981640 <_Min_Stack_Size+0x1981240>
 23c:	05000049 	streq	r0, [r0, #-73]	; 0xffffffb7
 240:	000a1667 	andeq	r1, sl, r7, ror #12
 244:	d4680500 	strbtle	r0, [r8], #-1280	; 0xfffffb00
 248:	05000035 	streq	r0, [r0, #-53]	; 0xffffffcb
 24c:	00617869 	rsbeq	r7, r1, r9, ror #16
 250:	4d6c0500 	cfstr64mi	mvdx0, [ip, #-0]
 254:	0500006c 	streq	r0, [r0, #-108]	; 0xffffff94
 258:	00388a6d 	eorseq	r8, r8, sp, ror #20
 25c:	ec6e0500 	cfstr64	mvdx0, [lr], #-0
 260:	05000063 	streq	r0, [r0, #-99]	; 0xffffff9d
 264:	0041ad6f 	subeq	sl, r1, pc, ror #26
 268:	b2720500 	rsbslt	r0, r2, #0, 10
 26c:	05000018 	streq	r0, [r0, #-24]	; 0xffffffe8
 270:	0066de73 	rsbeq	sp, r6, r3, ror lr
 274:	b4740500 	ldrbtlt	r0, [r4], #-1280	; 0xfffffb00
 278:	05000025 	streq	r0, [r0, #-37]	; 0xffffffdb
 27c:	0058b475 	subseq	fp, r8, r5, ror r4
 280:	80780500 	rsbshi	r0, r8, r0, lsl #10
 284:	05000045 	streq	r0, [r0, #-69]	; 0xffffffbb
 288:	0005e979 	andeq	lr, r5, r9, ror r9
 28c:	bf7a0500 	svclt	0x007a0500
 290:	0500002f 	streq	r0, [r0, #-47]	; 0xffffffd1
 294:	0016597b 	andseq	r5, r6, fp, ror r9
 298:	767e0500 	ldrbtvc	r0, [lr], -r0, lsl #10
 29c:	05000022 	streq	r0, [r0, #-34]	; 0xffffffde
 2a0:	002e4a7f 	eoreq	r4, lr, pc, ror sl
 2a4:	01800500 	orreq	r0, r0, r0, lsl #10
 2a8:	00000d1e 	andeq	r0, r0, lr, lsl sp
 2ac:	22018105 	andcs	r8, r1, #1073741825	; 0x40000001
 2b0:	05000000 	streq	r0, [r0, #-0]
 2b4:	3f460184 	svccc	0x00460184
 2b8:	85050000 	strhi	r0, [r5, #-0]
 2bc:	0033d401 	eorseq	sp, r3, r1, lsl #8
 2c0:	01860500 	orreq	r0, r6, r0, lsl #10
 2c4:	000027c3 	andeq	r2, r0, r3, asr #15
 2c8:	99018705 	stmdbls	r1, {r0, r2, r8, r9, sl, pc}
 2cc:	0500001e 	streq	r0, [r0, #-30]	; 0xffffffe2
 2d0:	46ec018a 	strbtmi	r0, [ip], sl, lsl #3
 2d4:	8b050000 	blhi	1402dc <_Min_Stack_Size+0x13fedc>
 2d8:	00501401 	subseq	r1, r0, r1, lsl #8
 2dc:	018c0500 	orreq	r0, ip, r0, lsl #10
 2e0:	000069a9 	andeq	r6, r0, r9, lsr #19
 2e4:	d5018d05 	strle	r8, [r1, #-3333]	; 0xfffff2fb
 2e8:	0500003a 	streq	r0, [r0, #-58]	; 0xffffffc6
 2ec:	2eb30190 	mrccs	1, 5, r0, cr3, cr0, {4}
 2f0:	91050000 	mrsls	r0, (UNDEF: 5)
 2f4:	0043b201 	subeq	fp, r3, r1, lsl #4
 2f8:	01920500 	orrseq	r0, r2, r0, lsl #10
 2fc:	0000622d 	andeq	r6, r0, sp, lsr #4
 300:	8a019305 	bhi	64f1c <_Min_Stack_Size+0x64b1c>
 304:	05000057 	streq	r0, [r0, #-87]	; 0xffffffa9
 308:	556b0196 	strbpl	r0, [fp, #-406]!	; 0xfffffe6a
 30c:	97050000 	strls	r0, [r5, -r0]
 310:	00411201 	subeq	r1, r1, r1, lsl #4
 314:	01980500 	orrseq	r0, r8, r0, lsl #10
 318:	00005349 	andeq	r5, r0, r9, asr #6
 31c:	61019905 	tstvs	r1, r5, lsl #18
 320:	05000035 	streq	r0, [r0, #-53]	; 0xffffffcb
 324:	6b20019c 	blvs	80099c <_Min_Stack_Size+0x80059c>
 328:	9d050000 	stcls	0, cr0, [r5, #-0]
 32c:	0050bf01 	subseq	fp, r0, r1, lsl #30
 330:	019e0500 	orrseq	r0, lr, r0, lsl #10
 334:	00005278 	andeq	r5, r0, r8, ror r2
 338:	2d019f05 	stccs	15, cr9, [r1, #-20]	; 0xffffffec
 33c:	05000054 	streq	r0, [r0, #-84]	; 0xffffffac
 340:	24c701a2 	strbcs	r0, [r7], #418	; 0x1a2
 344:	a3050000 	movwge	r0, #20480	; 0x5000
 348:	00074b01 	andeq	r4, r7, r1, lsl #22
 34c:	01a40500 			; <UNDEFINED> instruction: 0x01a40500
 350:	000051b3 			; <UNDEFINED> instruction: 0x000051b3
 354:	9301a705 	movwls	sl, #5893	; 0x1705
 358:	05000010 	streq	r0, [r0, #-16]
 35c:	193901a8 	ldmdbne	r9!, {r3, r5, r7, r8}
 360:	04000000 	streq	r0, [r0], #-0
 364:	02a10200 	adceq	r0, r1, #0, 4
 368:	00070000 	andeq	r0, r7, r0
 36c:	03000000 	movweq	r0, #0
 370:	07030100 	streq	r0, [r3, -r0, lsl #2]
 374:	b5090505 	strlt	r0, [r9, #-1285]	; 0xfffffafb
 378:	0300006d 	movweq	r0, #109	; 0x6d
 37c:	0905030b 	stmdbeq	r5, {r0, r1, r3, r8, r9}
 380:	00002416 	andeq	r2, r0, r6, lsl r4
 384:	07020f03 	streq	r0, [r2, -r3, lsl #30]
 388:	00000000 	andeq	r0, r0, r0
 38c:	00000704 	andeq	r0, r0, r4, lsl #14
 390:	03040000 	movweq	r0, #16384	; 0x4000
 394:	b207040c 	andlt	r0, r7, #12, 8	; 0xc000000
 398:	04000003 	streq	r0, [r0], #-3
 39c:	00014607 	andeq	r4, r1, r7, lsl #12
 3a0:	08030400 	stmdaeq	r3, {sl}
 3a4:	09030404 	stmdbeq	r3, {r2, sl}
 3a8:	15050403 	strne	r0, [r5, #-1027]	; 0xfffffbfd
 3ac:	00006fdc 	ldrdeq	r6, [r0], -ip
 3b0:	00040004 	andeq	r0, r4, r4
 3b4:	da090500 	ble	2417bc <_Min_Stack_Size+0x2413bc>
 3b8:	05000031 	streq	r0, [r0, #-49]	; 0xffffffcf
 3bc:	0011f625 	andseq	pc, r1, r5, lsr #12
 3c0:	6c260500 	cfstr32vs	mvfx0, [r6], #-0
 3c4:	05000057 	streq	r0, [r0, #-87]	; 0xffffffa9
 3c8:	000e8227 	andeq	r8, lr, r7, lsr #4
 3cc:	6c280500 	cfstr32vs	mvfx0, [r8], #-0
 3d0:	0500001d 	streq	r0, [r0, #-29]	; 0xffffffe3
 3d4:	006aa529 	rsbeq	sl, sl, r9, lsr #10
 3d8:	ac2a0500 	cfstr32ge	mvfx0, [sl], #-0
 3dc:	0500004b 	streq	r0, [r0, #-75]	; 0xffffffb5
 3e0:	004d1c2b 	subeq	r1, sp, fp, lsr #24
 3e4:	4e2c0500 	cfsh64mi	mvdx0, mvdx12, #0
 3e8:	0500002a 	streq	r0, [r0, #-42]	; 0xffffffd6
 3ec:	000e052d 	andeq	r0, lr, sp, lsr #10
 3f0:	282e0500 	stmdacs	lr!, {r8, sl}
 3f4:	05000006 	streq	r0, [r0, #-6]
 3f8:	00373d2f 	eorseq	r3, r7, pc, lsr #26
 3fc:	ee300500 	cfabs32	mvfx0, mvfx0
 400:	05000068 	streq	r0, [r0, #-104]	; 0xffffff98
 404:	00172c31 	andseq	r2, r7, r1, lsr ip
 408:	7c320500 	cfldr32vc	mvfx0, [r2], #-0
 40c:	05000034 	streq	r0, [r0, #-52]	; 0xffffffcc
 410:	00424133 	subeq	r4, r2, r3, lsr r1
 414:	33340500 	teqcc	r4, #0, 10
 418:	0500005c 	streq	r0, [r0, #-92]	; 0xffffffa4
 41c:	006d6635 	rsbeq	r6, sp, r5, lsr r6
 420:	df430500 	svcle	0x00430500
 424:	0500001b 	streq	r0, [r0, #-27]	; 0xffffffe5
 428:	00609444 	rsbeq	r9, r0, r4, asr #8
 42c:	ff450500 			; <UNDEFINED> instruction: 0xff450500
 430:	0500000c 	streq	r0, [r0, #-12]
 434:	000a9c46 	andeq	r9, sl, r6, asr #24
 438:	f8470500 			; <UNDEFINED> instruction: 0xf8470500
 43c:	0500001c 	streq	r0, [r0, #-28]	; 0xffffffe4
 440:	006ac348 	rsbeq	ip, sl, r8, asr #6
 444:	c5490500 	strbgt	r0, [r9, #-1280]	; 0xfffffb00
 448:	0500005d 	streq	r0, [r0, #-93]	; 0xffffffa3
 44c:	0058824a 	subseq	r8, r8, sl, asr #4
 450:	034b0500 	movteq	r0, #46336	; 0xb500
 454:	05000058 	streq	r0, [r0, #-88]	; 0xffffffa8
 458:	000a5553 	andeq	r5, sl, r3, asr r5
 45c:	72540500 	subsvc	r0, r4, #0, 10
 460:	0500000a 	streq	r0, [r0, #-10]
 464:	00695f55 	rsbeq	r5, r9, r5, asr pc
 468:	ba580500 	blt	1601870 <_Min_Stack_Size+0x1601470>
 46c:	05000026 	streq	r0, [r0, #-38]	; 0xffffffda
 470:	001b5b59 	andseq	r5, fp, r9, asr fp
 474:	9b5c0500 	blls	170187c <_Min_Stack_Size+0x170147c>
 478:	05000002 	streq	r0, [r0, #-2]
 47c:	0039805d 	eorseq	r8, r9, sp, asr r0
 480:	00040000 	andeq	r0, r4, r0
 484:	00070502 	andeq	r0, r7, r2, lsl #10
 488:	00000700 	andeq	r0, r0, r0, lsl #14
 48c:	00030000 	andeq	r0, r3, r0
 490:	04070301 	streq	r0, [r7], #-769	; 0xfffffcff
 494:	31da0905 	bicscc	r0, sl, r5, lsl #18
 498:	0b030000 	bleq	c04a0 <_Min_Stack_Size+0xc00a0>
 49c:	16090503 	strne	r0, [r9], -r3, lsl #10
 4a0:	03000024 	movweq	r0, #36	; 0x24
 4a4:	0007020f 	andeq	r0, r7, pc, lsl #4
 4a8:	04000000 	streq	r0, [r0], #-0
 4ac:	00000007 	andeq	r0, r0, r7
 4b0:	00070400 	andeq	r0, r7, r0, lsl #8
 4b4:	04000000 	streq	r0, [r0], #-0
 4b8:	Address 0x00000000000004b8 is out of bounds.


Disassembly of section .debug_line:

00000000 <.debug_line>:
   0:	00000219 	andeq	r0, r0, r9, lsl r2
   4:	00d10003 	sbcseq	r0, r1, r3
   8:	01020000 	mrseq	r0, (UNDEF: 2)
   c:	000d0efb 	strdeq	r0, [sp], -fp
  10:	01010101 	tsteq	r1, r1, lsl #2
  14:	01000000 	mrseq	r0, (UNDEF: 0)
  18:	2e010000 	cdpcs	0, 0, cr0, cr1, cr0, {0}
  1c:	72532f2e 	subsvc	r2, r3, #46, 30	; 0xb8
  20:	3a430063 	bcc	10c01b4 <_Min_Stack_Size+0x10bfdb4>
  24:	6573552f 	ldrbvs	r5, [r3, #-1327]!	; 0xfffffad1
  28:	692f7372 	stmdbvs	pc!, {r1, r4, r5, r6, r8, r9, ip, sp, lr}	; <UNPREDICTABLE>
  2c:	69616d73 	stmdbvs	r1!, {r0, r1, r4, r5, r6, r8, sl, fp, sp, lr}^
  30:	54532f6c 	ldrbpl	r2, [r3], #-3948	; 0xfffff094
  34:	4332334d 	teqmi	r2, #872415233	; 0x34000001
  38:	49656275 	stmdbmi	r5!, {r0, r2, r4, r5, r6, r9, sp, lr}^
  3c:	442f4544 	strtmi	r4, [pc], #-1348	; 44 <_Min_Heap_Size-0x1bc>
  40:	65766972 	ldrbvs	r6, [r6, #-2418]!	; 0xfffff68e
  44:	532f7372 			; <UNDEFINED> instruction: 0x532f7372
  48:	32336d74 	eorscc	r6, r3, #116, 26	; 0x1d00
  4c:	3031465f 	eorscc	r4, r1, pc, asr r6
  50:	5f364333 	svcpl	0x00364333
  54:	76697244 	strbtvc	r7, [r9], -r4, asr #4
  58:	2f737265 	svccs	0x00737265
  5c:	00636e49 	rsbeq	r6, r3, r9, asr #28
  60:	552f3a43 	strpl	r3, [pc, #-2627]!	; fffff625 <_estack+0xdfffce25>
  64:	73726573 	cmnvc	r2, #482344960	; 0x1cc00000
  68:	6d73692f 			; <UNDEFINED> instruction: 0x6d73692f
  6c:	2f6c6961 	svccs	0x006c6961
  70:	334d5453 	movtcc	r5, #54355	; 0xd453
  74:	62754332 	rsbsvs	r4, r5, #-939524096	; 0xc8000000
  78:	45444965 	strbmi	r4, [r4, #-2405]	; 0xfffff69b
  7c:	6972442f 	ldmdbvs	r2!, {r0, r1, r2, r3, r5, sl, lr}^
  80:	73726576 	cmnvc	r2, #494927872	; 0x1d800000
  84:	4c41482f 	mcrrmi	8, 2, r4, r1, cr15
  88:	636e492f 	cmnvs	lr, #770048	; 0xbc000
  8c:	616d0000 	cmnvs	sp, r0
  90:	632e6e69 			; <UNDEFINED> instruction: 0x632e6e69
  94:	00000100 	andeq	r0, r0, r0, lsl #2
  98:	74616c50 	strbtvc	r6, [r1], #-3152	; 0xfffff3b0
  9c:	6d726f66 	ldclvs	15, cr6, [r2, #-408]!	; 0xfffffe68
  a0:	7079545f 	rsbsvc	r5, r9, pc, asr r4
  a4:	682e7365 	stmdavs	lr!, {r0, r2, r5, r6, r8, r9, ip, sp, lr}
  a8:	00000200 	andeq	r0, r0, r0, lsl #4
  ac:	334d5453 	movtcc	r5, #54355	; 0xd453
  b0:	30314632 	eorscc	r4, r1, r2, lsr r6
  b4:	2e365833 	mrccs	8, 1, r5, cr6, cr3, {1}
  b8:	00020068 	andeq	r0, r2, r8, rrx
  bc:	54584500 	ldrbpl	r4, [r8], #-1280	; 0xfffffb00
  c0:	00682e49 	rsbeq	r2, r8, r9, asr #28
  c4:	47000002 	strmi	r0, [r0, -r2]
  c8:	2e4f4950 			; <UNDEFINED> instruction: 0x2e4f4950
  cc:	00020068 	andeq	r0, r2, r8, rrx
  d0:	44434c00 	strbmi	r4, [r3], #-3072	; 0xfffff400
  d4:	0300682e 	movweq	r6, #2094	; 0x82e
  d8:	05000000 	streq	r0, [r0, #-0]
  dc:	02050001 	andeq	r0, r5, #1
  e0:	08000170 	stmdaeq	r0, {r4, r5, r6, r8}
  e4:	05012d03 	streq	r2, [r1, #-3331]	; 0xfffff2fd
  e8:	69693002 	stmdbvs	r9!, {r1, ip, sp}^
  ec:	02670105 	rsbeq	r0, r7, #1073741825	; 0x40000001
  f0:	01010006 	tsteq	r1, r6
  f4:	05000105 	streq	r0, [r0, #-261]	; 0xfffffefb
  f8:	0001a402 	andeq	sl, r1, r2, lsl #8
  fc:	00cb0308 	sbceq	r0, fp, r8, lsl #6
 100:	59020501 	stmdbpl	r2, {r0, r8, sl}
 104:	11030105 	tstne	r3, r5, lsl #2
 108:	03030558 	movweq	r0, #13656	; 0x3558
 10c:	24872072 	strcs	r2, [r7], #114	; 0x72
 110:	22010569 	andcs	r0, r1, #440401920	; 0x1a400000
 114:	01000502 	tsteq	r0, r2, lsl #10
 118:	00010501 	andeq	r0, r1, r1, lsl #10
 11c:	01e40205 	mvneq	r0, r5, lsl #4
 120:	e0030800 	and	r0, r3, r0, lsl #16
 124:	0e050100 	adfeqs	f0, f5, f0
 128:	41130530 	tstmi	r3, r0, lsr r5
 12c:	053e0e05 	ldreq	r0, [lr, #-3589]!	; 0xfffff1fb
 130:	01053d0c 	tsteq	r5, ip, lsl #26
 134:	0008023f 	andeq	r0, r8, pc, lsr r2
 138:	01050101 	tsteq	r5, r1, lsl #2
 13c:	10020500 	andne	r0, r2, r0, lsl #10
 140:	03080002 	movweq	r0, #32770	; 0x8002
 144:	050100f0 	streq	r0, [r1, #-240]	; 0xffffff10
 148:	0c05670a 	stceq	7, cr6, [r5], {10}
 14c:	2f01053c 	svccs	0x0001053c
 150:	01000502 	tsteq	r0, r2, lsl #10
 154:	00010501 	andeq	r0, r1, r1, lsl #10
 158:	02300205 	eorseq	r0, r0, #1342177280	; 0x50000000
 15c:	f5030800 			; <UNDEFINED> instruction: 0xf5030800
 160:	0a050100 	beq	140568 <_Min_Stack_Size+0x140168>
 164:	3c0c0575 	cfstr32cc	mvfx0, [ip], {117}	; 0x75
 168:	052e0e05 	streq	r0, [lr, #-3589]!	; 0xfffff1fb
 16c:	05022f01 	streq	r2, [r2, #-3841]	; 0xfffff0ff
 170:	05010100 	streq	r0, [r1, #-256]	; 0xffffff00
 174:	02050001 	andeq	r0, r5, #1
 178:	08000258 	stmdaeq	r0, {r3, r4, r6, r9}
 17c:	0100fa03 	tsteq	r0, r3, lsl #20	; <UNPREDICTABLE>
 180:	05301205 	ldreq	r1, [r0, #-517]!	; 0xfffffdfb
 184:	18054a09 	stmdane	r5, {r0, r3, r9, fp, lr}
 188:	3c0f0531 	cfstr32cc	mvfx0, [pc], {49}	; 0x31
 18c:	052f1e05 	streq	r1, [pc, #-3589]!	; fffff38f <_estack+0xdfffcb8f>
 190:	1e053c0f 	cdpne	12, 0, cr3, cr5, cr15, {0}
 194:	3c0f0531 	cfstr32cc	mvfx0, [pc], {49}	; 0x31
 198:	052f1e05 	streq	r1, [pc, #-3589]!	; fffff39b <_estack+0xdfffcb9b>
 19c:	03053c0f 	movweq	r3, #23567	; 0x5c0f
 1a0:	22110532 	andscs	r0, r1, #209715200	; 0xc800000
 1a4:	052e0505 	streq	r0, [lr, #-1285]!	; 0xfffffafb
 1a8:	855b3104 	ldrbhi	r3, [fp, #-260]	; 0xfffffefc
 1ac:	053e1105 	ldreq	r1, [lr, #-261]!	; 0xfffffefb
 1b0:	0405660f 	streq	r6, [r5], #-1551	; 0xfffff9f1
 1b4:	1605233f 			; <UNDEFINED> instruction: 0x1605233f
 1b8:	2e0a0592 	mcrcs	5, 0, r0, cr10, cr2, {4}
 1bc:	5b310405 	blpl	c411d8 <_Min_Stack_Size+0xc40dd8>
 1c0:	3e110585 	cdpcc	5, 1, cr0, cr1, cr5, {4}
 1c4:	05740f05 	ldrbeq	r0, [r4, #-3845]!	; 0xfffff0fb
 1c8:	05233f04 	streq	r3, [r3, #-3844]!	; 0xfffff0fc
 1cc:	825a0303 	subshi	r0, sl, #201326592	; 0xc000000
 1d0:	01010008 	tsteq	r1, r8
 1d4:	05000105 	streq	r0, [r0, #-261]	; 0xfffffefb
 1d8:	00035002 	andeq	r5, r3, r2
 1dc:	01b40308 			; <UNDEFINED> instruction: 0x01b40308
 1e0:	2f020501 	svccs	0x00020501
 1e4:	023d0105 	eorseq	r0, sp, #1073741825	; 0x40000001
 1e8:	01010002 	tsteq	r1, r2
 1ec:	05000105 	streq	r0, [r0, #-261]	; 0xfffffefb
 1f0:	00036002 	andeq	r6, r3, r2
 1f4:	01b90308 			; <UNDEFINED> instruction: 0x01b90308
 1f8:	3d020501 	cfstr32cc	mvfx0, [r2, #-4]
 1fc:	05331405 	ldreq	r1, [r3, #-1029]!	; 0xfffffbfb
 200:	12056713 	andne	r6, r5, #4980736	; 0x4c0000
 204:	2f18052f 	svccs	0x0018052f
 208:	5a2f0205 	bpl	bc0a24 <_Min_Stack_Size+0xbc0624>
 20c:	05330605 	ldreq	r0, [r3, #-1541]!	; 0xfffff9fb
 210:	0d052e05 	stceq	14, cr2, [r5, #-20]	; 0xffffffec
 214:	3a050530 	bcc	1416dc <_Min_Stack_Size+0x1412dc>
 218:	01000702 	tsteq	r0, r2, lsl #14
 21c:	00008001 	andeq	r8, r0, r1
 220:	39000300 	stmdbcc	r0, {r8, r9}
 224:	02000000 	andeq	r0, r0, #0
 228:	0d0efb01 	vstreq	d15, [lr, #-4]
 22c:	01010100 	mrseq	r0, (UNDEF: 17)
 230:	00000001 	andeq	r0, r0, r1
 234:	01000001 	tsteq	r0, r1
 238:	532f2e2e 			; <UNDEFINED> instruction: 0x532f2e2e
 23c:	74726174 	ldrbtvc	r6, [r2], #-372	; 0xfffffe8c
 240:	00007075 	andeq	r7, r0, r5, ror r0
 244:	72617473 	rsbvc	r7, r1, #1929379840	; 0x73000000
 248:	5f707574 	svcpl	0x00707574
 24c:	336d7473 	cmncc	sp, #1929379840	; 0x73000000
 250:	30316632 	eorscc	r6, r1, r2, lsr r6
 254:	74366333 	ldrtvc	r6, [r6], #-819	; 0xfffffccd
 258:	00732e78 	rsbseq	r2, r3, r8, ror lr
 25c:	00000001 	andeq	r0, r0, r1
 260:	ac020500 	cfstr32ge	mvfx0, [r2], {-0}
 264:	03080003 	movweq	r0, #32771	; 0x8003
 268:	22210139 	eorcs	r0, r1, #1073741838	; 0x4000000e
 26c:	21212131 			; <UNDEFINED> instruction: 0x21212131
 270:	21212321 			; <UNDEFINED> instruction: 0x21212321
 274:	23212123 			; <UNDEFINED> instruction: 0x23212123
 278:	23212121 			; <UNDEFINED> instruction: 0x23212121
 27c:	23212321 			; <UNDEFINED> instruction: 0x23212321
 280:	56033130 			; <UNDEFINED> instruction: 0x56033130
 284:	2f2f3420 	svccs	0x002f3420
 288:	2f2e0f03 	svccs	0x002e0f03
 28c:	01000202 	tsteq	r0, r2, lsl #4
 290:	02050001 	andeq	r0, r5, #1
 294:	080003fc 	stmdaeq	r0, {r2, r3, r4, r5, r6, r7, r8, r9}
 298:	0100f203 	tsteq	r0, r3, lsl #4	; <UNPREDICTABLE>
 29c:	01000102 	tsteq	r0, r2, lsl #2
 2a0:	00046001 	andeq	r6, r4, r1
 2a4:	ac000300 	stcge	3, cr0, [r0], {-0}
 2a8:	02000000 	andeq	r0, r0, #0
 2ac:	0d0efb01 	vstreq	d15, [lr, #-4]
 2b0:	01010100 	mrseq	r0, (UNDEF: 17)
 2b4:	00000001 	andeq	r0, r0, r1
 2b8:	01000001 	tsteq	r0, r1
 2bc:	532f2e2e 			; <UNDEFINED> instruction: 0x532f2e2e
 2c0:	32336d74 	eorscc	r6, r3, #116, 26	; 0x1d00
 2c4:	3031465f 	eorscc	r4, r1, pc, asr r6
 2c8:	5f364333 	svcpl	0x00364333
 2cc:	76697244 	strbtvc	r7, [r9], -r4, asr #4
 2d0:	00737265 	rsbseq	r7, r3, r5, ror #4
 2d4:	552f3a43 	strpl	r3, [pc, #-2627]!	; fffff899 <_estack+0xdfffd099>
 2d8:	73726573 	cmnvc	r2, #482344960	; 0x1cc00000
 2dc:	6d73692f 			; <UNDEFINED> instruction: 0x6d73692f
 2e0:	2f6c6961 	svccs	0x006c6961
 2e4:	334d5453 	movtcc	r5, #54355	; 0xd453
 2e8:	62754332 	rsbsvs	r4, r5, #-939524096	; 0xc8000000
 2ec:	45444965 	strbmi	r4, [r4, #-2405]	; 0xfffff69b
 2f0:	6972442f 	ldmdbvs	r2!, {r0, r1, r2, r3, r5, sl, lr}^
 2f4:	73726576 	cmnvc	r2, #494927872	; 0x1d800000
 2f8:	6d74532f 	ldclvs	3, cr5, [r4, #-188]!	; 0xffffff44
 2fc:	465f3233 			; <UNDEFINED> instruction: 0x465f3233
 300:	43333031 	teqmi	r3, #49	; 0x31
 304:	72445f36 	subvc	r5, r4, #54, 30	; 0xd8
 308:	72657669 	rsbvc	r7, r5, #110100480	; 0x6900000
 30c:	6e492f73 	mcrvs	15, 2, r2, cr9, cr3, {3}
 310:	45000063 	strmi	r0, [r0, #-99]	; 0xffffff9d
 314:	2e495458 	mcrcs	4, 2, r5, cr9, cr8, {2}
 318:	00010063 	andeq	r0, r1, r3, rrx
 31c:	616c5000 	cmnvs	ip, r0
 320:	726f6674 	rsbvc	r6, pc, #116, 12	; 0x7400000
 324:	79545f6d 	ldmdbvc	r4, {r0, r2, r3, r5, r6, r8, r9, sl, fp, ip, lr}^
 328:	2e736570 	mrccs	5, 3, r6, cr3, cr0, {3}
 32c:	00020068 	andeq	r0, r2, r8, rrx
 330:	4d545300 	ldclmi	3, cr5, [r4, #-0]
 334:	31463233 	cmpcc	r6, r3, lsr r2
 338:	36583330 			; <UNDEFINED> instruction: 0x36583330
 33c:	0200682e 	andeq	r6, r0, #3014656	; 0x2e0000
 340:	50470000 	subpl	r0, r7, r0
 344:	682e4f49 	stmdavs	lr!, {r0, r3, r6, r8, r9, sl, fp, lr}
 348:	00000200 	andeq	r0, r0, r0, lsl #4
 34c:	49545845 	ldmdbmi	r4, {r0, r2, r6, fp, ip, lr}^
 350:	0200682e 	andeq	r6, r0, #3014656	; 0x2e0000
 354:	05000000 	streq	r0, [r0, #-0]
 358:	02050001 	andeq	r0, r5, #1
 35c:	080003fe 	stmdaeq	r0, {r1, r2, r3, r4, r5, r6, r7, r8, r9}
 360:	05012103 	streq	r2, [r1, #-259]	; 0xfffffefd
 364:	01054b02 	tsteq	r5, r2, lsl #22
 368:	0004023d 	andeq	r0, r4, sp, lsr r2
 36c:	01050101 	tsteq	r5, r1, lsl #2
 370:	00020500 	andeq	r0, r2, r0, lsl #10
 374:	03000000 	movweq	r0, #0
 378:	0205012c 	andeq	r0, r5, #44, 2
 37c:	3d01054b 	cfstr32cc	mvfx0, [r1, #-300]	; 0xfffffed4
 380:	01000402 	tsteq	r0, r2, lsl #8
 384:	00010501 	andeq	r0, r1, r1, lsl #10
 388:	00000205 	andeq	r0, r0, r5, lsl #4
 38c:	37030000 	strcc	r0, [r3, -r0]
 390:	2f060501 	svccs	0x00060501
 394:	05200c05 	streq	r0, [r0, #-3077]!	; 0xfffff3fb
 398:	0c052f06 	stceq	15, cr2, [r5], {6}
 39c:	2f060520 	svccs	0x00060520
 3a0:	05200d05 	streq	r0, [r0, #-3333]!	; 0xfffff2fb
 3a4:	0d052f06 	stceq	15, cr2, [r5, #-24]	; 0xffffffe8
 3a8:	2f060520 	svccs	0x00060520
 3ac:	05200b05 	streq	r0, [r0, #-2821]!	; 0xfffff4fb
 3b0:	67673f02 	strbvs	r3, [r7, -r2, lsl #30]!
 3b4:	67676767 	strbvs	r6, [r7, -r7, ror #14]!
 3b8:	02670105 	rsbeq	r0, r7, #1073741825	; 0x40000001
 3bc:	0101000a 	tsteq	r1, sl
 3c0:	05000105 	streq	r0, [r0, #-261]	; 0xfffffefb
 3c4:	00041402 	andeq	r1, r4, r2, lsl #8
 3c8:	00cf0308 	sbceq	r0, pc, r8, lsl #6
 3cc:	4d300501 	cfldr32mi	mvfx0, [r0, #-4]!
 3d0:	052e1905 	streq	r1, [lr, #-2309]!	; 0xfffff6fb
 3d4:	02052117 	andeq	r2, r5, #-1073741819	; 0xc0000005
 3d8:	8534052f 	ldrhi	r0, [r4, #-1327]!	; 0xfffffad1
 3dc:	052e0a05 	streq	r0, [lr, #-2565]!	; 0xfffff5fb
 3e0:	0a053f38 	beq	1500c8 <_Min_Stack_Size+0x14fcc8>
 3e4:	6922052e 	stmdbvs	r2!, {r1, r2, r3, r5, r8, sl}
 3e8:	05582b05 	ldrbeq	r2, [r8, #-2821]	; 0xfffff4fb
 3ec:	22054a25 	andcs	r4, r5, #151552	; 0x25000
 3f0:	2705692e 	strcs	r6, [r5, -lr, lsr #18]
 3f4:	2e5f0558 	mrccs	5, 2, r0, cr15, cr8, {2}
 3f8:	02002705 	andeq	r2, r0, #1310720	; 0x140000
 3fc:	053c0104 	ldreq	r0, [ip, #-260]!	; 0xfffffefc
 400:	0402005f 	streq	r0, [r2], #-95	; 0xffffffa1
 404:	27052e01 	strcs	r2, [r5, -r1, lsl #28]
 408:	03040200 	movweq	r0, #16896	; 0x4200
 40c:	005f053c 	subseq	r0, pc, ip, lsr r5	; <UNPREDICTABLE>
 410:	2e030402 	cdpcs	4, 0, cr0, cr3, cr2, {0}
 414:	02002705 	andeq	r2, r0, #1310720	; 0x140000
 418:	053c0504 	ldreq	r0, [ip, #-1284]!	; 0xfffffafc
 41c:	0402005f 	streq	r0, [r2], #-95	; 0xffffffa1
 420:	02002e05 	andeq	r2, r0, #5, 28	; 0x50
 424:	3c060704 	stccc	7, cr0, [r6], {4}
 428:	08040200 	stmdaeq	r4, {r9}
 42c:	0402002e 	streq	r0, [r2], #-46	; 0xffffffd2
 430:	02002e06 	andeq	r2, r0, #6, 28	; 0x60
 434:	002e0404 	eoreq	r0, lr, r4, lsl #8
 438:	2e020402 	cdpcs	4, 0, cr0, cr2, cr2, {0}
 43c:	02006605 	andeq	r6, r0, #5242880	; 0x500000
 440:	20061004 	andcs	r1, r6, r4
 444:	02002205 	andeq	r2, r0, #1342177280	; 0x50000000
 448:	053c1004 	ldreq	r1, [ip, #-4]!
 44c:	04020002 	streq	r0, [r2], #-2
 450:	02006a10 	andeq	r6, r0, #16, 20	; 0x10000
 454:	05bb1004 	ldreq	r1, [fp, #4]!
 458:	04020010 	streq	r0, [r2], #-16
 45c:	0405bc10 	streq	fp, [r5], #-3088	; 0xfffff3f0
 460:	10040200 	andne	r0, r4, r0, lsl #4
 464:	3003052e 	andcc	r0, r3, lr, lsr #10
 468:	05bc1505 	ldreq	r1, [ip, #1285]!	; 0x505
 46c:	03052e09 	movweq	r2, #24073	; 0x5e09
 470:	bc150530 	cfldr32lt	mvfx0, [r5], {48}	; 0x30
 474:	052e0905 	streq	r0, [lr, #-2309]!	; 0xfffff6fb
 478:	05ad3003 	streq	r3, [sp, #3]!
 47c:	4505af21 	strmi	sl, [r5, #-3873]	; 0xfffff0df
 480:	2e38053c 	mrccs	5, 1, r0, cr8, cr12, {1}
 484:	05431005 	strbeq	r1, [r3, #-5]
 488:	03052e04 	movweq	r2, #24068	; 0x5e04
 48c:	0105af30 	tsteq	r5, r0, lsr pc
 490:	05580b03 	ldrbeq	r0, [r8, #-2819]	; 0xfffff4fd
 494:	20770315 	rsbscs	r0, r7, r5, lsl r3
 498:	052e0905 	streq	r0, [lr, #-2309]!	; 0xfffff6fb
 49c:	05af3003 	streq	r3, [pc, #3]!	; 4a7 <_Min_Stack_Size+0xa7>
 4a0:	13025c01 	movwne	r5, #11265	; 0x2c01
 4a4:	05010100 	streq	r0, [r1, #-256]	; 0xffffff00
 4a8:	02050001 	andeq	r0, r5, #1
 4ac:	080005f4 	stmdaeq	r0, {r2, r4, r5, r6, r7, r8, sl}
 4b0:	01019403 	tsteq	r1, r3, lsl #8
 4b4:	05590205 	ldrbeq	r0, [r9, #-517]	; 0xfffffdfb
 4b8:	15270203 	strne	r0, [r7, #-515]!	; 0xfffffdfd
 4bc:	23672367 	cmncs	r7, #-1677721599	; 0x9c000001
 4c0:	23672367 	cmncs	r7, #-1677721599	; 0x9c000001
 4c4:	28672767 	stmdacs	r7!, {r0, r1, r2, r5, r6, r8, r9, sl, sp}^
 4c8:	22010567 	andcs	r0, r1, #432013312	; 0x19c00000
 4cc:	01000902 	tsteq	r0, r2, lsl #18
 4d0:	00010501 	andeq	r0, r1, r1, lsl #10
 4d4:	06c00205 	strbeq	r0, [r0], r5, lsl #4
 4d8:	c5030800 	strgt	r0, [r3, #-2048]	; 0xfffff800
 4dc:	02050101 	andeq	r0, r5, #1073741824	; 0x40000000
 4e0:	02030559 	andeq	r0, r3, #373293056	; 0x16400000
 4e4:	23671527 	cmncs	r7, #163577856	; 0x9c00000
 4e8:	23672367 	cmncs	r7, #-1677721599	; 0x9c000001
 4ec:	27672367 	strbcs	r2, [r7, -r7, ror #6]!
 4f0:	05672867 	strbeq	r2, [r7, #-2151]!	; 0xfffff799
 4f4:	09022201 	stmdbeq	r2, {r0, r9, sp}
 4f8:	05010100 	streq	r0, [r1, #-256]	; 0xffffff00
 4fc:	02050001 	andeq	r0, r5, #1
 500:	0800078c 	stmdaeq	r0, {r2, r3, r7, r8, r9, sl}
 504:	0101f003 	tsteq	r1, r3	; <UNPREDICTABLE>
 508:	05300205 	ldreq	r0, [r0, #-517]!	; 0xfffffdfb
 50c:	02056a0b 	andeq	r6, r5, #45056	; 0xb000
 510:	2101052e 	tstcs	r1, lr, lsr #10
 514:	01000702 	tsteq	r0, r2, lsl #14
 518:	00010501 	andeq	r0, r1, r1, lsl #10
 51c:	07b00205 	ldreq	r0, [r0, r5, lsl #4]!
 520:	fa030800 	blx	c2528 <_Min_Stack_Size+0xc2128>
 524:	02050101 	andeq	r0, r5, #1073741824	; 0x40000000
 528:	6a0b0530 	bvs	2c19f0 <_Min_Stack_Size+0x2c15f0>
 52c:	052e0205 	streq	r0, [lr, #-517]!	; 0xfffffdfb
 530:	07022101 	streq	r2, [r2, -r1, lsl #2]
 534:	05010100 	streq	r0, [r1, #-256]	; 0xffffff00
 538:	02050001 	andeq	r0, r5, #1
 53c:	080007d4 	stmdaeq	r0, {r2, r4, r6, r7, r8, r9, sl}
 540:	01028303 	tsteq	r2, r3, lsl #6
 544:	05300205 	ldreq	r0, [r0, #-517]!	; 0xfffffdfb
 548:	02056a0b 	andeq	r6, r5, #45056	; 0xb000
 54c:	2101052e 	tstcs	r1, lr, lsr #10
 550:	01000702 	tsteq	r0, r2, lsl #14
 554:	00010501 	andeq	r0, r1, r1, lsl #10
 558:	07f80205 	ldrbeq	r0, [r8, r5, lsl #4]!
 55c:	8c030800 	stchi	8, cr0, [r3], {-0}
 560:	02050102 	andeq	r0, r5, #-2147483648	; 0x80000000
 564:	6a0b0530 	bvs	2c1a2c <_Min_Stack_Size+0x2c162c>
 568:	052e0205 	streq	r0, [lr, #-517]!	; 0xfffffdfb
 56c:	07022101 	streq	r2, [r2, -r1, lsl #2]
 570:	05010100 	streq	r0, [r1, #-256]	; 0xffffff00
 574:	02050001 	andeq	r0, r5, #1
 578:	0800081c 	stmdaeq	r0, {r2, r3, r4, fp}
 57c:	01029503 	tsteq	r2, r3, lsl #10
 580:	05300205 	ldreq	r0, [r0, #-517]!	; 0xfffffdfb
 584:	02056a0b 	andeq	r6, r5, #45056	; 0xb000
 588:	2101052e 	tstcs	r1, lr, lsr #10
 58c:	01000702 	tsteq	r0, r2, lsl #14
 590:	00010501 	andeq	r0, r1, r1, lsl #10
 594:	08400205 	stmdaeq	r0, {r0, r2, r9}^
 598:	9e030800 	cdpls	8, 0, cr0, cr3, cr0, {0}
 59c:	09050102 	stmdbeq	r5, {r1, r8}
 5a0:	2e0e052f 	cfsh32cs	mvfx0, mvfx14, #31
 5a4:	052e0405 	streq	r0, [lr, #-1029]!	; 0xfffffbfb
 5a8:	04020016 	streq	r0, [r2], #-22	; 0xffffffea
 5ac:	37052e01 	strcc	r2, [r5, -r1, lsl #28]
 5b0:	01040200 	mrseq	r0, R12_usr
 5b4:	002e0566 	eoreq	r0, lr, r6, ror #10
 5b8:	2e010402 	cdpcs	4, 0, cr0, cr1, cr2, {0}
 5bc:	05210905 	streq	r0, [r1, #-2309]!	; 0xfffff6fb
 5c0:	04052e0e 	streq	r2, [r5], #-3598	; 0xfffff1f2
 5c4:	0016052e 	andseq	r0, r6, lr, lsr #10
 5c8:	2e010402 	cdpcs	4, 0, cr0, cr1, cr2, {0}
 5cc:	02003705 	andeq	r3, r0, #1310720	; 0x140000
 5d0:	05660104 	strbeq	r0, [r6, #-260]!	; 0xfffffefc
 5d4:	0402002e 	streq	r0, [r2], #-46	; 0xffffffd2
 5d8:	09052e01 	stmdbeq	r5, {r0, r9, sl, fp, sp}
 5dc:	2e0e0521 	cfsh32cs	mvfx0, mvfx14, #17
 5e0:	052e0405 	streq	r0, [lr, #-1029]!	; 0xfffffbfb
 5e4:	04020016 	streq	r0, [r2], #-22	; 0xffffffea
 5e8:	37052e01 	strcc	r2, [r5, -r1, lsl #28]
 5ec:	01040200 	mrseq	r0, R12_usr
 5f0:	002e0566 	eoreq	r0, lr, r6, ror #10
 5f4:	2e010402 	cdpcs	4, 0, cr0, cr1, cr2, {0}
 5f8:	05210905 	streq	r0, [r1, #-2309]!	; 0xfffff6fb
 5fc:	04052e0e 	streq	r2, [r5], #-3598	; 0xfffff1f2
 600:	0016052e 	andseq	r0, r6, lr, lsr #10
 604:	2e010402 	cdpcs	4, 0, cr0, cr1, cr2, {0}
 608:	02003705 	andeq	r3, r0, #1310720	; 0x140000
 60c:	05660104 	strbeq	r0, [r6, #-260]!	; 0xfffffefc
 610:	0402002e 	streq	r0, [r2], #-46	; 0xffffffd2
 614:	09052e01 	stmdbeq	r5, {r0, r9, sl, fp, sp}
 618:	2e0e0521 	cfsh32cs	mvfx0, mvfx14, #17
 61c:	052e0405 	streq	r0, [lr, #-1029]!	; 0xfffffbfb
 620:	04020016 	streq	r0, [r2], #-22	; 0xffffffea
 624:	37052e01 	strcc	r2, [r5, -r1, lsl #28]
 628:	01040200 	mrseq	r0, R12_usr
 62c:	002e0566 	eoreq	r0, lr, r6, ror #10
 630:	2e010402 	cdpcs	4, 0, cr0, cr1, cr2, {0}
 634:	02210105 	eoreq	r0, r1, #1073741825	; 0x40000001
 638:	01010007 	tsteq	r1, r7
 63c:	05000105 	streq	r0, [r0, #-261]	; 0xfffffefb
 640:	0008e802 	andeq	lr, r8, r2, lsl #16
 644:	02a60308 	adceq	r0, r6, #8, 6	; 0x20000000
 648:	2f090501 	svccs	0x00090501
 64c:	052e0e05 	streq	r0, [lr, #-3589]!	; 0xfffff1fb
 650:	17052e04 	strne	r2, [r5, -r4, lsl #28]
 654:	01040200 	mrseq	r0, R12_usr
 658:	0039052e 	eorseq	r0, r9, lr, lsr #10
 65c:	66010402 	strvs	r0, [r1], -r2, lsl #8
 660:	02003005 	andeq	r3, r0, #5
 664:	052e0104 	streq	r0, [lr, #-260]!	; 0xfffffefc
 668:	0e052109 	adfeqs	f2, f5, #1.0
 66c:	2e04052e 	cfsh32cs	mvfx0, mvfx4, #30
 670:	02001705 	andeq	r1, r0, #1310720	; 0x140000
 674:	052e0104 	streq	r0, [lr, #-260]!	; 0xfffffefc
 678:	04020039 	streq	r0, [r2], #-57	; 0xffffffc7
 67c:	30056601 	andcc	r6, r5, r1, lsl #12
 680:	01040200 	mrseq	r0, R12_usr
 684:	2109052e 	tstcs	r9, lr, lsr #10
 688:	052e0e05 	streq	r0, [lr, #-3589]!	; 0xfffff1fb
 68c:	17052e04 	strne	r2, [r5, -r4, lsl #28]
 690:	01040200 	mrseq	r0, R12_usr
 694:	0039052e 	eorseq	r0, r9, lr, lsr #10
 698:	66010402 	strvs	r0, [r1], -r2, lsl #8
 69c:	02003005 	andeq	r3, r0, #5
 6a0:	052e0104 	streq	r0, [lr, #-260]!	; 0xfffffefc
 6a4:	0e052109 	adfeqs	f2, f5, #1.0
 6a8:	2e04052e 	cfsh32cs	mvfx0, mvfx4, #30
 6ac:	02001705 	andeq	r1, r0, #1310720	; 0x140000
 6b0:	052e0104 	streq	r0, [lr, #-260]!	; 0xfffffefc
 6b4:	04020039 	streq	r0, [r2], #-57	; 0xffffffc7
 6b8:	30056601 	andcc	r6, r5, r1, lsl #12
 6bc:	01040200 	mrseq	r0, R12_usr
 6c0:	2109052e 	tstcs	r9, lr, lsr #10
 6c4:	052e0e05 	streq	r0, [lr, #-3589]!	; 0xfffff1fb
 6c8:	17052e04 	strne	r2, [r5, -r4, lsl #28]
 6cc:	01040200 	mrseq	r0, R12_usr
 6d0:	0039052e 	eorseq	r0, r9, lr, lsr #10
 6d4:	66010402 	strvs	r0, [r1], -r2, lsl #8
 6d8:	02003005 	andeq	r3, r0, #5
 6dc:	052e0104 	streq	r0, [lr, #-260]!	; 0xfffffefc
 6e0:	0e052109 	adfeqs	f2, f5, #1.0
 6e4:	2e04052e 	cfsh32cs	mvfx0, mvfx4, #30
 6e8:	02001705 	andeq	r1, r0, #1310720	; 0x140000
 6ec:	052e0104 	streq	r0, [lr, #-260]!	; 0xfffffefc
 6f0:	04020039 	streq	r0, [r2], #-57	; 0xffffffc7
 6f4:	30056601 	andcc	r6, r5, r1, lsl #12
 6f8:	01040200 	mrseq	r0, R12_usr
 6fc:	2101052e 	tstcs	r1, lr, lsr #10
 700:	01000602 	tsteq	r0, r2, lsl #12
 704:	00034401 	andeq	r4, r3, r1, lsl #8
 708:	a2000300 	andge	r0, r0, #0, 6
 70c:	02000000 	andeq	r0, r0, #0
 710:	0d0efb01 	vstreq	d15, [lr, #-4]
 714:	01010100 	mrseq	r0, (UNDEF: 17)
 718:	00000001 	andeq	r0, r0, r1
 71c:	01000001 	tsteq	r0, r1
 720:	532f2e2e 			; <UNDEFINED> instruction: 0x532f2e2e
 724:	32336d74 	eorscc	r6, r3, #116, 26	; 0x1d00
 728:	3031465f 	eorscc	r4, r1, pc, asr r6
 72c:	5f364333 	svcpl	0x00364333
 730:	76697244 	strbtvc	r7, [r9], -r4, asr #4
 734:	00737265 	rsbseq	r7, r3, r5, ror #4
 738:	552f3a43 	strpl	r3, [pc, #-2627]!	; fffffcfd <_estack+0xdfffd4fd>
 73c:	73726573 	cmnvc	r2, #482344960	; 0x1cc00000
 740:	6d73692f 			; <UNDEFINED> instruction: 0x6d73692f
 744:	2f6c6961 	svccs	0x006c6961
 748:	334d5453 	movtcc	r5, #54355	; 0xd453
 74c:	62754332 	rsbsvs	r4, r5, #-939524096	; 0xc8000000
 750:	45444965 	strbmi	r4, [r4, #-2405]	; 0xfffff69b
 754:	6972442f 	ldmdbvs	r2!, {r0, r1, r2, r3, r5, sl, lr}^
 758:	73726576 	cmnvc	r2, #494927872	; 0x1d800000
 75c:	6d74532f 	ldclvs	3, cr5, [r4, #-188]!	; 0xffffff44
 760:	465f3233 			; <UNDEFINED> instruction: 0x465f3233
 764:	43333031 	teqmi	r3, #49	; 0x31
 768:	72445f36 	subvc	r5, r4, #54, 30	; 0xd8
 76c:	72657669 	rsbvc	r7, r5, #110100480	; 0x6900000
 770:	6e492f73 	mcrvs	15, 2, r2, cr9, cr3, {3}
 774:	47000063 	strmi	r0, [r0, -r3, rrx]
 778:	2e4f4950 			; <UNDEFINED> instruction: 0x2e4f4950
 77c:	00010063 	andeq	r0, r1, r3, rrx
 780:	616c5000 	cmnvs	ip, r0
 784:	726f6674 	rsbvc	r6, pc, #116, 12	; 0x7400000
 788:	79545f6d 	ldmdbvc	r4, {r0, r2, r3, r5, r6, r8, r9, sl, fp, ip, lr}^
 78c:	2e736570 	mrccs	5, 3, r6, cr3, cr0, {3}
 790:	00020068 	andeq	r0, r2, r8, rrx
 794:	4d545300 	ldclmi	3, cr5, [r4, #-0]
 798:	31463233 	cmpcc	r6, r3, lsr r2
 79c:	36583330 			; <UNDEFINED> instruction: 0x36583330
 7a0:	0200682e 	andeq	r6, r0, #3014656	; 0x2e0000
 7a4:	50470000 	subpl	r0, r7, r0
 7a8:	682e4f49 	stmdavs	lr!, {r0, r3, r6, r8, r9, sl, fp, lr}
 7ac:	00000200 	andeq	r0, r0, r0, lsl #4
 7b0:	00010500 	andeq	r0, r1, r0, lsl #10
 7b4:	09ac0205 	stmibeq	ip!, {r0, r2, r9}
 7b8:	051a0800 	ldreq	r0, [sl, #-2048]	; 0xfffff800
 7bc:	0a055902 	beq	156bcc <_Min_Stack_Size+0x1567cc>
 7c0:	16018602 	strne	r8, [r1], -r2, lsl #12
 7c4:	33333333 	teqcc	r3, #-872415232	; 0xcc000000
 7c8:	05333333 	ldreq	r3, [r3, #-819]!	; 0xfffffccd
 7cc:	01053109 	tsteq	r5, r9, lsl #2
 7d0:	00050221 	andeq	r0, r5, r1, lsr #4
 7d4:	01050101 	tsteq	r5, r1, lsl #2
 7d8:	f0020500 			; <UNDEFINED> instruction: 0xf0020500
 7dc:	0308000a 	movweq	r0, #32778	; 0x800a
 7e0:	050100c0 	streq	r0, [r1, #-192]	; 0xffffff40
 7e4:	0a055b15 	beq	157440 <_Min_Stack_Size+0x157040>
 7e8:	301e052f 	andscc	r0, lr, pc, lsr #10
 7ec:	002e1205 	eoreq	r1, lr, r5, lsl #4
 7f0:	06010402 	streq	r0, [r1], -r2, lsl #8
 7f4:	0402002e 	streq	r0, [r2], #-46	; 0xffffffd2
 7f8:	02002e02 	andeq	r2, r0, #2, 28
 7fc:	052e0404 	streq	r0, [lr, #-1028]!	; 0xfffffbfc
 800:	04020021 	streq	r0, [r2], #-33	; 0xffffffdf
 804:	05220604 	streq	r0, [r2, #-1540]!	; 0xfffff9fc
 808:	0402001e 	streq	r0, [r2], #-30	; 0xffffffe2
 80c:	18057404 	stmdane	r5, {r2, sl, ip, sp, lr}
 810:	04040200 	streq	r0, [r4], #-512	; 0xfffffe00
 814:	0015052e 	andseq	r0, r5, lr, lsr #10
 818:	20040402 	andcs	r0, r4, r2, lsl #8
 81c:	02000f05 	andeq	r0, r0, #5, 30
 820:	05600404 	strbeq	r0, [r0, #-1028]!	; 0xfffffbfc
 824:	04020004 	streq	r0, [r2], #-4
 828:	41052e04 	tstmi	r5, r4, lsl #28
 82c:	01040200 	mrseq	r0, R12_usr
 830:	0035052e 	eorseq	r0, r5, lr, lsr #10
 834:	2e010402 	cdpcs	4, 0, cr0, cr1, cr2, {0}
 838:	02007305 	andeq	r7, r0, #335544320	; 0x14000000
 83c:	052e0204 	streq	r0, [lr, #-516]!	; 0xfffffdfc
 840:	04020067 	streq	r0, [r2], #-103	; 0xffffff99
 844:	a8052e02 	stmdage	r5, {r1, r9, sl, fp, sp}
 848:	04020001 	streq	r0, [r2], #-1
 84c:	9c052e03 	stcls	14, cr2, [r5], {3}
 850:	04020001 	streq	r0, [r2], #-1
 854:	20052e03 	andcs	r2, r5, r3, lsl #28
 858:	2e2f0536 	mcrcs	5, 1, r0, cr15, cr6, {1}
 85c:	05203505 	streq	r3, [r0, #-1285]!	; 0xfffffafb
 860:	4805203c 	stmdami	r5, {r2, r3, r4, r5, sp}
 864:	2e3c0520 	cfabs64cs	mvdx0, mvdx12
 868:	053c5a05 	ldreq	r5, [ip, #-2565]!	; 0xfffff5fb
 86c:	2605200e 	strcs	r2, [r5], -lr
 870:	2029053d 	eorcs	r0, r9, sp, lsr r5
 874:	05662605 	strbeq	r2, [r6, #-1541]!	; 0xfffff9fb
 878:	03052e16 	movweq	r2, #24086	; 0x5e16
 87c:	03100558 	tsteq	r0, #88, 10	; 0x16000000
 880:	0505200d 	streq	r2, [r5, #-13]
 884:	0045052e 	subeq	r0, r5, lr, lsr #10
 888:	2e010402 	cdpcs	4, 0, cr0, cr1, cr2, {0}
 88c:	02003805 	andeq	r3, r0, #327680	; 0x50000
 890:	052e0104 	streq	r0, [lr, #-260]!	; 0xfffffefc
 894:	3505301f 	strcc	r3, [r5, #-31]	; 0xffffffe1
 898:	203c052e 	eorscs	r0, ip, lr, lsr #10
 89c:	05200f05 	streq	r0, [r0, #-3845]!	; 0xfffff0fb
 8a0:	2a053d27 	bcs	14fd44 <_Min_Stack_Size+0x14f944>
 8a4:	66270520 	strtvs	r0, [r7], -r0, lsr #10
 8a8:	052e1705 	streq	r1, [lr, #-1797]!	; 0xfffff8fb
 8ac:	15055804 	strne	r5, [r5, #-2052]	; 0xfffff7fc
 8b0:	2e0a0522 	cfsh32cs	mvfx0, mvfx10, #18
 8b4:	02004705 	andeq	r4, r0, #1310720	; 0x140000
 8b8:	052e0104 	streq	r0, [lr, #-260]!	; 0xfffffefc
 8bc:	0402003b 	streq	r0, [r2], #-59	; 0xffffffc5
 8c0:	14052e01 	strne	r2, [r5], #-3585	; 0xfffff1ff
 8c4:	2e040530 	cfmv64hrcs	mvdx4, r0
 8c8:	055b1005 	ldrbeq	r1, [fp, #-5]
 8cc:	10052e1d 	andne	r2, r5, sp, lsl lr
 8d0:	3d1e052e 	cfldr32cc	mvfx0, [lr, #-184]	; 0xffffff48
 8d4:	052e3305 	streq	r3, [lr, #-773]!	; 0xfffffcfb
 8d8:	10052038 	andne	r2, r5, r8, lsr r0
 8dc:	3d050520 	cfstr32cc	mvfx0, [r5, #-128]	; 0xffffff80
 8e0:	05221005 	streq	r1, [r2, #-5]!
 8e4:	13052e1e 	movwne	r2, #24094	; 0x5e1e
 8e8:	2010052e 	andscs	r0, r0, lr, lsr #10
 8ec:	053d1f05 	ldreq	r1, [sp, #-3845]!	; 0xfffff0fb
 8f0:	37052e2d 	strcc	r2, [r5, -sp, lsr #28]
 8f4:	203c0520 	eorscs	r0, ip, r0, lsr #10
 8f8:	05201005 	streq	r1, [r0, #-5]!
 8fc:	29053d05 	stmdbcs	r5, {r0, r2, r8, sl, fp, ip, sp}
 900:	202c0522 	eorcs	r0, ip, r2, lsr #10
 904:	05662905 	strbeq	r2, [r6, #-2309]!	; 0xfffff6fb
 908:	04052e19 	streq	r2, [r5], #-3609	; 0xfffff1e7
 90c:	241f0558 	ldrcs	r0, [pc], #-1368	; 914 <_Min_Stack_Size+0x514>
 910:	052e2d05 	streq	r2, [lr, #-3333]!	; 0xfffff2fb
 914:	3e052037 	mcrcc	0, 0, r2, cr5, cr7, {1}
 918:	200f0520 	andcs	r0, pc, r0, lsr #10
 91c:	053d2705 	ldreq	r2, [sp, #-1797]!	; 0xfffff8fb
 920:	2705202a 	strcs	r2, [r5, -sl, lsr #32]
 924:	2e170566 	cfmsc32cs	mvfx0, mvfx7, mvfx6
 928:	025c0105 	subseq	r0, ip, #1073741825	; 0x40000001
 92c:	01010005 	tsteq	r1, r5
 930:	05000105 	streq	r0, [r0, #-261]	; 0xfffffefb
 934:	00000002 	andeq	r0, r0, r2
 938:	018a0300 	orreq	r0, sl, r0, lsl #6
 93c:	03040501 	movweq	r0, #17665	; 0x4501
 940:	11055814 	tstne	r5, r4, lsl r8
 944:	0105674c 	tsteq	r5, ip, asr #14
 948:	05661103 	strbeq	r1, [r6, #-259]!	; 0xfffffefd
 94c:	20710309 	rsbscs	r0, r1, r9, lsl #6
 950:	674c1105 	strbvs	r1, [ip, -r5, lsl #2]
 954:	0c030105 	stfeqs	f0, [r3], {5}
 958:	03090566 	movweq	r0, #38246	; 0x9566
 95c:	11052076 	tstne	r5, r6, ror r0
 960:	0105674c 	tsteq	r5, ip, asr #14
 964:	1b09056d 	blne	241f20 <_Min_Stack_Size+0x241b20>
 968:	674c1105 	strbvs	r1, [ip, -r5, lsl #2]
 96c:	02680105 	rsbeq	r0, r8, #1073741825	; 0x40000001
 970:	01010010 	tsteq	r1, r0, lsl r0
 974:	05000105 	streq	r0, [r0, #-261]	; 0xfffffefb
 978:	00000002 	andeq	r0, r0, r2
 97c:	01bc0300 			; <UNDEFINED> instruction: 0x01bc0300
 980:	670b0501 	strvs	r0, [fp, -r1, lsl #10]
 984:	052e1105 	streq	r1, [lr, #-261]!	; 0xfffffefb
 988:	0a052e04 	beq	14c1a0 <_Min_Stack_Size+0x14bda0>
 98c:	0105302f 	tsteq	r5, pc, lsr #32
 990:	00050221 	andeq	r0, r5, r1, lsr #4
 994:	01050101 	tsteq	r5, r1, lsl #2
 998:	00020500 	andeq	r0, r2, r0, lsl #10
 99c:	03000000 	movweq	r0, #0
 9a0:	050101c4 	streq	r0, [r1, #-452]	; 0xfffffe3c
 9a4:	09054b18 	stmdbeq	r5, {r3, r4, r8, r9, fp, lr}
 9a8:	2101052e 	tstcs	r1, lr, lsr #10
 9ac:	01000502 	tsteq	r0, r2, lsl #10
 9b0:	00010501 	andeq	r0, r1, r1, lsl #10
 9b4:	00000205 	andeq	r0, r0, r5, lsl #4
 9b8:	d1030000 	mrsle	r0, (UNDEF: 3)
 9bc:	04050101 	streq	r0, [r5], #-257	; 0xfffffeff
 9c0:	05820a03 	streq	r0, [r2, #2563]	; 0xa03
 9c4:	0f053f11 	svceq	0x00053f11
 9c8:	03010520 	movweq	r0, #5408	; 0x1520
 9cc:	10052e0b 	andne	r2, r5, fp, lsl #28
 9d0:	200e051f 	andcs	r0, lr, pc, lsl r5
 9d4:	022f0105 	eoreq	r0, pc, #1073741825	; 0x40000001
 9d8:	01010005 	tsteq	r1, r5
 9dc:	05000105 	streq	r0, [r0, #-261]	; 0xfffffefb
 9e0:	00000002 	andeq	r0, r0, r2
 9e4:	01eb0300 	mvneq	r0, r0, lsl #6
 9e8:	670d0501 	strvs	r0, [sp, -r1, lsl #10]
 9ec:	052e1005 	streq	r1, [lr, #-5]!
 9f0:	0105200d 	tsteq	r5, sp
 9f4:	0005023d 	andeq	r0, r5, sp, lsr r2
 9f8:	01050101 	tsteq	r5, r1, lsl #2
 9fc:	00020500 	andeq	r0, r2, r0, lsl #10
 a00:	03000000 	movweq	r0, #0
 a04:	050101f7 	streq	r0, [r1, #-503]	; 0xfffffe09
 a08:	0f05670d 	svceq	0x0005670d
 a0c:	200d052e 	andcs	r0, sp, lr, lsr #10
 a10:	023d0105 	eorseq	r0, sp, #1073741825	; 0x40000001
 a14:	01010005 	tsteq	r1, r5
 a18:	05000105 	streq	r0, [r0, #-261]	; 0xfffffefb
 a1c:	00000002 	andeq	r0, r0, r2
 a20:	02830300 	addeq	r0, r3, #0, 6
 a24:	03140501 	tsteq	r4, #4194304	; 0x400000
 a28:	08056612 	stmdaeq	r5, {r1, r4, r9, sl, sp, lr}
 a2c:	4c0e053d 	cfstr32mi	mvfx0, [lr], {61}	; 0x3d
 a30:	0f053e3e 	svceq	0x00053e3e
 a34:	2e08053e 	mcrcs	5, 0, r0, cr8, cr14, {1}
 a38:	05210c05 	streq	r0, [r1, #-3077]!	; 0xfffff3fb
 a3c:	04052e14 	streq	r2, [r5], #-3604	; 0xfffff1ec
 a40:	2f0a052e 	svccs	0x000a052e
 a44:	22010530 	andcs	r0, r1, #48, 10	; 0xc000000
 a48:	01000502 	tsteq	r0, r2, lsl #10
 a4c:	Address 0x0000000000000a4c is out of bounds.


Disassembly of section .debug_str:

00000000 <.debug_str>:
       0:	31433249 	cmpcc	r3, r9, asr #4
       4:	5f56455f 	svcpl	0x0056455f
       8:	20515249 	subscs	r5, r1, r9, asr #4
       c:	5f003133 	svcpl	0x00003133
      10:	4345445f 	movtmi	r4, #21599	; 0x545f
      14:	4c414d49 	mcrrmi	13, 4, r4, r1, cr9
      18:	4749445f 	smlsldmi	r4, r9, pc, r4	; <UNPREDICTABLE>
      1c:	31205f5f 			; <UNDEFINED> instruction: 0x31205f5f
      20:	58450037 	stmdapl	r5, {r0, r1, r2, r4, r5}^
      24:	30314954 	eorscc	r4, r1, r4, asr r9
      28:	30314450 	eorscc	r4, r1, r0, asr r4
      2c:	58452820 	stmdapl	r5, {r5, fp, sp}^
      30:	4d5f4954 	vldrmi.16	s9, [pc, #-168]	; ffffff90 <_estack+0xdfffd790>	; <UNPREDICTABLE>
      34:	69707061 	ldmdbvs	r0!, {r0, r5, r6, ip, sp, lr}^
      38:	745f676e 	ldrbvc	r6, [pc], #-1902	; 40 <_Min_Heap_Size-0x1c0>
      3c:	58457b29 	stmdapl	r5, {r0, r3, r5, r8, r9, fp, ip, sp, lr}^
      40:	30314954 	eorscc	r4, r1, r4, asr r9
      44:	5047202c 	subpl	r2, r7, ip, lsr #32
      48:	2c444f49 	mcrrcs	15, 4, r4, r4, cr9
      4c:	49504720 	ldmdbmi	r0, {r5, r8, r9, sl, lr}^
      50:	49505f4f 	ldmdbmi	r0, {r0, r1, r2, r3, r6, r8, r9, sl, fp, ip, lr}^
      54:	30315f4e 	eorscc	r5, r1, lr, asr #30
      58:	5845202c 	stmdapl	r5, {r2, r3, r5, sp}^
      5c:	30314954 	eorscc	r4, r1, r4, asr r9
      60:	5152495f 	cmppl	r2, pc, asr r9
      64:	5f5f007d 	svcpl	0x005f007d
      68:	5f414855 	svcpl	0x00414855
      6c:	54494246 	strbpl	r4, [r9], #-582	; 0xfffffdba
      70:	38205f5f 	stmdacc	r0!, {r0, r1, r2, r3, r4, r6, r8, r9, sl, fp, ip, lr}
      74:	465f5f00 	ldrbmi	r5, [pc], -r0, lsl #30
      78:	3436544c 	ldrtcc	r5, [r6], #-1100	; 0xfffffbb4
      7c:	4e45445f 	mcrmi	4, 2, r4, cr5, cr15, {2}
      80:	5f4d524f 	svcpl	0x004d524f
      84:	5f4e494d 	svcpl	0x004e494d
      88:	2e34205f 	mrccs	0, 1, r2, cr4, cr15, {2}
      8c:	36303439 			; <UNDEFINED> instruction: 0x36303439
      90:	35343635 	ldrcc	r3, [r4, #-1589]!	; 0xfffff9cb
      94:	32313438 	eorscc	r3, r1, #56, 8	; 0x38000000
      98:	34353634 	ldrtcc	r3, [r5], #-1588	; 0xfffff9cc
      9c:	32332d65 	eorscc	r2, r3, #6464	; 0x1940
      a0:	34364634 	ldrtcc	r4, [r6], #-1588	; 0xfffff9cc
      a4:	69757600 	ldmdbvs	r5!, {r9, sl, ip, sp, lr}^
      a8:	3233746e 	eorscc	r7, r3, #1845493760	; 0x6e000000
      ac:	5f00745f 	svcpl	0x0000745f
      b0:	4343475f 	movtmi	r4, #14175	; 0x375f
      b4:	4f54415f 	svcmi	0x0054415f
      b8:	5f43494d 	svcpl	0x0043494d
      bc:	41484357 	cmpmi	r8, r7, asr r3
      c0:	5f545f52 	svcpl	0x00545f52
      c4:	4b434f4c 	blmi	10d3dfc <_Min_Stack_Size+0x10d39fc>
      c8:	4552465f 	ldrbmi	r4, [r2, #-1631]	; 0xfffff9a1
      cc:	00322045 	eorseq	r2, r2, r5, asr #32
      d0:	48435f5f 	stmdami	r3, {r0, r1, r2, r3, r4, r6, r8, r9, sl, fp, ip, lr}^
      d4:	555f5241 	ldrbpl	r5, [pc, #-577]	; fffffe9b <_estack+0xdfffd69b>
      d8:	4749534e 	strbmi	r5, [r9, -lr, asr #6]
      dc:	5f44454e 	svcpl	0x0044454e
      e0:	0031205f 	eorseq	r2, r1, pc, asr r0
      e4:	49545845 	ldmdbmi	r4, {r0, r2, r6, fp, ip, lr}^
      e8:	00302030 	eorseq	r2, r0, r0, lsr r0
      ec:	4349564e 	movtmi	r5, #38478	; 0x964e
      f0:	5152495f 	cmppl	r2, pc, asr r9
      f4:	495f3133 	ldmdbmi	pc, {r0, r1, r4, r5, r8, ip, sp}^	; <UNPREDICTABLE>
      f8:	5f314332 	svcpl	0x00314332
      fc:	445f5645 	ldrbmi	r5, [pc], #-1605	; 104 <_Min_Heap_Size-0xfc>
     100:	62617369 	rsbvs	r7, r1, #-1543503871	; 0xa4000001
     104:	2928656c 	stmdbcs	r8!, {r2, r3, r5, r6, r8, sl, sp, lr}
     108:	564e2820 	strbpl	r2, [lr], -r0, lsr #16
     10c:	495f4349 	ldmdbmi	pc, {r0, r3, r6, r8, r9, lr}^	; <UNPREDICTABLE>
     110:	30524543 	subscc	r4, r2, r3, asr #10
     114:	203d7c20 	eorscs	r7, sp, r0, lsr #24
     118:	283c3c31 	ldmdacs	ip!, {r0, r4, r5, sl, fp, ip, sp}
     11c:	43324920 	teqmi	r2, #32, 18	; 0x80000
     120:	56455f31 			; <UNDEFINED> instruction: 0x56455f31
     124:	5152495f 	cmppl	r2, pc, asr r9
     128:	00292920 	eoreq	r2, r9, r0, lsr #18
     12c:	5f44434c 	svcpl	0x0044434c
     130:	505f3644 	subspl	r3, pc, r4, asr #12
     134:	47204e49 	strmi	r4, [r0, -r9, asr #28]!
     138:	5f4f4950 	svcpl	0x004f4950
     13c:	5f4e4950 	svcpl	0x004e4950
     140:	32490036 	subcc	r0, r9, #54	; 0x36
     144:	52435f43 	subpl	r5, r3, #268	; 0x10c
     148:	54495f32 	strbpl	r5, [r9], #-3890	; 0xfffff0ce
     14c:	45465542 	strbmi	r5, [r6, #-1346]	; 0xfffffabe
     150:	3249204e 	subcc	r2, r9, #78	; 0x4e
     154:	52435f43 	subpl	r5, r3, #268	; 0x10c
     158:	54495f32 	strbpl	r5, [r9], #-3890	; 0xfffff0ce
     15c:	45465542 	strbmi	r5, [r6, #-1346]	; 0xfffffabe
     160:	734d5f4e 	movtvc	r5, #57166	; 0xdf4e
     164:	5f5f006b 	svcpl	0x005f006b
     168:	43414c4c 	movtmi	r4, #7244	; 0x1c4c
     16c:	5f4d5543 	svcpl	0x004d5543
     170:	5f4e494d 	svcpl	0x004e494d
     174:	2d28205f 	stccs	0, cr2, [r8, #-380]!	; 0xfffffe84
     178:	50315830 	eorspl	r5, r1, r0, lsr r8
     17c:	4c4c3133 	stfmie	f3, [ip], {51}	; 0x33
     180:	58302d4b 	ldmdapl	r0!, {r0, r1, r3, r6, r8, sl, fp, sp}
     184:	31335031 	teqcc	r3, r1, lsr r0
     188:	294b4c4c 	stmdbcs	fp, {r2, r3, r6, sl, fp, lr}^
     18c:	555f5f00 	ldrbpl	r5, [pc, #-3840]	; fffff294 <_estack+0xdfffca94>
     190:	465f5148 	ldrbmi	r5, [pc], -r8, asr #2
     194:	5f544942 	svcpl	0x00544942
     198:	3631205f 			; <UNDEFINED> instruction: 0x3631205f
     19c:	4c5f5f00 	mrrcmi	15, 0, r5, pc, cr0	; <UNPREDICTABLE>
     1a0:	55434341 	strbpl	r4, [r3, #-833]	; 0xfffffcbf
     1a4:	50455f4d 	subpl	r5, r5, sp, asr #30
     1a8:	4f4c4953 	svcmi	0x004c4953
     1ac:	205f5f4e 	subscs	r5, pc, lr, asr #30
     1b0:	50317830 	eorspl	r7, r1, r0, lsr r8
     1b4:	4c31332d 	ldcmi	3, cr3, [r1], #-180	; 0xffffff4c
     1b8:	5f5f004b 	svcpl	0x005f004b
     1bc:	44525450 	ldrbmi	r5, [r2], #-1104	; 0xfffffbb0
     1c0:	5f464649 	svcpl	0x00464649
     1c4:	5f58414d 	svcpl	0x0058414d
     1c8:	7830205f 	ldmdavc	r0!, {r0, r1, r2, r3, r4, r6, sp}
     1cc:	66666637 			; <UNDEFINED> instruction: 0x66666637
     1d0:	66666666 	strbtvs	r6, [r6], -r6, ror #12
     1d4:	495f5f00 	ldmdbmi	pc, {r8, r9, sl, fp, ip, lr}^	; <UNPREDICTABLE>
     1d8:	414d544e 	cmpmi	sp, lr, asr #8
     1dc:	28435f58 	stmdacs	r3, {r3, r4, r6, r8, r9, sl, fp, ip, lr}^
     1e0:	63202963 			; <UNDEFINED> instruction: 0x63202963
     1e4:	20232320 	eorcs	r2, r3, r0, lsr #6
     1e8:	5f004c4c 	svcpl	0x00004c4c
     1ec:	544e495f 	strbpl	r4, [lr], #-2399	; 0xfffff6a1
     1f0:	5f58414d 	svcpl	0x0058414d
     1f4:	5f58414d 	svcpl	0x0058414d
     1f8:	7830205f 	ldmdavc	r0!, {r0, r1, r2, r3, r4, r6, sp}
     1fc:	66666637 			; <UNDEFINED> instruction: 0x66666637
     200:	66666666 	strbtvs	r6, [r6], -r6, ror #12
     204:	66666666 	strbtvs	r6, [r6], -r6, ror #12
     208:	66666666 	strbtvs	r6, [r6], -r6, ror #12
     20c:	5f004c4c 	svcpl	0x00004c4c
     210:	5f51545f 	svcpl	0x0051545f
     214:	54494249 	strbpl	r4, [r9], #-585	; 0xfffffdb7
     218:	30205f5f 	eorcc	r5, r0, pc, asr pc
     21c:	465f5f00 	ldrbmi	r5, [pc], -r0, lsl #30
     220:	3233544c 	eorscc	r5, r3, #76, 8	; 0x4c000000
     224:	494d5f58 	stmdbmi	sp, {r3, r4, r6, r8, r9, sl, fp, ip, lr}^
     228:	58455f4e 	stmdapl	r5, {r1, r2, r3, r6, r8, r9, sl, fp, ip, lr}^
     22c:	205f5f50 	subscs	r5, pc, r0, asr pc	; <UNPREDICTABLE>
     230:	30312d28 	eorscc	r2, r1, r8, lsr #26
     234:	00293132 	eoreq	r3, r9, r2, lsr r1
     238:	4349564e 	movtmi	r5, #38478	; 0x964e
     23c:	4543495f 	strbmi	r4, [r3, #-2399]	; 0xfffff6a1
     240:	2a203052 	bcs	80c390 <_Min_Stack_Size+0x80bf90>
     244:	6c6f7628 	stclvs	6, cr7, [pc], #-160	; 1ac <_Min_Heap_Size-0x54>
     248:	6c697461 	cfstrdvs	mvd7, [r9], #-388	; 0xfffffe7c
     24c:	69752065 	ldmdbvs	r5!, {r0, r2, r5, r6, sp}^
     250:	3233746e 	eorscc	r7, r3, #1845493760	; 0x6e000000
     254:	2a20745f 	bcs	81d3d8 <_Min_Stack_Size+0x81cfd8>
     258:	564e2829 	strbpl	r2, [lr], -r9, lsr #16
     25c:	425f4349 	subsmi	r4, pc, #603979777	; 0x24000001
     260:	20455341 	subcs	r5, r5, r1, asr #6
     264:	7830202b 	ldmdavc	r0!, {r0, r1, r3, r5, sp}
     268:	00293038 	eoreq	r3, r9, r8, lsr r0
     26c:	5f433249 	svcpl	0x00433249
     270:	5f315243 	svcpl	0x00315243
     274:	52454c41 	subpl	r4, r5, #16640	; 0x4100
     278:	734d5f54 	movtvc	r5, #57172	; 0xdf54
     27c:	3028206b 	eorcc	r2, r8, fp, rrx
     280:	4c553178 	ldfmie	f3, [r5], {120}	; 0x78
     284:	203c3c20 	eorscs	r3, ip, r0, lsr #24
     288:	5f433249 	svcpl	0x00433249
     28c:	5f315243 	svcpl	0x00315243
     290:	52454c41 	subpl	r4, r5, #16640	; 0x4100
     294:	6f505f54 	svcvs	0x00505f54
     298:	47002973 	smlsdxmi	r0, r3, r9, r2
     29c:	5f4f4950 	svcpl	0x004f4950
     2a0:	4b434f4c 	blmi	10d3fd8 <_Min_Stack_Size+0x10d3bd8>
     2a4:	204b4f5f 	subcs	r4, fp, pc, asr pc
     2a8:	5f005530 	svcpl	0x00005530
     2ac:	4f54415f 	svcmi	0x0054415f
     2b0:	5f43494d 	svcpl	0x0043494d
     2b4:	534e4f43 	movtpl	r4, #61251	; 0xef43
     2b8:	20454d55 	subcs	r4, r5, r5, asr sp
     2bc:	5f5f0031 	svcpl	0x005f0031
     2c0:	4152464c 	cmpmi	r2, ip, asr #12
     2c4:	4d5f5443 	cfldrdmi	mvd5, [pc, #-268]	; 1c0 <_Min_Heap_Size-0x40>
     2c8:	5f5f4e49 	svcpl	0x005f4e49
     2cc:	302d2820 	eorcc	r2, sp, r0, lsr #16
     2d0:	524c352e 	subpl	r3, ip, #192937984	; 0xb800000
     2d4:	352e302d 	strcc	r3, [lr, #-45]!	; 0xffffffd3
     2d8:	0029524c 	eoreq	r5, r9, ip, asr #4
     2dc:	43575f5f 	cmpmi	r7, #380	; 0x17c
     2e0:	5f524148 	svcpl	0x00524148
     2e4:	5f58414d 	svcpl	0x0058414d
     2e8:	7830205f 	ldmdavc	r0!, {r0, r1, r2, r3, r4, r6, sp}
     2ec:	66666666 	strbtvs	r6, [r6], -r6, ror #12
     2f0:	66666666 	strbtvs	r6, [r6], -r6, ror #12
     2f4:	564e0055 			; <UNDEFINED> instruction: 0x564e0055
     2f8:	495f4349 	ldmdbmi	pc, {r0, r3, r6, r8, r9, lr}^	; <UNPREDICTABLE>
     2fc:	315f5152 	cmpcc	pc, r2, asr r1	; <UNPREDICTABLE>
     300:	58455f30 	stmdapl	r5, {r4, r5, r8, r9, sl, fp, ip, lr}^
     304:	5f344954 	svcpl	0x00344954
     308:	61736944 	cmnvs	r3, r4, asr #18
     30c:	28656c62 	stmdacs	r5!, {r1, r5, r6, sl, fp, sp, lr}^
     310:	4e282029 	cdpmi	0, 2, cr2, cr8, cr9, {1}
     314:	5f434956 	svcpl	0x00434956
     318:	52454349 	subpl	r4, r5, #603979777	; 0x24000001
     31c:	3d7c2030 	ldclcc	0, cr2, [ip, #-192]!	; 0xffffff40
     320:	3c3c3120 	ldfccs	f3, [ip], #-128	; 0xffffff80
     324:	00293031 	eoreq	r3, r9, r1, lsr r0
     328:	6b736154 	blvs	1cd8880 <_Min_Stack_Size+0x1cd8480>
     32c:	74535f42 	ldrbvc	r5, [r3], #-3906	; 0xfffff0be
     330:	5f6b6361 	svcpl	0x006b6361
     334:	657a6953 	ldrbvs	r6, [sl, #-2387]!	; 0xfffff6ad
     338:	30303120 	eorscc	r3, r0, r0, lsr #2
     33c:	41535500 	cmpmi	r3, r0, lsl #10
     340:	5f325452 	svcpl	0x00325452
     344:	45534142 	ldrbmi	r4, [r3, #-322]	; 0xfffffebe
     348:	34783020 	ldrbtcc	r3, [r8], #-32	; 0xffffffe0
     34c:	34313030 	ldrtcc	r3, [r1], #-48	; 0xffffffd0
     350:	55303034 	ldrpl	r3, [r0, #-52]!	; 0xffffffcc
     354:	3249004c 	subcc	r0, r9, #76	; 0x4c
     358:	52535f43 	subspl	r5, r3, #268	; 0x10c
     35c:	52545f32 	subspl	r5, r4, #50, 30	; 0xc8
     360:	32492041 	subcc	r2, r9, #65	; 0x41
     364:	52535f43 	subspl	r5, r3, #268	; 0x10c
     368:	52545f32 	subspl	r5, r4, #50, 30	; 0xc8
     36c:	734d5f41 	movtvc	r5, #57153	; 0xdf41
     370:	5f5f006b 	svcpl	0x005f006b
     374:	455a4953 	ldrbmi	r4, [sl, #-2387]	; 0xfffff6ad
     378:	4c5f464f 	mrrcmi	6, 4, r4, pc, cr15	; <UNPREDICTABLE>
     37c:	5f474e4f 	svcpl	0x00474e4f
     380:	474e4f4c 	strbmi	r4, [lr, -ip, asr #30]
     384:	38205f5f 	stmdacc	r0!, {r0, r1, r2, r3, r4, r6, r8, r9, sl, fp, ip, lr}
     388:	445f5f00 	ldrbmi	r5, [pc], #-3840	; 390 <_Min_Heap_Size+0x190>
     38c:	4d5f4c42 	ldclmi	12, cr4, [pc, #-264]	; 28c <_Min_Heap_Size+0x8c>
     390:	315f5841 	cmpcc	pc, r1, asr #16
     394:	58455f30 	stmdapl	r5, {r4, r5, r8, r9, sl, fp, ip, lr}^
     398:	205f5f50 	subscs	r5, pc, r0, asr pc	; <UNPREDICTABLE>
     39c:	00383033 	eorseq	r3, r8, r3, lsr r0
     3a0:	52465f5f 	subpl	r5, r6, #380	; 0x17c
     3a4:	5f544341 	svcpl	0x00544341
     3a8:	5f4e494d 	svcpl	0x004e494d
     3ac:	2d28205f 	stccs	0, cr2, [r8, #-380]!	; 0xfffffe84
     3b0:	52352e30 	eorspl	r2, r5, #48, 28	; 0x300
     3b4:	352e302d 	strcc	r3, [lr, #-45]!	; 0xffffffd3
     3b8:	5f002952 	svcpl	0x00002952
     3bc:	4c4c555f 	cfstr64mi	mvdx5, [ip], {95}	; 0x5f
     3c0:	55434341 	strbpl	r4, [r3, #-833]	; 0xfffffcbf
     3c4:	414d5f4d 	cmpmi	sp, sp, asr #30
     3c8:	205f5f58 	subscs	r5, pc, r8, asr pc	; <UNPREDICTABLE>
     3cc:	46465830 			; <UNDEFINED> instruction: 0x46465830
     3d0:	46464646 	strbmi	r4, [r6], -r6, asr #12
     3d4:	46464646 	strbmi	r4, [r6], -r6, asr #12
     3d8:	46464646 	strbmi	r4, [r6], -r6, asr #12
     3dc:	2d504646 	ldclcs	6, cr4, [r0, #-280]	; 0xfffffee8
     3e0:	4c553233 	lfmmi	f3, 2, [r5], {51}	; 0x33
     3e4:	49004b4c 	stmdbmi	r0, {r2, r3, r6, r8, r9, fp, lr}
     3e8:	535f4332 	cmppl	pc, #-939524096	; 0xc8000000
     3ec:	535f3152 	cmppl	pc, #-2147483628	; 0x80000014
     3f0:	32492042 	subcc	r2, r9, #66	; 0x42
     3f4:	52535f43 	subspl	r5, r3, #268	; 0x10c
     3f8:	42535f31 	subsmi	r5, r3, #49, 30	; 0xc4
     3fc:	6b734d5f 	blvs	1cd3980 <_Min_Stack_Size+0x1cd3580>
     400:	49564e00 	ldmdbmi	r6, {r9, sl, fp, lr}^
     404:	52495f43 	subpl	r5, r9, #268	; 0x10c
     408:	5f363351 	svcpl	0x00363351
     40c:	32495053 	subcc	r5, r9, #83	; 0x53
     410:	616e455f 	cmnvs	lr, pc, asr r5
     414:	28656c62 	stmdacs	r5!, {r1, r5, r6, sl, fp, sp, lr}^
     418:	4e282029 	cdpmi	0, 2, cr2, cr8, cr9, {1}
     41c:	5f434956 	svcpl	0x00434956
     420:	52455349 	subpl	r5, r5, #603979777	; 0x24000001
     424:	3d7c2031 	ldclcc	0, cr2, [ip, #-196]!	; 0xffffff3c
     428:	3c3c3120 	ldfccs	f3, [ip], #-128	; 0xffffff80
     42c:	49505328 	ldmdbmi	r0, {r3, r5, r8, r9, ip, lr}^
     430:	52495f32 	subpl	r5, r9, #50, 30	; 0xc8
     434:	202d2051 	eorcs	r2, sp, r1, asr r0
     438:	29293233 	stmdbcs	r9!, {r0, r1, r4, r5, r9, ip, sp}
     43c:	495f5f00 	ldmdbmi	pc, {r8, r9, sl, fp, ip, lr}^	; <UNPREDICTABLE>
     440:	414d544e 	cmpmi	sp, lr, asr #8
     444:	49575f58 	ldmdbmi	r7, {r3, r4, r6, r8, r9, sl, fp, ip, lr}^
     448:	5f485444 	svcpl	0x00485444
     44c:	3436205f 	ldrtcc	r2, [r6], #-95	; 0xffffffa1
     450:	415f5f00 	cmpmi	pc, r0, lsl #30
     454:	465f4d52 			; <UNDEFINED> instruction: 0x465f4d52
     458:	55544145 	ldrbpl	r4, [r4, #-325]	; 0xfffffebb
     45c:	425f4552 	subsmi	r4, pc, #343932928	; 0x14800000
     460:	5f363146 	svcpl	0x00363146
     464:	4c414353 	mcrrmi	3, 5, r4, r1, cr3
     468:	415f5241 	cmpmi	pc, r1, asr #4
     46c:	48544952 	ldmdami	r4, {r1, r4, r6, r8, fp, lr}^
     470:	4954454d 	ldmdbmi	r4, {r0, r2, r3, r6, r8, sl, lr}^
     474:	5f5f0043 	svcpl	0x005f0043
     478:	495f5153 	ldmdbmi	pc, {r0, r1, r4, r6, r8, ip, lr}^	; <UNPREDICTABLE>
     47c:	5f544942 	svcpl	0x00544942
     480:	0030205f 	eorseq	r2, r0, pc, asr r0
     484:	524f5f5f 	subpl	r5, pc, #380	; 0x17c
     488:	5f524544 	svcpl	0x00524544
     48c:	5f504450 	svcpl	0x00504450
     490:	49444e45 	stmdbmi	r4, {r0, r2, r6, r9, sl, fp, lr}^
     494:	5f5f4e41 	svcpl	0x005f4e41
     498:	31343320 	teqcc	r4, r0, lsr #6
     49c:	53550032 	cmppl	r5, #50	; 0x32
     4a0:	31545241 	cmpcc	r4, r1, asr #4
     4a4:	5341425f 	movtpl	r4, #4703	; 0x125f
     4a8:	78302045 	ldmdavc	r0!, {r0, r2, r6, sp}
     4ac:	31303034 	teqcc	r0, r4, lsr r0
     4b0:	30303833 	eorscc	r3, r0, r3, lsr r8
     4b4:	4c004c55 	stcmi	12, cr4, [r0], {85}	; 0x55
     4b8:	445f4443 	ldrbmi	r4, [pc], #-1091	; 4c0 <_Min_Stack_Size+0xc0>
     4bc:	49505f30 	ldmdbmi	r0, {r4, r5, r8, r9, sl, fp, ip, lr}^
     4c0:	5047204e 	subpl	r2, r7, lr, asr #32
     4c4:	505f4f49 	subspl	r4, pc, r9, asr #30
     4c8:	305f4e49 	subscc	r4, pc, r9, asr #28
     4cc:	73615400 	cmnvc	r1, #0, 8
     4d0:	465f426b 	ldrbmi	r4, [pc], -fp, ror #4
     4d4:	0067616c 	rsbeq	r6, r7, ip, ror #2
     4d8:	4e495f5f 	mcrmi	15, 2, r5, cr9, cr15, {2}
     4dc:	545f3854 	ldrbpl	r3, [pc], #-2132	; 4e4 <_Min_Stack_Size+0xe4>
     4e0:	5f455059 	svcpl	0x00455059
     4e4:	6973205f 	ldmdbvs	r3!, {r0, r1, r2, r3, r4, r6, sp}^
     4e8:	64656e67 	strbtvs	r6, [r5], #-3687	; 0xfffff199
     4ec:	61686320 	cmnvs	r8, r0, lsr #6
     4f0:	5f5f0072 	svcpl	0x005f0072
     4f4:	5f4d5241 	svcpl	0x004d5241
     4f8:	48435241 	stmdami	r3, {r0, r6, r9, ip, lr}^
     4fc:	4f52505f 	svcmi	0x0052505f
     500:	454c4946 	strbmi	r4, [ip, #-2374]	; 0xfffff6ba
     504:	00373720 	eorseq	r3, r7, r0, lsr #14
     508:	49555f5f 	ldmdbmi	r5, {r0, r1, r2, r3, r4, r6, r8, r9, sl, fp, ip, lr}^
     50c:	4c5f544e 	cfldrdmi	mvd5, [pc], {78}	; 0x4e
     510:	54534145 	ldrbpl	r4, [r3], #-325	; 0xfffffebb
     514:	59545f38 	ldmdbpl	r4, {r3, r4, r5, r8, r9, sl, fp, ip, lr}^
     518:	5f5f4550 	svcpl	0x005f4550
     51c:	736e7520 	cmnvc	lr, #32, 10	; 0x8000000
     520:	656e6769 	strbvs	r6, [lr, #-1897]!	; 0xfffff897
     524:	68632064 	stmdavs	r3!, {r2, r5, r6, sp}^
     528:	5f007261 	svcpl	0x00007261
     52c:	4153555f 	cmpmi	r3, pc, asr r5
     530:	4d554343 	ldclmi	3, cr4, [r5, #-268]	; 0xfffffef4
     534:	4e494d5f 	mcrmi	13, 2, r4, cr9, cr15, {2}
     538:	30205f5f 	eorcc	r5, r0, pc, asr pc
     53c:	4855302e 	ldmdami	r5, {r1, r2, r3, r5, ip, sp}^
     540:	5f5f004b 	svcpl	0x005f004b
     544:	33544c46 	cmpcc	r4, #17920	; 0x4600
     548:	45445f32 	strbmi	r5, [r4, #-3890]	; 0xfffff0ce
     54c:	414d4943 	cmpmi	sp, r3, asr #18
     550:	49445f4c 	stmdbmi	r4, {r2, r3, r6, r8, r9, sl, fp, ip, lr}^
     554:	205f5f47 	subscs	r5, pc, r7, asr #30
     558:	32490039 	subcc	r0, r9, #57	; 0x39
     55c:	52435f43 	subpl	r5, r3, #268	; 0x10c
     560:	4f4e5f31 	svcmi	0x004e5f31
     564:	45525453 	ldrbmi	r5, [r2, #-1107]	; 0xfffffbad
     568:	5f484354 	svcpl	0x00484354
     56c:	20736f50 	rsbscs	r6, r3, r0, asr pc
     570:	29553728 	ldmdbcs	r5, {r3, r5, r8, r9, sl, ip, sp}^
     574:	54584500 	ldrbpl	r4, [r8], #-1280	; 0xfffffb00
     578:	41503349 	cmpmi	r0, r9, asr #6
     57c:	45282033 	strmi	r2, [r8, #-51]!	; 0xffffffcd
     580:	5f495458 	svcpl	0x00495458
     584:	7070614d 	rsbsvc	r6, r0, sp, asr #2
     588:	5f676e69 	svcpl	0x00676e69
     58c:	457b2974 	ldrbmi	r2, [fp, #-2420]!	; 0xfffff68c
     590:	33495458 	movtcc	r5, #37976	; 0x9458
     594:	5047202c 	subpl	r2, r7, ip, lsr #32
     598:	2c414f49 	mcrrcs	15, 4, r4, r1, cr9
     59c:	49504720 	ldmdbmi	r0, {r5, r8, r9, sl, lr}^
     5a0:	49505f4f 	ldmdbmi	r0, {r0, r1, r2, r3, r6, r8, r9, sl, fp, ip, lr}^
     5a4:	2c335f4e 	ldccs	15, cr5, [r3], #-312	; 0xfffffec8
     5a8:	54584520 	ldrbpl	r4, [r8], #-1312	; 0xfffffae0
     5ac:	495f3349 	ldmdbmi	pc, {r0, r3, r6, r8, r9, ip, sp}^	; <UNPREDICTABLE>
     5b0:	007d5152 	rsbseq	r5, sp, r2, asr r1
     5b4:	5f433249 	svcpl	0x00433249
     5b8:	5f315253 	svcpl	0x00315253
     5bc:	504f5453 	subpl	r5, pc, r3, asr r4	; <UNPREDICTABLE>
     5c0:	32492046 	subcc	r2, r9, #70	; 0x46
     5c4:	52535f43 	subspl	r5, r3, #268	; 0x10c
     5c8:	54535f31 	ldrbpl	r5, [r3], #-3889	; 0xfffff0cf
     5cc:	5f46504f 	svcpl	0x0046504f
     5d0:	006b734d 	rsbeq	r7, fp, sp, asr #6
     5d4:	444c5f5f 	strbmi	r5, [ip], #-3935	; 0xfffff0a1
     5d8:	4d5f4c42 	ldclmi	12, cr4, [pc, #-264]	; 4d8 <_Min_Stack_Size+0xd8>
     5dc:	5f544e41 	svcpl	0x00544e41
     5e0:	5f474944 	svcpl	0x00474944
     5e4:	3335205f 	teqcc	r5, #95	; 0x5f
     5e8:	54584500 	ldrbpl	r4, [r8], #-1280	; 0xfffffb00
     5ec:	42503949 	subsmi	r3, r0, #1196032	; 0x124000
     5f0:	45282039 	strmi	r2, [r8, #-57]!	; 0xffffffc7
     5f4:	5f495458 	svcpl	0x00495458
     5f8:	7070614d 	rsbsvc	r6, r0, sp, asr #2
     5fc:	5f676e69 	svcpl	0x00676e69
     600:	457b2974 	ldrbmi	r2, [fp, #-2420]!	; 0xfffff68c
     604:	39495458 	stmdbcc	r9, {r3, r4, r6, sl, ip, lr}^
     608:	5047202c 	subpl	r2, r7, ip, lsr #32
     60c:	2c424f49 	mcrrcs	15, 4, r4, r2, cr9
     610:	49504720 	ldmdbmi	r0, {r5, r8, r9, sl, lr}^
     614:	49505f4f 	ldmdbmi	r0, {r0, r1, r2, r3, r6, r8, r9, sl, fp, ip, lr}^
     618:	2c395f4e 	ldccs	15, cr5, [r9], #-312	; 0xfffffec8
     61c:	54584520 	ldrbpl	r4, [r8], #-1312	; 0xfffffae0
     620:	495f3949 	ldmdbmi	pc, {r0, r3, r6, r8, fp, ip, sp}^	; <UNPREDICTABLE>
     624:	007d5152 	rsbseq	r5, sp, r2, asr r1
     628:	4f495047 	svcmi	0x00495047
     62c:	4e49505f 	mcrmi	0, 2, r5, cr9, cr15, {2}
     630:	2820395f 	stmdacs	r0!, {r0, r1, r2, r3, r4, r6, r8, fp, ip, sp}
     634:	6e697528 	cdpvs	5, 6, cr7, cr9, cr8, {1}
     638:	5f363174 	svcpl	0x00363174
     63c:	78302974 	ldmdavc	r0!, {r2, r4, r5, r6, r8, fp, sp}
     640:	30303230 	eorscc	r3, r0, r0, lsr r2
     644:	32490029 	subcc	r0, r9, #41	; 0x29
     648:	28203243 	stmdacs	r0!, {r0, r1, r6, r9, ip, sp}
     64c:	43324928 	teqmi	r2, #40, 18	; 0xa0000
     650:	2a20745f 	bcs	81d7d4 <_Min_Stack_Size+0x81d3d4>
     654:	43324929 	teqmi	r2, #671744	; 0xa4000
     658:	41425f32 	cmpmi	r2, r2, lsr pc
     65c:	00294553 	eoreq	r4, r9, r3, asr r5
     660:	49555f5f 	ldmdbmi	r5, {r0, r1, r2, r3, r4, r6, r8, r9, sl, fp, ip, lr}^
     664:	5f38544e 	svcpl	0x0038544e
     668:	29632843 	stmdbcs	r3!, {r0, r1, r6, fp, sp}^
     66c:	5f006320 	svcpl	0x00006320
     670:	544e495f 	strbpl	r4, [lr], #-2399	; 0xfffff6a1
     674:	545f3631 	ldrbpl	r3, [pc], #-1585	; 67c <_Min_Stack_Size+0x27c>
     678:	5f455059 	svcpl	0x00455059
     67c:	6873205f 	ldmdavs	r3!, {r0, r1, r2, r3, r4, r6, sp}^
     680:	2074726f 	rsbscs	r7, r4, pc, ror #4
     684:	00746e69 	rsbseq	r6, r4, r9, ror #28
     688:	4c465f5f 	mcrrmi	15, 5, r5, r6, cr15
     68c:	5f343654 	svcpl	0x00343654
     690:	5f58414d 	svcpl	0x0058414d
     694:	2e31205f 	mrccs	0, 1, r2, cr1, cr15, {2}
     698:	36373937 			; <UNDEFINED> instruction: 0x36373937
     69c:	33313339 	teqcc	r1, #-469762048	; 0xe4000000
     6a0:	32363834 	eorscc	r3, r6, #52, 16	; 0x340000
     6a4:	37353133 			; <UNDEFINED> instruction: 0x37353133
     6a8:	30332b65 	eorscc	r2, r3, r5, ror #22
     6ac:	34364638 	ldrtcc	r4, [r6], #-1592	; 0xfffff9c8
     6b0:	465f5f00 	ldrbmi	r5, [pc], -r0, lsl #30
     6b4:	3233544c 	eorscc	r5, r3, #76, 8	; 0x4c000000
     6b8:	50455f58 	subpl	r5, r5, r8, asr pc
     6bc:	4f4c4953 	svcmi	0x004c4953
     6c0:	205f5f4e 	subscs	r5, pc, lr, asr #30
     6c4:	32322e32 	eorscc	r2, r2, #800	; 0x320
     6c8:	36343430 			; <UNDEFINED> instruction: 0x36343430
     6cc:	32393430 	eorscc	r3, r9, #48, 8	; 0x30000000
     6d0:	31333035 	teqcc	r3, r5, lsr r0
     6d4:	2d653133 	stfcse	f3, [r5, #-204]!	; 0xffffff34
     6d8:	33463631 	movtcc	r3, #26161	; 0x6631
     6dc:	49007832 	stmdbmi	r0, {r1, r4, r5, fp, ip, sp, lr}
     6e0:	435f4332 	cmpmi	pc, #-939524096	; 0xc8000000
     6e4:	535f3152 	cmppl	pc, #-2147483628	; 0x80000014
     6e8:	5954424d 	ldmdbpl	r4, {r0, r2, r3, r6, r9, lr}^
     6ec:	4d5f4550 	cfldr64mi	mvdx4, [pc, #-320]	; 5b4 <_Min_Stack_Size+0x1b4>
     6f0:	28206b73 	stmdacs	r0!, {r0, r1, r4, r5, r6, r8, r9, fp, sp, lr}
     6f4:	55317830 	ldrpl	r7, [r1, #-2096]!	; 0xfffff7d0
     6f8:	3c3c204c 	ldccc	0, cr2, [ip], #-304	; 0xfffffed0
     6fc:	43324920 	teqmi	r2, #32, 18	; 0x80000
     700:	3152435f 	cmpcc	r2, pc, asr r3
     704:	424d535f 	submi	r5, sp, #2080374785	; 0x7c000001
     708:	45505954 	ldrbmi	r5, [r0, #-2388]	; 0xfffff6ac
     70c:	736f505f 	cmnvc	pc, #95	; 0x5f
     710:	53520029 	cmppl	r2, #41	; 0x29
     714:	49504720 	ldmdbmi	r0, {r5, r8, r9, sl, lr}^
     718:	49505f4f 	ldmdbmi	r0, {r0, r1, r2, r3, r6, r8, r9, sl, fp, ip, lr}^
     71c:	00385f4e 	eorseq	r5, r8, lr, asr #30
     720:	5f433249 	svcpl	0x00433249
     724:	5f315253 	svcpl	0x00315253
     728:	5f455854 	svcpl	0x00455854
     72c:	206b734d 	rsbcs	r7, fp, sp, asr #6
     730:	31783028 	cmncc	r8, r8, lsr #32
     734:	3c204c55 	stccc	12, cr4, [r0], #-340	; 0xfffffeac
     738:	3249203c 	subcc	r2, r9, #60	; 0x3c
     73c:	52535f43 	subspl	r5, r3, #268	; 0x10c
     740:	58545f31 	ldmdapl	r4, {r0, r4, r5, r8, r9, sl, fp, ip, lr}^
     744:	6f505f45 	svcvs	0x00505f45
     748:	45002973 	strmi	r2, [r0, #-2419]	; 0xfffff68d
     74c:	5f495458 	svcpl	0x00495458
     750:	67697254 			; <UNDEFINED> instruction: 0x67697254
     754:	5f726567 	svcpl	0x00726567
     758:	4c4c4146 	stfmie	f4, [ip], {70}	; 0x46
     75c:	20474e49 	subcs	r4, r7, r9, asr #28
     760:	58450031 	stmdapl	r5, {r0, r4, r5}^
     764:	50354954 	eorspl	r4, r5, r4, asr r9
     768:	28203543 	stmdacs	r0!, {r0, r1, r6, r8, sl, ip, sp}
     76c:	49545845 	ldmdbmi	r4, {r0, r2, r6, fp, ip, lr}^
     770:	70614d5f 	rsbvc	r4, r1, pc, asr sp
     774:	676e6970 			; <UNDEFINED> instruction: 0x676e6970
     778:	7b29745f 	blvc	a5d8fc <_Min_Stack_Size+0xa5d4fc>
     77c:	49545845 	ldmdbmi	r4, {r0, r2, r6, fp, ip, lr}^
     780:	47202c35 			; <UNDEFINED> instruction: 0x47202c35
     784:	434f4950 	movtmi	r4, #63824	; 0xf950
     788:	5047202c 	subpl	r2, r7, ip, lsr #32
     78c:	505f4f49 	subspl	r4, pc, r9, asr #30
     790:	355f4e49 	ldrbcc	r4, [pc, #-3657]	; fffff94f <_estack+0xdfffd14f>
     794:	5845202c 	stmdapl	r5, {r2, r3, r5, sp}^
     798:	5f354954 	svcpl	0x00354954
     79c:	7d515249 	lfmvc	f5, 2, [r1, #-292]	; 0xfffffedc
     7a0:	43324900 	teqmi	r2, #0, 18
     7a4:	3152435f 	cmpcc	r2, pc, asr r3
     7a8:	424d535f 	submi	r5, sp, #2080374785	; 0x7c000001
     7ac:	4d5f5355 	ldclmi	3, cr5, [pc, #-340]	; 660 <_Min_Stack_Size+0x260>
     7b0:	28206b73 	stmdacs	r0!, {r0, r1, r4, r5, r6, r8, r9, fp, sp, lr}
     7b4:	55317830 	ldrpl	r7, [r1, #-2096]!	; 0xfffff7d0
     7b8:	3c3c204c 	ldccc	0, cr2, [ip], #-304	; 0xfffffed0
     7bc:	43324920 	teqmi	r2, #32, 18	; 0x80000
     7c0:	3152435f 	cmpcc	r2, pc, asr r3
     7c4:	424d535f 	submi	r5, sp, #2080374785	; 0x7c000001
     7c8:	505f5355 	subspl	r5, pc, r5, asr r3	; <UNPREDICTABLE>
     7cc:	0029736f 	eoreq	r7, r9, pc, ror #6
     7d0:	43475f5f 	movtmi	r5, #32607	; 0x7f5f
     7d4:	41485f43 	cmpmi	r8, r3, asr #30
     7d8:	535f4556 	cmppl	pc, #360710144	; 0x15800000
     7dc:	5f434e59 	svcpl	0x00434e59
     7e0:	504d4f43 	subpl	r4, sp, r3, asr #30
     7e4:	5f455241 	svcpl	0x00455241
     7e8:	5f444e41 	svcpl	0x00444e41
     7ec:	50415753 	subpl	r5, r1, r3, asr r7
     7f0:	3120315f 			; <UNDEFINED> instruction: 0x3120315f
     7f4:	51524900 	cmppl	r2, r0, lsl #18
     7f8:	6c61435f 	stclvs	3, cr4, [r1], #-380	; 0xfffffe84
     7fc:	6361426c 	cmnvs	r1, #108, 4	; 0xc0000006
     800:	5f5f006b 	svcpl	0x005f006b
     804:	43445453 	movtmi	r5, #17491	; 0x4453
     808:	534f485f 	movtpl	r4, #63583	; 0xf85f
     80c:	5f444554 	svcpl	0x00444554
     810:	0031205f 	eorseq	r2, r1, pc, asr r0
     814:	4c555f5f 	mrrcmi	15, 5, r5, r5, cr15	; <UNPREDICTABLE>
     818:	4152464c 	cmpmi	r2, ip, asr #12
     81c:	465f5443 	ldrbmi	r5, [pc], -r3, asr #8
     820:	5f544942 	svcpl	0x00544942
     824:	3436205f 	ldrtcc	r2, [r6], #-95	; 0xffffffa1
     828:	535f5f00 	cmppl	pc, #0, 30
     82c:	415f4749 	cmpmi	pc, r9, asr #14
     830:	494d4f54 	stmdbmi	sp, {r2, r4, r6, r8, r9, sl, fp, lr}^
     834:	59545f43 	ldmdbpl	r4, {r0, r1, r6, r8, r9, sl, fp, ip, lr}^
     838:	5f5f4550 	svcpl	0x005f4550
     83c:	746e6920 	strbtvc	r6, [lr], #-2336	; 0xfffff6e0
     840:	43324900 	teqmi	r2, #0, 18
     844:	3152535f 	cmpcc	r2, pc, asr r3
     848:	4654425f 			; <UNDEFINED> instruction: 0x4654425f
     84c:	736f505f 	cmnvc	pc, #95	; 0x5f
     850:	55322820 	ldrpl	r2, [r2, #-2080]!	; 0xfffff7e0
     854:	45520029 	ldrbmi	r0, [r2, #-41]	; 0xffffffd7
     858:	425f4441 	subsmi	r4, pc, #1090519040	; 0x41000000
     85c:	52285449 	eorpl	r5, r8, #1224736768	; 0x49000000
     860:	422c6765 	eormi	r6, ip, #26476544	; 0x1940000
     864:	20297469 	eorcs	r7, r9, r9, ror #8
     868:	65522828 	ldrbvs	r2, [r2, #-2088]	; 0xfffff7d8
     86c:	3e3e2067 	cdpcc	0, 3, cr2, cr14, cr7, {3}
     870:	74694220 	strbtvc	r4, [r9], #-544	; 0xfffffde0
     874:	20262029 	eorcs	r2, r6, r9, lsr #32
     878:	5f002931 	svcpl	0x00002931
     87c:	544e495f 	strbpl	r4, [lr], #-2399	; 0xfffff6a1
     880:	5341465f 	movtpl	r4, #5727	; 0x165f
     884:	5f343654 	svcpl	0x00343654
     888:	45505954 	ldrbmi	r5, [r0, #-2388]	; 0xfffff6ac
     88c:	6c205f5f 	stcvs	15, cr5, [r0], #-380	; 0xfffffe84
     890:	20676e6f 	rsbcs	r6, r7, pc, ror #28
     894:	676e6f6c 	strbvs	r6, [lr, -ip, ror #30]!
     898:	746e6920 	strbtvc	r6, [lr], #-2336	; 0xfffff6e0
     89c:	415f5f00 	cmpmi	pc, r0, lsl #30
     8a0:	465f4d52 			; <UNDEFINED> instruction: 0x465f4d52
     8a4:	55544145 	ldrbpl	r4, [r4, #-325]	; 0xfffffebb
     8a8:	435f4552 	cmpmi	pc, #343932928	; 0x14800000
     8ac:	4f52504f 	svcmi	0x0052504f
     8b0:	35312043 	ldrcc	r2, [r1, #-67]!	; 0xffffffbd
     8b4:	49504700 	ldmdbmi	r0, {r8, r9, sl, lr}^
     8b8:	00745f4f 	rsbseq	r5, r4, pc, asr #30
     8bc:	4c465f5f 	mcrrmi	15, 5, r5, r6, cr15
     8c0:	58323354 	ldmdapl	r2!, {r2, r4, r6, r8, r9, ip, sp}
     8c4:	5341485f 	movtpl	r4, #6239	; 0x185f
     8c8:	4955515f 	ldmdbmi	r5, {r0, r1, r2, r3, r4, r6, r8, ip, lr}^
     8cc:	4e5f5445 	cdpmi	4, 5, cr5, cr15, cr5, {2}
     8d0:	5f5f4e41 	svcpl	0x005f4e41
     8d4:	49003120 	stmdbmi	r0, {r5, r8, ip, sp}
     8d8:	435f4332 	cmpmi	pc, #-939524096	; 0xc8000000
     8dc:	4c5f3252 	lfmmi	f3, 2, [pc], {82}	; 0x52
     8e0:	20545341 	subscs	r5, r4, r1, asr #6
     8e4:	5f433249 	svcpl	0x00433249
     8e8:	5f325243 	svcpl	0x00325243
     8ec:	5453414c 	ldrbpl	r4, [r3], #-332	; 0xfffffeb4
     8f0:	6b734d5f 	blvs	1cd3e74 <_Min_Stack_Size+0x1cd3a74>
     8f4:	49564e00 	ldmdbmi	r6, {r9, sl, fp, lr}^
     8f8:	52495f43 	subpl	r5, r9, #268	; 0x10c
     8fc:	5f375f51 	svcpl	0x00375f51
     900:	49545845 	ldmdbmi	r4, {r0, r2, r6, fp, ip, lr}^
     904:	6e455f31 	mcrvs	15, 2, r5, cr5, cr1, {1}
     908:	656c6261 	strbvs	r6, [ip, #-609]!	; 0xfffffd9f
     90c:	28202928 	stmdacs	r0!, {r3, r5, r8, fp, sp}
     910:	4349564e 	movtmi	r5, #38478	; 0x964e
     914:	4553495f 	ldrbmi	r4, [r3, #-2399]	; 0xfffff6a1
     918:	7c203052 	stcvc	0, cr3, [r0], #-328	; 0xfffffeb8
     91c:	3c31203d 	ldccc	0, cr2, [r1], #-244	; 0xffffff0c
     920:	0029373c 	eoreq	r3, r9, ip, lsr r7
     924:	49545845 	ldmdbmi	r4, {r0, r2, r6, fp, ip, lr}^
     928:	31445031 	cmpcc	r4, r1, lsr r0
     92c:	58452820 	stmdapl	r5, {r5, fp, sp}^
     930:	4d5f4954 	vldrmi.16	s9, [pc, #-168]	; 890 <_Min_Stack_Size+0x490>	; <UNPREDICTABLE>
     934:	69707061 	ldmdbvs	r0!, {r0, r5, r6, ip, sp, lr}^
     938:	745f676e 	ldrbvc	r6, [pc], #-1902	; 940 <_Min_Stack_Size+0x540>
     93c:	58457b29 	stmdapl	r5, {r0, r3, r5, r8, r9, fp, ip, sp, lr}^
     940:	2c314954 			; <UNDEFINED> instruction: 0x2c314954
     944:	49504720 	ldmdbmi	r0, {r5, r8, r9, sl, lr}^
     948:	202c444f 	eorcs	r4, ip, pc, asr #8
     94c:	4f495047 	svcmi	0x00495047
     950:	4e49505f 	mcrmi	0, 2, r5, cr9, cr15, {2}
     954:	202c315f 	eorcs	r3, ip, pc, asr r1
     958:	49545845 	ldmdbmi	r4, {r0, r2, r6, fp, ip, lr}^
     95c:	52495f31 	subpl	r5, r9, #49, 30	; 0xc4
     960:	5f007d51 	svcpl	0x00007d51
     964:	544c465f 	strbpl	r4, [ip], #-1631	; 0xfffff9a1
     968:	4d5f3233 	lfmmi	f3, 2, [pc, #-204]	; 8a4 <_Min_Stack_Size+0x4a4>
     96c:	315f5841 	cmpcc	pc, r1, asr #16
     970:	58455f30 	stmdapl	r5, {r4, r5, r8, r9, sl, fp, ip, lr}^
     974:	205f5f50 	subscs	r5, pc, r0, asr pc	; <UNPREDICTABLE>
     978:	5f003833 	svcpl	0x00003833
     97c:	4653555f 			; <UNDEFINED> instruction: 0x4653555f
     980:	54434152 	strbpl	r4, [r3], #-338	; 0xfffffeae
     984:	58414d5f 	stmdapl	r1, {r0, r1, r2, r3, r4, r6, r8, sl, fp, lr}^
     988:	30205f5f 	eorcc	r5, r0, pc, asr pc
     98c:	50464658 	subpl	r4, r6, r8, asr r6
     990:	4855382d 	ldmdami	r5, {r0, r2, r3, r5, fp, ip, sp}^
     994:	58450052 	stmdapl	r5, {r1, r4, r6}^
     998:	30314954 	eorscc	r4, r1, r4, asr r9
     99c:	00303120 	eorseq	r3, r0, r0, lsr #2
     9a0:	49555f5f 	ldmdbmi	r5, {r0, r1, r2, r3, r4, r6, r8, r9, sl, fp, ip, lr}^
     9a4:	5450544e 	ldrbpl	r5, [r0], #-1102	; 0xfffffbb2
     9a8:	414d5f52 	cmpmi	sp, r2, asr pc
     9ac:	205f5f58 	subscs	r5, pc, r8, asr pc	; <UNPREDICTABLE>
     9b0:	66667830 			; <UNDEFINED> instruction: 0x66667830
     9b4:	66666666 	strbtvs	r6, [r6], -r6, ror #12
     9b8:	00556666 	subseq	r6, r5, r6, ror #12
     9bc:	5f44434c 	svcpl	0x0044434c
     9c0:	505f3444 	subspl	r3, pc, r4, asr #8
     9c4:	47204e49 	strmi	r4, [r0, -r9, asr #28]!
     9c8:	5f4f4950 	svcpl	0x004f4950
     9cc:	5f4e4950 	svcpl	0x004e4950
     9d0:	5f5f0034 	svcpl	0x005f0034
     9d4:	33544c46 	cmpcc	r4, #17920	; 0x4600
     9d8:	494d5f32 	stmdbmi	sp, {r1, r4, r5, r8, r9, sl, fp, ip, lr}^
     9dc:	58455f4e 	stmdapl	r5, {r1, r2, r3, r6, r8, r9, sl, fp, ip, lr}^
     9e0:	205f5f50 	subscs	r5, pc, r0, asr pc	; <UNPREDICTABLE>
     9e4:	32312d28 	eorscc	r2, r1, #40, 26	; 0xa00
     9e8:	49002935 	stmdbmi	r0, {r0, r2, r4, r5, r8, fp, sp}
     9ec:	435f4332 	cmpmi	pc, #-939524096	; 0xc8000000
     9f0:	415f3152 	cmpmi	pc, r2, asr r1	; <UNPREDICTABLE>
     9f4:	4d5f4b43 	vldrmi	d20, [pc, #-268]	; 8f0 <_Min_Stack_Size+0x4f0>
     9f8:	28206b73 	stmdacs	r0!, {r0, r1, r4, r5, r6, r8, r9, fp, sp, lr}
     9fc:	55317830 	ldrpl	r7, [r1, #-2096]!	; 0xfffff7d0
     a00:	3c3c204c 	ldccc	0, cr2, [ip], #-304	; 0xfffffed0
     a04:	43324920 	teqmi	r2, #32, 18	; 0x80000
     a08:	3152435f 	cmpcc	r2, pc, asr r3
     a0c:	4b43415f 	blmi	10d0f90 <_Min_Stack_Size+0x10d0b90>
     a10:	736f505f 	cmnvc	pc, #95	; 0x5f
     a14:	58450029 	stmdapl	r5, {r0, r3, r5}^
     a18:	50364954 	eorspl	r4, r6, r4, asr r9
     a1c:	28203642 	stmdacs	r0!, {r1, r6, r9, sl, ip, sp}
     a20:	49545845 	ldmdbmi	r4, {r0, r2, r6, fp, ip, lr}^
     a24:	70614d5f 	rsbvc	r4, r1, pc, asr sp
     a28:	676e6970 			; <UNDEFINED> instruction: 0x676e6970
     a2c:	7b29745f 	blvc	a5dbb0 <_Min_Stack_Size+0xa5d7b0>
     a30:	49545845 	ldmdbmi	r4, {r0, r2, r6, fp, ip, lr}^
     a34:	47202c36 			; <UNDEFINED> instruction: 0x47202c36
     a38:	424f4950 	submi	r4, pc, #80, 18	; 0x140000
     a3c:	5047202c 	subpl	r2, r7, ip, lsr #32
     a40:	505f4f49 	subspl	r4, pc, r9, asr #30
     a44:	365f4e49 	ldrbcc	r4, [pc], -r9, asr #28
     a48:	5845202c 	stmdapl	r5, {r2, r3, r5, sp}^
     a4c:	5f364954 	svcpl	0x00364954
     a50:	7d515249 	lfmvc	f5, 2, [r1, #-292]	; 0xfffffedc
     a54:	49504700 	ldmdbmi	r0, {r8, r9, sl, lr}^
     a58:	50535f4f 	subspl	r5, r3, pc, asr #30
     a5c:	5f444545 	svcpl	0x00444545
     a60:	484d3031 	stmdami	sp, {r0, r4, r5, ip, sp}^
     a64:	7830207a 	ldmdavc	r0!, {r1, r3, r4, r5, r6, sp}
     a68:	30303030 	eorscc	r3, r0, r0, lsr r0
     a6c:	31303030 	teqcc	r0, r0, lsr r0
     a70:	50470055 	subpl	r0, r7, r5, asr r0
     a74:	535f4f49 	cmppl	pc, #292	; 0x124
     a78:	44454550 	strbmi	r4, [r5], #-1360	; 0xfffffab0
     a7c:	484d325f 	stmdami	sp, {r0, r1, r2, r3, r4, r6, r9, ip, sp}^
     a80:	7830207a 	ldmdavc	r0!, {r1, r3, r4, r5, r6, sp}
     a84:	30303030 	eorscc	r3, r0, r0, lsr r0
     a88:	32303030 	eorscc	r3, r0, #48	; 0x30
     a8c:	58450055 	stmdapl	r5, {r0, r2, r4, r6}^
     a90:	34314954 	ldrtcc	r4, [r1], #-2388	; 0xfffff6ac
     a94:	5152495f 	cmppl	r2, pc, asr r9
     a98:	00303420 	eorseq	r3, r0, r0, lsr #8
     a9c:	4f495047 	svcmi	0x00495047
     aa0:	444f4d5f 	strbmi	r4, [pc], #-3423	; aa8 <_Min_Stack_Size+0x6a8>
     aa4:	4e495f45 	cdpmi	15, 4, cr5, cr9, cr5, {2}
     aa8:	5f545550 	svcpl	0x00545550
     aac:	30204450 	eorcc	r4, r0, r0, asr r4
     ab0:	30303078 	eorscc	r3, r0, r8, ror r0
     ab4:	30303030 	eorscc	r3, r0, r0, lsr r0
     ab8:	5f005533 	svcpl	0x00005533
     abc:	464c555f 			; <UNDEFINED> instruction: 0x464c555f
     ac0:	54434152 	strbpl	r4, [r3], #-338	; 0xfffffeae
     ac4:	4942465f 	stmdbmi	r2, {r0, r1, r2, r3, r4, r6, r9, sl, lr}^
     ac8:	205f5f54 	subscs	r5, pc, r4, asr pc	; <UNPREDICTABLE>
     acc:	45003233 	strmi	r3, [r0, #-563]	; 0xfffffdcd
     ad0:	31495458 	cmpcc	r9, r8, asr r4
     ad4:	32312032 	eorscc	r2, r1, #50	; 0x32
     ad8:	465f5f00 	ldrbmi	r5, [pc], -r0, lsl #30
     adc:	3436544c 	ldrtcc	r5, [r6], #-1100	; 0xfffffbb4
     ae0:	4e494d5f 	mcrmi	13, 2, r4, cr9, cr15, {2}
     ae4:	5f30315f 	svcpl	0x0030315f
     ae8:	5f505845 	svcpl	0x00505845
     aec:	2d28205f 	stccs	0, cr2, [r8, #-380]!	; 0xfffffe84
     af0:	29373033 	ldmdbcs	r7!, {r0, r1, r4, r5, ip, sp}
     af4:	475f5f00 	ldrbmi	r5, [pc, -r0, lsl #30]
     af8:	5f43554e 	svcpl	0x0043554e
     afc:	43455845 	movtmi	r5, #22597	; 0x5845
     b00:	4f495455 	svcmi	0x00495455
     b04:	48435f4e 	stmdami	r3, {r1, r2, r3, r6, r8, r9, sl, fp, ip, lr}^
     b08:	45535241 	ldrbmi	r5, [r3, #-577]	; 0xfffffdbf
     b0c:	414e5f54 	cmpmi	lr, r4, asr pc
     b10:	2220454d 	eorcs	r4, r0, #322961408	; 0x13400000
     b14:	2d465455 	cfstrdcs	mvd5, [r6, #-340]	; 0xfffffeac
     b18:	45002238 	strmi	r2, [r0, #-568]	; 0xfffffdc8
     b1c:	31495458 	cmpcc	r9, r8, asr r4
     b20:	5152495f 	cmppl	r2, pc, asr r9
     b24:	4c003720 	stcmi	7, cr3, [r0], {32}
     b28:	445f4443 	ldrbmi	r4, [pc], #-1091	; b30 <_Min_Stack_Size+0x730>
     b2c:	49505f35 	ldmdbmi	r0, {r0, r2, r4, r5, r8, r9, sl, fp, ip, lr}^
     b30:	5047204e 	subpl	r2, r7, lr, asr #32
     b34:	505f4f49 	subspl	r4, pc, r9, asr #30
     b38:	355f4e49 	ldrbcc	r4, [pc, #-3657]	; fffffcf7 <_estack+0xdfffd4f7>
     b3c:	495f5f00 	ldmdbmi	pc, {r8, r9, sl, fp, ip, lr}^	; <UNPREDICTABLE>
     b40:	465f544e 	ldrbmi	r5, [pc], -lr, asr #8
     b44:	36545341 	ldrbcc	r5, [r4], -r1, asr #6
     b48:	49575f34 	ldmdbmi	r7, {r2, r4, r5, r8, r9, sl, fp, ip, lr}^
     b4c:	5f485444 	svcpl	0x00485444
     b50:	3436205f 	ldrtcc	r2, [r6], #-95	; 0xffffffa1
     b54:	465f5f00 	ldrbmi	r5, [pc], -r0, lsl #30
     b58:	3436544c 	ldrtcc	r5, [r6], #-1100	; 0xfffffbb4
     b5c:	4345445f 	movtmi	r4, #21599	; 0x545f
     b60:	4c414d49 	mcrrmi	13, 4, r4, r1, cr9
     b64:	4749445f 	smlsldmi	r4, r9, pc, r4	; <UNPREDICTABLE>
     b68:	31205f5f 			; <UNDEFINED> instruction: 0x31205f5f
     b6c:	58450037 	stmdapl	r5, {r0, r1, r2, r4, r5}^
     b70:	50324954 	eorspl	r4, r2, r4, asr r9
     b74:	28203243 	stmdacs	r0!, {r0, r1, r6, r9, ip, sp}
     b78:	49545845 	ldmdbmi	r4, {r0, r2, r6, fp, ip, lr}^
     b7c:	70614d5f 	rsbvc	r4, r1, pc, asr sp
     b80:	676e6970 			; <UNDEFINED> instruction: 0x676e6970
     b84:	7b29745f 	blvc	a5dd08 <_Min_Stack_Size+0xa5d908>
     b88:	49545845 	ldmdbmi	r4, {r0, r2, r6, fp, ip, lr}^
     b8c:	47202c32 			; <UNDEFINED> instruction: 0x47202c32
     b90:	434f4950 	movtmi	r4, #63824	; 0xf950
     b94:	5047202c 	subpl	r2, r7, ip, lsr #32
     b98:	505f4f49 	subspl	r4, pc, r9, asr #30
     b9c:	325f4e49 	subscc	r4, pc, #1168	; 0x490
     ba0:	5845202c 	stmdapl	r5, {r2, r3, r5, sp}^
     ba4:	5f324954 	svcpl	0x00324954
     ba8:	7d515249 	lfmvc	f5, 2, [r1, #-292]	; 0xfffffedc
     bac:	555f5f00 	ldrbpl	r5, [pc, #-3840]	; fffffcb4 <_estack+0xdfffd4b4>
     bb0:	55434341 	strbpl	r4, [r3, #-833]	; 0xfffffcbf
     bb4:	42465f4d 	submi	r5, r6, #308	; 0x134
     bb8:	5f5f5449 	svcpl	0x005f5449
     bbc:	00363120 	eorseq	r3, r6, r0, lsr #2
     bc0:	5f44434c 	svcpl	0x0044434c
     bc4:	505f3344 	subspl	r3, pc, r4, asr #6
     bc8:	47204e49 	strmi	r4, [r0, -r9, asr #28]!
     bcc:	5f4f4950 	svcpl	0x004f4950
     bd0:	5f4e4950 	svcpl	0x004e4950
     bd4:	564e0033 			; <UNDEFINED> instruction: 0x564e0033
     bd8:	495f4349 	ldmdbmi	pc, {r0, r3, r6, r8, r9, lr}^	; <UNPREDICTABLE>
     bdc:	365f5152 			; <UNDEFINED> instruction: 0x365f5152
     be0:	5458455f 	ldrbpl	r4, [r8], #-1375	; 0xfffffaa1
     be4:	455f3049 	ldrbmi	r3, [pc, #-73]	; ba3 <_Min_Stack_Size+0x7a3>
     be8:	6c62616e 	stfvse	f6, [r2], #-440	; 0xfffffe48
     bec:	20292865 	eorcs	r2, r9, r5, ror #16
     bf0:	49564e28 	ldmdbmi	r6, {r3, r5, r9, sl, fp, lr}^
     bf4:	53495f43 	movtpl	r5, #40771	; 0x9f43
     bf8:	20305245 	eorscs	r5, r0, r5, asr #4
     bfc:	31203d7c 			; <UNDEFINED> instruction: 0x31203d7c
     c00:	29363c3c 	ldmdbcs	r6!, {r2, r3, r4, r5, sl, fp, ip, sp}
     c04:	535f5f00 	cmppl	pc, #0, 30
     c08:	43415246 	movtmi	r5, #4678	; 0x1246
     c0c:	50455f54 	subpl	r5, r5, r4, asr pc
     c10:	4f4c4953 	svcmi	0x004c4953
     c14:	205f5f4e 	subscs	r5, pc, lr, asr #30
     c18:	50317830 	eorspl	r7, r1, r0, lsr r8
     c1c:	5248372d 	subpl	r3, r8, #11796480	; 0xb40000
     c20:	706e7500 	rsbvc	r7, lr, r0, lsl #10
     c24:	69766972 	ldmdbvs	r6!, {r1, r4, r5, r6, r8, fp, sp, lr}^
     c28:	6567656c 	strbvs	r6, [r7, #-1388]!	; 0xfffffa94
     c2c:	564e0064 	strbpl	r0, [lr], -r4, rrx
     c30:	495f4349 	ldmdbmi	pc, {r0, r3, r6, r8, r9, lr}^	; <UNPREDICTABLE>
     c34:	32335152 	eorscc	r5, r3, #-2147483628	; 0x80000014
     c38:	4332495f 	teqmi	r2, #1556480	; 0x17c000
     c3c:	52455f31 	subpl	r5, r5, #49, 30	; 0xc4
     c40:	7369445f 	cmnvc	r9, #1593835520	; 0x5f000000
     c44:	656c6261 	strbvs	r6, [ip, #-609]!	; 0xfffffd9f
     c48:	28202928 	stmdacs	r0!, {r3, r5, r8, fp, sp}
     c4c:	4349564e 	movtmi	r5, #38478	; 0x964e
     c50:	4543495f 	strbmi	r4, [r3, #-2399]	; 0xfffff6a1
     c54:	7c203152 	stfvcs	f3, [r0], #-328	; 0xfffffeb8
     c58:	3c31203d 	ldccc	0, cr2, [r1], #-244	; 0xffffff0c
     c5c:	4920283c 	stmdbmi	r0!, {r2, r3, r4, r5, fp, sp}
     c60:	5f314332 	svcpl	0x00314332
     c64:	495f5245 	ldmdbmi	pc, {r0, r2, r6, r9, ip, lr}^	; <UNPREDICTABLE>
     c68:	2d205152 	stfcss	f5, [r0, #-328]!	; 0xfffffeb8
     c6c:	20323320 	eorscs	r3, r2, r0, lsr #6
     c70:	5f002929 	svcpl	0x00002929
     c74:	544e495f 	strbpl	r4, [lr], #-2399	; 0xfffff6a1
     c78:	435f3233 	cmpmi	pc, #805306371	; 0x30000003
     c7c:	20296328 	eorcs	r6, r9, r8, lsr #6
     c80:	23232063 			; <UNDEFINED> instruction: 0x23232063
     c84:	5f004c20 	svcpl	0x00004c20
     c88:	5153555f 	cmppl	r3, pc, asr r5
     c8c:	4942465f 	stmdbmi	r2, {r0, r1, r2, r3, r4, r6, r9, sl, lr}^
     c90:	205f5f54 	subscs	r5, pc, r4, asr pc	; <UNPREDICTABLE>
     c94:	5f003233 	svcpl	0x00003233
     c98:	44524f5f 	ldrbmi	r4, [r2], #-3935	; 0xfffff0a1
     c9c:	425f5245 	subsmi	r5, pc, #1342177284	; 0x50000004
     ca0:	455f4749 	ldrbmi	r4, [pc, #-1865]	; 55f <_Min_Stack_Size+0x15f>
     ca4:	4149444e 	cmpmi	r9, lr, asr #8
     ca8:	205f5f4e 	subscs	r5, pc, lr, asr #30
     cac:	31323334 	teqcc	r2, r4, lsr r3
     cb0:	555f5f00 	ldrbpl	r5, [pc, #-3840]	; fffffdb8 <_estack+0xdfffd5b8>
     cb4:	43434153 	movtmi	r4, #12627	; 0x3153
     cb8:	465f4d55 			; <UNDEFINED> instruction: 0x465f4d55
     cbc:	5f544942 	svcpl	0x00544942
     cc0:	0038205f 	eorseq	r2, r8, pc, asr r0
     cc4:	49555f5f 	ldmdbmi	r5, {r0, r1, r2, r3, r4, r6, r8, r9, sl, fp, ip, lr}^
     cc8:	465f544e 	ldrbmi	r5, [pc], -lr, asr #8
     ccc:	36545341 	ldrbcc	r5, [r4], -r1, asr #6
     cd0:	59545f34 	ldmdbpl	r4, {r2, r4, r5, r8, r9, sl, fp, ip, lr}^
     cd4:	5f5f4550 	svcpl	0x005f4550
     cd8:	6e6f6c20 	cdpvs	12, 6, cr6, cr15, cr0, {1}
     cdc:	6f6c2067 	svcvs	0x006c2067
     ce0:	7520676e 	strvc	r6, [r0, #-1902]!	; 0xfffff892
     ce4:	6769736e 	strbvs	r7, [r9, -lr, ror #6]!
     ce8:	2064656e 	rsbcs	r6, r4, lr, ror #10
     cec:	00746e69 	rsbseq	r6, r4, r9, ror #28
     cf0:	51535f5f 	cmppl	r3, pc, asr pc
     cf4:	4942465f 	stmdbmi	r2, {r0, r1, r2, r3, r4, r6, r9, sl, lr}^
     cf8:	205f5f54 	subscs	r5, pc, r4, asr pc	; <UNPREDICTABLE>
     cfc:	47003133 	smladxmi	r0, r3, r1, r3
     d00:	5f4f4950 	svcpl	0x004f4950
     d04:	45444f4d 	strbmi	r4, [r4, #-3917]	; 0xfffff0b3
     d08:	504e495f 	subpl	r4, lr, pc, asr r9
     d0c:	505f5455 	subspl	r5, pc, r5, asr r4	; <UNPREDICTABLE>
     d10:	78302055 	ldmdavc	r0!, {r0, r2, r4, r6, sp}
     d14:	30303030 	eorscc	r3, r0, r0, lsr r0
     d18:	32303030 	eorscc	r3, r0, #48	; 0x30
     d1c:	58450055 	stmdapl	r5, {r0, r2, r4, r6}^
     d20:	30314954 	eorscc	r4, r1, r4, asr r9
     d24:	30314350 	eorscc	r4, r1, r0, asr r3
     d28:	58452820 	stmdapl	r5, {r5, fp, sp}^
     d2c:	4d5f4954 	vldrmi.16	s9, [pc, #-168]	; c8c <_Min_Stack_Size+0x88c>	; <UNPREDICTABLE>
     d30:	69707061 	ldmdbvs	r0!, {r0, r5, r6, ip, sp, lr}^
     d34:	745f676e 	ldrbvc	r6, [pc], #-1902	; d3c <_Min_Stack_Size+0x93c>
     d38:	58457b29 	stmdapl	r5, {r0, r3, r5, r8, r9, fp, ip, sp, lr}^
     d3c:	30314954 	eorscc	r4, r1, r4, asr r9
     d40:	5047202c 	subpl	r2, r7, ip, lsr #32
     d44:	2c434f49 	mcrrcs	15, 4, r4, r3, cr9
     d48:	49504720 	ldmdbmi	r0, {r5, r8, r9, sl, lr}^
     d4c:	49505f4f 	ldmdbmi	r0, {r0, r1, r2, r3, r6, r8, r9, sl, fp, ip, lr}^
     d50:	30315f4e 	eorscc	r5, r1, lr, asr #30
     d54:	5845202c 	stmdapl	r5, {r2, r3, r5, sp}^
     d58:	30314954 	eorscc	r4, r1, r4, asr r9
     d5c:	5152495f 	cmppl	r2, pc, asr r9
     d60:	3249007d 	subcc	r0, r9, #125	; 0x7d
     d64:	52435f43 	subpl	r5, r3, #268	; 0x10c
     d68:	45505f31 	ldrbmi	r5, [r0, #-3889]	; 0xfffff0cf
     d6c:	32492043 	subcc	r2, r9, #67	; 0x43
     d70:	52435f43 	subpl	r5, r3, #268	; 0x10c
     d74:	45505f31 	ldrbmi	r5, [r0, #-3889]	; 0xfffff0cf
     d78:	734d5f43 	movtvc	r5, #57155	; 0xdf43
     d7c:	5845006b 	stmdapl	r5, {r0, r1, r3, r5, r6}^
     d80:	50314954 	eorspl	r4, r1, r4, asr r9
     d84:	28203143 	stmdacs	r0!, {r0, r1, r6, r8, ip, sp}
     d88:	49545845 	ldmdbmi	r4, {r0, r2, r6, fp, ip, lr}^
     d8c:	70614d5f 	rsbvc	r4, r1, pc, asr sp
     d90:	676e6970 			; <UNDEFINED> instruction: 0x676e6970
     d94:	7b29745f 	blvc	a5df18 <_Min_Stack_Size+0xa5db18>
     d98:	49545845 	ldmdbmi	r4, {r0, r2, r6, fp, ip, lr}^
     d9c:	47202c31 			; <UNDEFINED> instruction: 0x47202c31
     da0:	434f4950 	movtmi	r4, #63824	; 0xf950
     da4:	5047202c 	subpl	r2, r7, ip, lsr #32
     da8:	505f4f49 	subspl	r4, pc, r9, asr #30
     dac:	315f4e49 	cmpcc	pc, r9, asr #28
     db0:	5845202c 	stmdapl	r5, {r2, r3, r5, sp}^
     db4:	5f314954 	svcpl	0x00314954
     db8:	7d515249 	lfmvc	f5, 2, [r1, #-292]	; 0xfffffedc
     dbc:	43324900 	teqmi	r2, #0, 18
     dc0:	3252435f 	subscc	r4, r2, #2080374785	; 0x7c000001
     dc4:	4554495f 	ldrbmi	r4, [r4, #-2399]	; 0xfffff6a1
     dc8:	4e455252 	mcrmi	2, 2, r5, cr5, cr2, {2}
     dcc:	736f505f 	cmnvc	pc, #95	; 0x5f
     dd0:	55382820 	ldrpl	r2, [r8, #-2080]!	; 0xfffff7e0
     dd4:	32490029 	subcc	r0, r9, #41	; 0x29
     dd8:	52535f43 	subspl	r5, r3, #268	; 0x10c
     ddc:	54535f31 	ldrbpl	r5, [r3], #-3889	; 0xfffff0cf
     de0:	5f46504f 	svcpl	0x0046504f
     de4:	206b734d 	rsbcs	r7, fp, sp, asr #6
     de8:	31783028 	cmncc	r8, r8, lsr #32
     dec:	3c204c55 	stccc	12, cr4, [r0], #-340	; 0xfffffeac
     df0:	3249203c 	subcc	r2, r9, #60	; 0x3c
     df4:	52535f43 	subspl	r5, r3, #268	; 0x10c
     df8:	54535f31 	ldrbpl	r5, [r3], #-3889	; 0xfffff0cf
     dfc:	5f46504f 	svcpl	0x0046504f
     e00:	29736f50 	ldmdbcs	r3!, {r4, r6, r8, r9, sl, fp, sp, lr}^
     e04:	49504700 	ldmdbmi	r0, {r8, r9, sl, lr}^
     e08:	49505f4f 	ldmdbmi	r0, {r0, r1, r2, r3, r6, r8, r9, sl, fp, ip, lr}^
     e0c:	20385f4e 	eorscs	r5, r8, lr, asr #30
     e10:	69752828 	ldmdbvs	r5!, {r3, r5, fp, sp}^
     e14:	3631746e 	ldrtcc	r7, [r1], -lr, ror #8
     e18:	3029745f 	eorcc	r7, r9, pc, asr r4
     e1c:	30313078 	eorscc	r3, r1, r8, ror r0
     e20:	5f002930 	svcpl	0x00002930
     e24:	544c465f 	strbpl	r4, [ip], #-1631	; 0xfffff9a1
     e28:	4d5f3436 	cfldrdmi	mvd3, [pc, #-216]	; d58 <_Min_Stack_Size+0x958>
     e2c:	455f4e49 	ldrbmi	r4, [pc, #-3657]	; ffffffeb <_estack+0xdfffd7eb>
     e30:	5f5f5058 	svcpl	0x005f5058
     e34:	312d2820 			; <UNDEFINED> instruction: 0x312d2820
     e38:	29313230 	ldmdbcs	r1!, {r4, r5, r9, ip, sp}
     e3c:	505f5f00 	subspl	r5, pc, r0, lsl #30
     e40:	49445254 	stmdbmi	r4, {r2, r4, r6, r9, ip, lr}^
     e44:	575f4646 	ldrbpl	r4, [pc, -r6, asr #12]
     e48:	48544449 	ldmdami	r4, {r0, r3, r6, sl, lr}^
     e4c:	33205f5f 			; <UNDEFINED> instruction: 0x33205f5f
     e50:	5f5f0032 	svcpl	0x005f0032
     e54:	544e4955 	strbpl	r4, [lr], #-2389	; 0xfffff6ab
     e58:	5341465f 	movtpl	r4, #5727	; 0x165f
     e5c:	4d5f3854 	ldclmi	8, cr3, [pc, #-336]	; d14 <_Min_Stack_Size+0x914>
     e60:	5f5f5841 	svcpl	0x005f5841
     e64:	66783020 	ldrbtvs	r3, [r8], -r0, lsr #32
     e68:	66666666 	strbtvs	r6, [r6], -r6, ror #12
     e6c:	55666666 	strbpl	r6, [r6, #-1638]!	; 0xfffff99a
     e70:	54584500 	ldrbpl	r4, [r8], #-1280	; 0xfffffb00
     e74:	49505f49 	ldmdbmi	r0, {r0, r3, r6, r8, r9, sl, fp, ip, lr}^
     e78:	4e4f434e 	cdpmi	3, 4, cr4, cr15, cr14, {2}
     e7c:	5f474946 	svcpl	0x00474946
     e80:	50470074 	subpl	r0, r7, r4, ror r0
     e84:	505f4f49 	subspl	r4, pc, r9, asr #30
     e88:	325f4e49 	subscc	r4, pc, #1168	; 0x490
     e8c:	75282820 	strvc	r2, [r8, #-2080]!	; 0xfffff7e0
     e90:	31746e69 	cmncc	r4, r9, ror #28
     e94:	29745f36 	ldmdbcs	r4!, {r1, r2, r4, r5, r8, r9, sl, fp, ip, lr}^
     e98:	30307830 	eorscc	r7, r0, r0, lsr r8
     e9c:	00293430 	eoreq	r3, r9, r0, lsr r4
     ea0:	49545845 	ldmdbmi	r4, {r0, r2, r6, fp, ip, lr}^
     ea4:	33425033 	movtcc	r5, #8243	; 0x2033
     ea8:	58452820 	stmdapl	r5, {r5, fp, sp}^
     eac:	4d5f4954 	vldrmi.16	s9, [pc, #-168]	; e0c <_Min_Stack_Size+0xa0c>	; <UNPREDICTABLE>
     eb0:	69707061 	ldmdbvs	r0!, {r0, r5, r6, ip, sp, lr}^
     eb4:	745f676e 	ldrbvc	r6, [pc], #-1902	; ebc <_Min_Stack_Size+0xabc>
     eb8:	58457b29 	stmdapl	r5, {r0, r3, r5, r8, r9, fp, ip, sp, lr}^
     ebc:	2c334954 			; <UNDEFINED> instruction: 0x2c334954
     ec0:	49504720 	ldmdbmi	r0, {r5, r8, r9, sl, lr}^
     ec4:	202c424f 	eorcs	r4, ip, pc, asr #4
     ec8:	4f495047 	svcmi	0x00495047
     ecc:	4e49505f 	mcrmi	0, 2, r5, cr9, cr15, {2}
     ed0:	202c335f 	eorcs	r3, ip, pc, asr r3
     ed4:	49545845 	ldmdbmi	r4, {r0, r2, r6, fp, ip, lr}^
     ed8:	52495f33 	subpl	r5, r9, #51, 30	; 0xcc
     edc:	5f007d51 	svcpl	0x00007d51
     ee0:	43414c5f 	movtmi	r4, #7263	; 0x1c5f
     ee4:	5f4d5543 	svcpl	0x004d5543
     ee8:	54494249 	strbpl	r4, [r9], #-585	; 0xfffffdb7
     eec:	33205f5f 			; <UNDEFINED> instruction: 0x33205f5f
     ef0:	58450032 	stmdapl	r5, {r1, r4, r5}^
     ef4:	425f4954 	subsmi	r4, pc, #84, 18	; 0x150000
     ef8:	20455341 	subcs	r5, r5, r1, asr #6
     efc:	30347830 	eorscc	r7, r4, r0, lsr r8
     f00:	34303130 	ldrtcc	r3, [r0], #-304	; 0xfffffed0
     f04:	4c553030 	mrrcmi	0, 3, r3, r5, cr0
     f08:	43324900 	teqmi	r2, #0, 18
     f0c:	3252435f 	subscc	r4, r2, #2080374785	; 0x7c000001
     f10:	4552465f 	ldrbmi	r4, [r2, #-1631]	; 0xfffff9a1
     f14:	734d5f51 	movtvc	r5, #57169	; 0xdf51
     f18:	3028206b 	eorcc	r2, r8, fp, rrx
     f1c:	55463378 	strbpl	r3, [r6, #-888]	; 0xfffffc88
     f20:	3c3c204c 	ldccc	0, cr2, [ip], #-304	; 0xfffffed0
     f24:	43324920 	teqmi	r2, #32, 18	; 0x80000
     f28:	3252435f 	subscc	r4, r2, #2080374785	; 0x7c000001
     f2c:	4552465f 	ldrbmi	r4, [r2, #-1631]	; 0xfffff9a1
     f30:	6f505f51 	svcvs	0x00505f51
     f34:	5f002973 	svcpl	0x00002973
     f38:	544e495f 	strbpl	r4, [lr], #-2399	; 0xfffff6a1
     f3c:	5341465f 	movtpl	r4, #5727	; 0x165f
     f40:	5f363154 	svcpl	0x00363154
     f44:	54444957 	strbpl	r4, [r4], #-2391	; 0xfffff6a9
     f48:	205f5f48 	subscs	r5, pc, r8, asr #30
     f4c:	4e003233 	mcrmi	2, 0, r3, cr0, cr3, {1}
     f50:	5f434956 	svcpl	0x00434956
     f54:	33515249 	cmpcc	r1, #-1879048188	; 0x90000004
     f58:	53555f39 	cmppl	r5, #57, 30	; 0xe4
     f5c:	33545241 	cmpcc	r4, #268435460	; 0x10000004
     f60:	7369445f 	cmnvc	r9, #1593835520	; 0x5f000000
     f64:	656c6261 	strbvs	r6, [ip, #-609]!	; 0xfffffd9f
     f68:	28202928 	stmdacs	r0!, {r3, r5, r8, fp, sp}
     f6c:	4349564e 	movtmi	r5, #38478	; 0x964e
     f70:	4543495f 	strbmi	r4, [r3, #-2399]	; 0xfffff6a1
     f74:	7c203152 	stfvcs	f3, [r0], #-328	; 0xfffffeb8
     f78:	3c31203d 	ldccc	0, cr2, [r1], #-244	; 0xffffff0c
     f7c:	5355283c 	cmppl	r5, #60, 16	; 0x3c0000
     f80:	33545241 	cmpcc	r4, #268435460	; 0x10000004
     f84:	5152495f 	cmppl	r2, pc, asr r9
     f88:	33202d20 			; <UNDEFINED> instruction: 0x33202d20
     f8c:	00292932 	eoreq	r2, r9, r2, lsr r9
     f90:	5f44434c 	svcpl	0x0044434c
     f94:	50534944 	subspl	r4, r3, r4, asr #18
     f98:	5f59414c 	svcpl	0x0059414c
     f9c:	555f4e4f 	ldrbpl	r4, [pc, #-3663]	; 155 <_Min_Heap_Size-0xab>
     fa0:	5245444e 	subpl	r4, r5, #1308622848	; 0x4e000000
     fa4:	454e494c 	strbmi	r4, [lr, #-2380]	; 0xfffff6b4
     fa8:	46464f5f 			; <UNDEFINED> instruction: 0x46464f5f
     fac:	5255435f 	subspl	r4, r5, #2080374785	; 0x7c000001
     fb0:	5f524f53 	svcpl	0x00524f53
     fb4:	30204e4f 	eorcc	r4, r0, pc, asr #28
     fb8:	00443078 	subeq	r3, r4, r8, ror r0
     fbc:	46565f5f 	usaxmi	r5, r6, pc	; <UNPREDICTABLE>
     fc0:	50465f50 	subpl	r5, r6, r0, asr pc
     fc4:	31205f5f 			; <UNDEFINED> instruction: 0x31205f5f
     fc8:	4c5f5f00 	mrrcmi	15, 0, r5, pc, cr0	; <UNPREDICTABLE>
     fcc:	4152464c 	cmpmi	r2, ip, asr #12
     fd0:	4d5f5443 	cfldrdmi	mvd5, [pc, #-268]	; ecc <_Min_Stack_Size+0xacc>
     fd4:	5f5f4e49 	svcpl	0x005f4e49
     fd8:	302d2820 	eorcc	r2, sp, r0, lsr #16
     fdc:	4c4c352e 	cfstr64mi	mvdx3, [ip], {46}	; 0x2e
     fe0:	2e302d52 	mrccs	13, 1, r2, cr0, cr2, {2}
     fe4:	524c4c35 	subpl	r4, ip, #13568	; 0x3500
     fe8:	58450029 	stmdapl	r5, {r0, r3, r5}^
     fec:	5f394954 	svcpl	0x00394954
     ff0:	20515249 	subscs	r5, r1, r9, asr #4
     ff4:	5f003332 	svcpl	0x00003332
     ff8:	4e49555f 	mcrmi	5, 2, r5, cr9, cr15, {2}
     ffc:	41465f54 	cmpmi	r6, r4, asr pc
    1000:	36315453 			; <UNDEFINED> instruction: 0x36315453
    1004:	58414d5f 	stmdapl	r1, {r0, r1, r2, r3, r4, r6, r8, sl, fp, lr}^
    1008:	30205f5f 	eorcc	r5, r0, pc, asr pc
    100c:	66666678 			; <UNDEFINED> instruction: 0x66666678
    1010:	66666666 	strbtvs	r6, [r6], -r6, ror #12
    1014:	45005566 	strmi	r5, [r0, #-1382]	; 0xfffffa9a
    1018:	31495458 	cmpcc	r9, r8, asr r4
    101c:	34312034 	ldrtcc	r2, [r1], #-52	; 0xffffffcc
    1020:	495f5f00 	ldmdbmi	pc, {r8, r9, sl, fp, ip, lr}^	; <UNPREDICTABLE>
    1024:	5450544e 	ldrbpl	r5, [r0], #-1102	; 0xfffffbb2
    1028:	59545f52 	ldmdbpl	r4, {r1, r4, r6, r8, r9, sl, fp, ip, lr}^
    102c:	5f5f4550 	svcpl	0x005f4550
    1030:	746e6920 	strbtvc	r6, [lr], #-2336	; 0xfffff6e0
    1034:	495f5f00 	ldmdbmi	pc, {r8, r9, sl, fp, ip, lr}^	; <UNPREDICTABLE>
    1038:	5450544e 	ldrbpl	r5, [r0], #-1102	; 0xfffffbb2
    103c:	414d5f52 	cmpmi	sp, r2, asr pc
    1040:	205f5f58 	subscs	r5, pc, r8, asr pc	; <UNPREDICTABLE>
    1044:	66377830 			; <UNDEFINED> instruction: 0x66377830
    1048:	66666666 	strbtvs	r6, [r6], -r6, ror #12
    104c:	4e006666 	cfmadd32mi	mvax3, mvfx6, mvfx0, mvfx6
    1050:	5f434956 	svcpl	0x00434956
    1054:	33515249 	cmpcc	r1, #-1879048188	; 0x90000004
    1058:	32495f33 	subcc	r5, r9, #51, 30	; 0xcc
    105c:	455f3243 	ldrbmi	r3, [pc, #-579]	; e21 <_Min_Stack_Size+0xa21>
    1060:	6e455f56 	mcrvs	15, 2, r5, cr5, cr6, {2}
    1064:	656c6261 	strbvs	r6, [ip, #-609]!	; 0xfffffd9f
    1068:	28202928 	stmdacs	r0!, {r3, r5, r8, fp, sp}
    106c:	4349564e 	movtmi	r5, #38478	; 0x964e
    1070:	4553495f 	ldrbmi	r4, [r3, #-2399]	; 0xfffff6a1
    1074:	7c203152 	stfvcs	f3, [r0], #-328	; 0xfffffeb8
    1078:	3c31203d 	ldccc	0, cr2, [r1], #-244	; 0xffffff0c
    107c:	4920283c 	stmdbmi	r0!, {r2, r3, r4, r5, fp, sp}
    1080:	5f324332 	svcpl	0x00324332
    1084:	495f5645 	ldmdbmi	pc, {r0, r2, r6, r9, sl, ip, lr}^	; <UNPREDICTABLE>
    1088:	2d205152 	stfcss	f5, [r0, #-328]!	; 0xfffffeb8
    108c:	20323320 	eorscs	r3, r2, r0, lsr #6
    1090:	45002929 	strmi	r2, [r0, #-2345]	; 0xfffff6d7
    1094:	5f495458 	svcpl	0x00495458
    1098:	5f515249 	svcpl	0x00515249
    109c:	61736944 	cmnvs	r3, r4, asr #18
    10a0:	20656c62 	rsbcs	r6, r5, r2, ror #24
    10a4:	564e0030 			; <UNDEFINED> instruction: 0x564e0030
    10a8:	495f4349 	ldmdbmi	pc, {r0, r3, r6, r8, r9, lr}^	; <UNPREDICTABLE>
    10ac:	32335152 	eorscc	r5, r3, #-2147483628	; 0x80000014
    10b0:	4332495f 	teqmi	r2, #1556480	; 0x17c000
    10b4:	52455f31 	subpl	r5, r5, #49, 30	; 0xc4
    10b8:	616e455f 	cmnvs	lr, pc, asr r5
    10bc:	28656c62 	stmdacs	r5!, {r1, r5, r6, sl, fp, sp, lr}^
    10c0:	4e282029 	cdpmi	0, 2, cr2, cr8, cr9, {1}
    10c4:	5f434956 	svcpl	0x00434956
    10c8:	52455349 	subpl	r5, r5, #603979777	; 0x24000001
    10cc:	3d7c2031 	ldclcc	0, cr2, [ip, #-196]!	; 0xffffff3c
    10d0:	3c3c3120 	ldfccs	f3, [ip], #-128	; 0xffffff80
    10d4:	32492028 	subcc	r2, r9, #40	; 0x28
    10d8:	455f3143 	ldrbmi	r3, [pc, #-323]	; f9d <_Min_Stack_Size+0xb9d>
    10dc:	52495f52 	subpl	r5, r9, #328	; 0x148
    10e0:	202d2051 	eorcs	r2, sp, r1, asr r0
    10e4:	29203233 	stmdbcs	r0!, {r0, r1, r4, r5, r9, ip, sp}
    10e8:	534f0029 	movtpl	r0, #61481	; 0xf029
    10ec:	6977535f 	ldmdbvs	r7!, {r0, r1, r2, r3, r4, r6, r8, r9, ip, lr}^
    10f0:	54686374 	strbtpl	r6, [r8], #-884	; 0xfffffc8c
    10f4:	53505f6f 	cmppl	r0, #444	; 0x1bc
    10f8:	5f5f2050 	svcpl	0x005f2050
    10fc:	206d7361 	rsbcs	r7, sp, r1, ror #6
    1100:	616c6f76 	smcvs	50934	; 0xc6f6
    1104:	656c6974 	strbvs	r6, [ip, #-2420]!	; 0xfffff68c
    1108:	524d2228 	subpl	r2, sp, #40, 4	; 0x80000002
    110c:	30722053 	rsbscc	r2, r2, r3, asr r0
    1110:	4e4f432c 	cdpmi	3, 4, cr4, cr15, cr12, {1}
    1114:	4c4f5254 	sfmmi	f5, 2, [pc], {84}	; 0x54
    1118:	5c6e5c20 	stclpl	12, cr5, [lr], #-128	; 0xffffff80
    111c:	4f4d2074 	svcmi	0x004d2074
    1120:	31722056 	cmncc	r2, r6, asr r0
    1124:	7830232c 	ldmdavc	r0!, {r2, r3, r5, r8, r9, sp}
    1128:	5c203230 	sfmpl	f3, 4, [r0], #-192	; 0xffffff40
    112c:	20745c6e 	rsbscs	r5, r4, lr, ror #24
    1130:	2052524f 	subscs	r5, r2, pc, asr #4
    1134:	722c3072 	eorvc	r3, ip, #114	; 0x72
    1138:	31722c30 	cmncc	r2, r0, lsr ip
    113c:	5c6e5c20 	stclpl	12, cr5, [lr], #-128	; 0xffffff80
    1140:	534d2074 	movtpl	r2, #53364	; 0xd074
    1144:	4f432052 	svcmi	0x00432052
    1148:	4f52544e 	svcmi	0x0052544e
    114c:	30722c4c 	rsbscc	r2, r2, ip, asr #24
    1150:	5f002922 	svcpl	0x00002922
    1154:	5246555f 	subpl	r5, r6, #398458880	; 0x17c00000
    1158:	5f544341 	svcpl	0x00544341
    115c:	5f4e494d 	svcpl	0x004e494d
    1160:	2e30205f 	mrccs	0, 1, r2, cr0, cr15, {2}
    1164:	00525530 	subseq	r5, r2, r0, lsr r5
    1168:	4c465f5f 	mcrrmi	15, 5, r5, r6, cr15
    116c:	58323354 	ldmdapl	r2!, {r2, r4, r6, r8, r9, ip, sp}
    1170:	5341485f 	movtpl	r4, #6239	; 0x185f
    1174:	464e495f 			; <UNDEFINED> instruction: 0x464e495f
    1178:	54494e49 	strbpl	r4, [r9], #-3657	; 0xfffff1b7
    117c:	205f5f59 	subscs	r5, pc, r9, asr pc	; <UNPREDICTABLE>
    1180:	32490031 	subcc	r0, r9, #49	; 0x31
    1184:	52435f43 	subpl	r5, r3, #268	; 0x10c
    1188:	4e455f31 	mcrmi	15, 2, r5, cr5, cr1, {1}
    118c:	49204347 	stmdbmi	r0!, {r0, r1, r2, r6, r8, r9, lr}
    1190:	435f4332 	cmpmi	pc, #-939524096	; 0xc8000000
    1194:	455f3152 	ldrbmi	r3, [pc, #-338]	; 104a <_Min_Stack_Size+0xc4a>
    1198:	5f43474e 	svcpl	0x0043474e
    119c:	006b734d 	rsbeq	r7, fp, sp, asr #6
    11a0:	55424544 	strbpl	r4, [r2, #-1348]	; 0xfffffabc
    11a4:	00312047 	eorseq	r2, r1, r7, asr #32
    11a8:	43415f5f 	movtmi	r5, #8031	; 0x1f5f
    11ac:	5f4d5543 	svcpl	0x004d5543
    11b0:	54494246 	strbpl	r4, [r9], #-582	; 0xfffffdba
    11b4:	31205f5f 			; <UNDEFINED> instruction: 0x31205f5f
    11b8:	4c430035 	mcrrmi	0, 3, r0, r3, cr5
    11bc:	5f524145 	svcpl	0x00524145
    11c0:	28544942 	ldmdacs	r4, {r1, r6, r8, fp, lr}^
    11c4:	2c676552 	cfstr64cs	mvdx6, [r7], #-328	; 0xfffffeb8
    11c8:	29746942 	ldmdbcs	r4!, {r1, r6, r8, fp, sp, lr}^
    11cc:	65522820 	ldrbvs	r2, [r2, #-2080]	; 0xfffff7e0
    11d0:	3d262067 	stccc	0, cr2, [r6, #-412]!	; 0xfffffe64
    11d4:	28207e20 	stmdacs	r0!, {r5, r9, sl, fp, ip, sp, lr}
    11d8:	3c3c2031 	ldccc	0, cr2, [ip], #-196	; 0xffffff3c
    11dc:	74694220 	strbtvc	r4, [r9], #-544	; 0xfffffde0
    11e0:	5f002929 	svcpl	0x00002929
    11e4:	4341555f 	movtmi	r5, #5471	; 0x155f
    11e8:	5f4d5543 	svcpl	0x004d5543
    11ec:	54494249 	strbpl	r4, [r9], #-585	; 0xfffffdb7
    11f0:	31205f5f 			; <UNDEFINED> instruction: 0x31205f5f
    11f4:	50470036 	subpl	r0, r7, r6, lsr r0
    11f8:	505f4f49 	subspl	r4, pc, r9, asr #30
    11fc:	305f4e49 	subscc	r4, pc, r9, asr #28
    1200:	75282820 	strvc	r2, [r8, #-2080]!	; 0xfffff7e0
    1204:	31746e69 	cmncc	r4, r9, ror #28
    1208:	29745f36 	ldmdbcs	r4!, {r1, r2, r4, r5, r8, r9, sl, fp, ip, lr}^
    120c:	30307830 	eorscc	r7, r0, r0, lsr r8
    1210:	00293130 	eoreq	r3, r9, r0, lsr r1
    1214:	52474643 	subpl	r4, r7, #70254592	; 0x4300000
    1218:	495f5f00 	ldmdbmi	pc, {r8, r9, sl, fp, ip, lr}^	; <UNPREDICTABLE>
    121c:	465f544e 	ldrbmi	r5, [pc], -lr, asr #8
    1220:	36545341 	ldrbcc	r5, [r4], -r1, asr #6
    1224:	414d5f34 	cmpmi	sp, r4, lsr pc
    1228:	205f5f58 	subscs	r5, pc, r8, asr pc	; <UNPREDICTABLE>
    122c:	66377830 			; <UNDEFINED> instruction: 0x66377830
    1230:	66666666 	strbtvs	r6, [r6], -r6, ror #12
    1234:	66666666 	strbtvs	r6, [r6], -r6, ror #12
    1238:	66666666 	strbtvs	r6, [r6], -r6, ror #12
    123c:	4c4c6666 	mcrrmi	6, 6, r6, ip, cr6
    1240:	465f5f00 	ldrbmi	r5, [pc], -r0, lsl #30
    1244:	3233544c 	eorscc	r5, r3, #76, 8	; 0x4c000000
    1248:	45445f58 	strbmi	r5, [r4, #-3928]	; 0xfffff0a8
    124c:	414d4943 	cmpmi	sp, r3, asr #18
    1250:	49445f4c 	stmdbmi	r4, {r2, r3, r6, r8, r9, sl, fp, ip, lr}^
    1254:	205f5f47 	subscs	r5, pc, r7, asr #30
    1258:	5f003731 	svcpl	0x00003731
    125c:	4c42445f 	cfstrdmi	mvd4, [r2], {95}	; 0x5f
    1260:	4e494d5f 	mcrmi	13, 2, r4, cr9, cr15, {2}
    1264:	28205f5f 	stmdacs	r0!, {r0, r1, r2, r3, r4, r6, r8, r9, sl, fp, ip, lr}
    1268:	756f6428 	strbvc	r6, [pc, #-1064]!	; e48 <_Min_Stack_Size+0xa48>
    126c:	29656c62 	stmdbcs	r5!, {r1, r5, r6, sl, fp, sp, lr}^
    1270:	32322e32 	eorscc	r2, r2, #800	; 0x320
    1274:	33373035 	teqcc	r7, #53	; 0x35
    1278:	35383538 	ldrcc	r3, [r8, #-1336]!	; 0xfffffac8
    127c:	30323730 	eorscc	r3, r2, r0, lsr r7
    1280:	2d653431 	cfstrdcs	mvd3, [r5, #-196]!	; 0xffffff3c
    1284:	4c383033 	ldcmi	0, cr3, [r8], #-204	; 0xffffff34
    1288:	4e470029 	cdpmi	0, 4, cr0, cr7, cr9, {1}
    128c:	31432055 	qdaddcc	r2, r5, r3
    1290:	31312031 	teqcc	r1, r1, lsr r0
    1294:	312e332e 			; <UNDEFINED> instruction: 0x312e332e
    1298:	32303220 	eorscc	r3, r0, #32, 4
    129c:	31373032 	teqcc	r7, r2, lsr r0
    12a0:	6d2d2032 	stcvs	0, cr2, [sp, #-200]!	; 0xffffff38
    12a4:	3d757063 	ldclcc	0, cr7, [r5, #-396]!	; 0xfffffe74
    12a8:	74726f63 	ldrbtvc	r6, [r2], #-3939	; 0xfffff09d
    12ac:	6d2d7865 	stcvs	8, cr7, [sp, #-404]!	; 0xfffffe6c
    12b0:	6d2d2033 	stcvs	0, cr2, [sp, #-204]!	; 0xffffff34
    12b4:	616f6c66 	cmnvs	pc, r6, ror #24
    12b8:	62612d74 	rsbvs	r2, r1, #116, 26	; 0x1d00
    12bc:	6f733d69 	svcvs	0x00733d69
    12c0:	2d207466 	cfstrscs	mvf7, [r0, #-408]!	; 0xfffffe68
    12c4:	7568746d 	strbvc	r7, [r8, #-1133]!	; 0xfffffb93
    12c8:	2d20626d 	sfmcs	f6, 4, [r0, #-436]!	; 0xfffffe4c
    12cc:	6372616d 	cmnvs	r2, #1073741851	; 0x4000001b
    12d0:	72613d68 	rsbvc	r3, r1, #104, 26	; 0x1a00
    12d4:	2d37766d 	ldccs	6, cr7, [r7, #-436]!	; 0xfffffe4c
    12d8:	672d206d 	strvs	r2, [sp, -sp, rrx]!
    12dc:	72617764 	rsbvc	r7, r1, #100, 14	; 0x1900000
    12e0:	20322d66 	eorscs	r2, r2, r6, ror #26
    12e4:	2033672d 	eorscs	r6, r3, sp, lsr #14
    12e8:	20304f2d 	eorscs	r4, r0, sp, lsr #30
    12ec:	6474732d 	ldrbtvs	r7, [r4], #-813	; 0xfffffcd3
    12f0:	756e673d 	strbvc	r6, [lr, #-1853]!	; 0xfffff8c3
    12f4:	2d203131 	stfcss	f3, [r0, #-196]!	; 0xffffff3c
    12f8:	6e756666 	cdpvs	6, 7, cr6, cr5, cr6, {3}
    12fc:	6f697463 	svcvs	0x00697463
    1300:	65732d6e 	ldrbvs	r2, [r3, #-3438]!	; 0xfffff292
    1304:	6f697463 	svcvs	0x00697463
    1308:	2d20736e 	stccs	3, cr7, [r0, #-440]!	; 0xfffffe48
    130c:	74616466 	strbtvc	r6, [r1], #-1126	; 0xfffffb9a
    1310:	65732d61 	ldrbvs	r2, [r3, #-3425]!	; 0xfffff29f
    1314:	6f697463 	svcvs	0x00697463
    1318:	2d20736e 	stccs	3, cr7, [r0, #-440]!	; 0xfffffe48
    131c:	61747366 	cmnvs	r4, r6, ror #6
    1320:	752d6b63 	strvc	r6, [sp, #-2915]!	; 0xfffff49d
    1324:	65676173 	strbvs	r6, [r7, #-371]!	; 0xfffffe8d
    1328:	63662d20 	cmnvs	r6, #32, 26	; 0x800
    132c:	6f6c6379 	svcvs	0x006c6379
    1330:	6974616d 	ldmdbvs	r4!, {r0, r2, r3, r5, r6, r8, sp, lr}^
    1334:	6f632d63 	svcvs	0x00632d63
    1338:	656c706d 	strbvs	r7, [ip, #-109]!	; 0xffffff93
    133c:	79746978 	ldmdbvc	r4!, {r3, r4, r5, r6, r8, fp, sp, lr}^
    1340:	43324900 	teqmi	r2, #0, 18
    1344:	3152535f 	cmpcc	r2, pc, asr r3
    1348:	4345505f 	movtmi	r5, #20575	; 0x505f
    134c:	5f525245 	svcpl	0x00525245
    1350:	20736f50 	rsbscs	r6, r3, r0, asr pc
    1354:	55323128 	ldrpl	r3, [r2, #-296]!	; 0xfffffed8
    1358:	5f5f0029 	svcpl	0x005f0029
    135c:	5f4d5241 	svcpl	0x004d5241
    1360:	48435241 	stmdami	r3, {r0, r6, r9, ip, lr}^
    1364:	5f4d375f 	svcpl	0x004d375f
    1368:	0031205f 	eorseq	r2, r1, pc, asr r0
    136c:	4e495f5f 	mcrmi	15, 2, r5, cr9, cr15, {2}
    1370:	41465f54 	cmpmi	r6, r4, asr pc
    1374:	5f385453 	svcpl	0x00385453
    1378:	45505954 	ldrbmi	r5, [r0, #-2388]	; 0xfffff6ac
    137c:	69205f5f 	stmdbvs	r0!, {r0, r1, r2, r3, r4, r6, r8, r9, sl, fp, ip, lr}
    1380:	5f00746e 	svcpl	0x0000746e
    1384:	4144555f 	cmpmi	r4, pc, asr r5
    1388:	4942465f 	stmdbmi	r2, {r0, r1, r2, r3, r4, r6, r9, sl, lr}^
    138c:	205f5f54 	subscs	r5, pc, r4, asr pc	; <UNPREDICTABLE>
    1390:	5f003233 	svcpl	0x00003233
    1394:	4e49555f 	mcrmi	5, 2, r5, cr9, cr15, {2}
    1398:	58414d54 	stmdapl	r1, {r2, r4, r6, r8, sl, fp, lr}^
    139c:	6328435f 			; <UNDEFINED> instruction: 0x6328435f
    13a0:	20632029 	rsbcs	r2, r3, r9, lsr #32
    13a4:	55202323 	strpl	r2, [r0, #-803]!	; 0xfffffcdd
    13a8:	49004c4c 	stmdbmi	r0, {r2, r3, r6, sl, fp, lr}
    13ac:	535f4332 	cmppl	pc, #-939524096	; 0xc8000000
    13b0:	4d5f3252 	lfmmi	f3, 2, [pc, #-328]	; 1270 <_Min_Stack_Size+0xe70>
    13b4:	505f4c53 	subspl	r4, pc, r3, asr ip	; <UNPREDICTABLE>
    13b8:	2820736f 	stmdacs	r0!, {r0, r1, r2, r3, r5, r6, r8, r9, ip, sp, lr}
    13bc:	00295530 	eoreq	r5, r9, r0, lsr r5
    13c0:	49535f5f 	ldmdbmi	r3, {r0, r1, r2, r3, r4, r6, r8, r9, sl, fp, ip, lr}^
    13c4:	464f455a 			; <UNDEFINED> instruction: 0x464f455a
    13c8:	494f505f 	stmdbmi	pc, {r0, r1, r2, r3, r4, r6, ip, lr}^	; <UNPREDICTABLE>
    13cc:	5245544e 	subpl	r5, r5, #1308622848	; 0x4e000000
    13d0:	34205f5f 	strtcc	r5, [r0], #-3935	; 0xfffff0a1
    13d4:	495f5f00 	ldmdbmi	pc, {r8, r9, sl, fp, ip, lr}^	; <UNPREDICTABLE>
    13d8:	4c5f544e 	cfldrdmi	mvd5, [pc], {78}	; 0x4e
    13dc:	54534145 	ldrbpl	r4, [r3], #-325	; 0xfffffebb
    13e0:	59545f38 	ldmdbpl	r4, {r3, r4, r5, r8, r9, sl, fp, ip, lr}^
    13e4:	5f5f4550 	svcpl	0x005f4550
    13e8:	67697320 	strbvs	r7, [r9, -r0, lsr #6]!
    13ec:	2064656e 	rsbcs	r6, r4, lr, ror #10
    13f0:	72616863 	rsbvc	r6, r1, #6488064	; 0x630000
    13f4:	475f5f00 	ldrbmi	r5, [pc, -r0, lsl #30]
    13f8:	415f4343 	cmpmi	pc, r3, asr #6
    13fc:	494d4f54 	stmdbmi	sp, {r2, r4, r6, r8, r9, sl, fp, lr}^
    1400:	4f425f43 	svcmi	0x00425f43
    1404:	4c5f4c4f 	mrrcmi	12, 4, r4, pc, cr15	; <UNPREDICTABLE>
    1408:	5f4b434f 	svcpl	0x004b434f
    140c:	45455246 	strbmi	r5, [r5, #-582]	; 0xfffffdba
    1410:	45003220 	strmi	r3, [r0, #-544]	; 0xfffffde0
    1414:	39495458 	stmdbcc	r9, {r3, r4, r6, sl, ip, lr}^
    1418:	5f003920 	svcpl	0x00003920
    141c:	4d52415f 	ldfmie	f4, [r2, #-380]	; 0xfffffe84
    1420:	4f454e5f 	svcmi	0x00454e5f
    1424:	005f5f4e 	subseq	r5, pc, lr, asr #30
    1428:	4c465f5f 	mcrrmi	15, 5, r5, r6, cr15
    142c:	5f323354 	svcpl	0x00323354
    1430:	5f58414d 	svcpl	0x0058414d
    1434:	5f505845 	svcpl	0x00505845
    1438:	3231205f 	eorscc	r2, r1, #95	; 0x5f
    143c:	5f5f0038 	svcpl	0x005f0038
    1440:	465f4154 			; <UNDEFINED> instruction: 0x465f4154
    1444:	5f544942 	svcpl	0x00544942
    1448:	3336205f 	teqcc	r6, #95	; 0x5f
    144c:	545f5f00 	ldrbpl	r5, [pc], #-3840	; 1454 <_Min_Stack_Size+0x1054>
    1450:	424d5548 	submi	r5, sp, #72, 10	; 0x12000000
    1454:	544e495f 	strbpl	r4, [lr], #-2399	; 0xfffff6a1
    1458:	4f575245 	svcmi	0x00575245
    145c:	5f5f4b52 	svcpl	0x005f4b52
    1460:	5f003120 	svcpl	0x00003120
    1464:	4c4c555f 	cfstr64mi	mvdx5, [ip], {95}	; 0x5f
    1468:	43415246 	movtmi	r5, #4678	; 0x1246
    146c:	414d5f54 	cmpmi	sp, r4, asr pc
    1470:	205f5f58 	subscs	r5, pc, r8, asr pc	; <UNPREDICTABLE>
    1474:	46465830 			; <UNDEFINED> instruction: 0x46465830
    1478:	46464646 	strbmi	r4, [r6], -r6, asr #12
    147c:	46464646 	strbmi	r4, [r6], -r6, asr #12
    1480:	46464646 	strbmi	r4, [r6], -r6, asr #12
    1484:	2d504646 	ldclcs	6, cr4, [r0, #-280]	; 0xfffffee8
    1488:	4c553436 	cfldrdmi	mvd3, [r5], {54}	; 0x36
    148c:	4900524c 	stmdbmi	r0, {r2, r3, r6, r9, ip, lr}
    1490:	435f4332 	cmpmi	pc, #-939524096	; 0xc8000000
    1494:	495f3252 	ldmdbmi	pc, {r1, r4, r6, r9, ip, sp}^	; <UNPREDICTABLE>
    1498:	54564554 	ldrbpl	r4, [r6], #-1364	; 0xfffffaac
    149c:	505f4e45 	subspl	r4, pc, r5, asr #28
    14a0:	2820736f 	stmdacs	r0!, {r0, r1, r2, r3, r5, r6, r8, r9, ip, sp, lr}
    14a4:	00295539 	eoreq	r5, r9, r9, lsr r5
    14a8:	5f44434c 	svcpl	0x0044434c
    14ac:	41524743 	cmpmi	r2, r3, asr #14
    14b0:	54535f4d 	ldrbpl	r5, [r3], #-3917	; 0xfffff0b3
    14b4:	20545241 	subscs	r5, r4, r1, asr #4
    14b8:	30347830 	eorscc	r7, r4, r0, lsr r8
    14bc:	4c5f5f00 	mrrcmi	15, 0, r5, pc, cr0	; <UNPREDICTABLE>
    14c0:	5f4c4244 	svcpl	0x004c4244
    14c4:	5f4e494d 	svcpl	0x004e494d
    14c8:	5f505845 	svcpl	0x00505845
    14cc:	2d28205f 	stccs	0, cr2, [r8, #-380]!	; 0xfffffe84
    14d0:	31323031 	teqcc	r2, r1, lsr r0
    14d4:	5f5f0029 	svcpl	0x005f0029
    14d8:	52414843 	subpl	r4, r1, #4390912	; 0x430000
    14dc:	545f3233 	ldrbpl	r3, [pc], #-563	; 14e4 <_Min_Stack_Size+0x10e4>
    14e0:	5f455059 	svcpl	0x00455059
    14e4:	6f6c205f 	svcvs	0x006c205f
    14e8:	7520676e 	strvc	r6, [r0, #-1902]!	; 0xfffff892
    14ec:	6769736e 	strbvs	r7, [r9, -lr, ror #6]!
    14f0:	2064656e 	rsbcs	r6, r4, lr, ror #10
    14f4:	00746e69 	rsbseq	r6, r4, r9, ror #28
    14f8:	5f433249 	svcpl	0x00433249
    14fc:	5f315253 	svcpl	0x00315253
    1500:	52524542 	subspl	r4, r2, #276824064	; 0x10800000
    1504:	43324920 	teqmi	r2, #32, 18	; 0x80000
    1508:	3152535f 	cmpcc	r2, pc, asr r3
    150c:	5245425f 	subpl	r4, r5, #-268435451	; 0xf0000005
    1510:	734d5f52 	movtvc	r5, #57170	; 0xdf52
    1514:	3249006b 	subcc	r0, r9, #107	; 0x6b
    1518:	52535f43 	subspl	r5, r3, #268	; 0x10c
    151c:	45475f32 	strbmi	r5, [r7, #-3890]	; 0xfffff0ce
    1520:	4c41434e 	mcrrmi	3, 4, r4, r1, cr14
    1524:	734d5f4c 	movtvc	r5, #57164	; 0xdf4c
    1528:	3028206b 	eorcc	r2, r8, fp, rrx
    152c:	4c553178 	ldfmie	f3, [r5], {120}	; 0x78
    1530:	203c3c20 	eorscs	r3, ip, r0, lsr #24
    1534:	5f433249 	svcpl	0x00433249
    1538:	5f325253 	svcpl	0x00325253
    153c:	434e4547 	movtmi	r4, #58695	; 0xe547
    1540:	5f4c4c41 	svcpl	0x004c4c41
    1544:	29736f50 	ldmdbcs	r3!, {r4, r6, r8, r9, sl, fp, sp, lr}^
    1548:	54584500 	ldrbpl	r4, [r8], #-1280	; 0xfffffb00
    154c:	6e495f49 	cdpvs	15, 4, cr5, cr9, cr9, {2}
    1550:	5f007469 	svcpl	0x00007469
    1554:	4c42445f 	cfstrdmi	mvd4, [r2], {95}	; 0x5f
    1558:	5f53495f 	svcpl	0x0053495f
    155c:	5f434549 	svcpl	0x00434549
    1560:	35353036 	ldrcc	r3, [r5, #-54]!	; 0xffffffca
    1564:	205f5f39 	subscs	r5, pc, r9, lsr pc	; <UNPREDICTABLE>
    1568:	5f5f0032 	svcpl	0x005f0032
    156c:	544e4955 	strbpl	r4, [lr], #-2389	; 0xfffff6ab
    1570:	5341465f 	movtpl	r4, #5727	; 0x165f
    1574:	5f323354 	svcpl	0x00323354
    1578:	5f58414d 	svcpl	0x0058414d
    157c:	7830205f 	ldmdavc	r0!, {r0, r1, r2, r3, r4, r6, sp}
    1580:	66666666 	strbtvs	r6, [r6], -r6, ror #12
    1584:	66666666 	strbtvs	r6, [r6], -r6, ror #12
    1588:	5f5f0055 	svcpl	0x005f0055
    158c:	5f434544 	svcpl	0x00434544
    1590:	4c415645 	mcrrmi	6, 4, r5, r1, cr5
    1594:	54454d5f 	strbpl	r4, [r5], #-3423	; 0xfffff2a1
    1598:	5f444f48 	svcpl	0x00444f48
    159c:	0032205f 	eorseq	r2, r2, pc, asr r0
    15a0:	4c465f5f 	mcrrmi	15, 5, r5, r6, cr15
    15a4:	414d5f54 	cmpmi	sp, r4, asr pc
    15a8:	58455f58 	stmdapl	r5, {r3, r4, r6, r8, r9, sl, fp, ip, lr}^
    15ac:	205f5f50 	subscs	r5, pc, r0, asr pc	; <UNPREDICTABLE>
    15b0:	00383231 	eorseq	r3, r8, r1, lsr r2
    15b4:	49535f5f 	ldmdbmi	r3, {r0, r1, r2, r3, r4, r6, r8, r9, sl, fp, ip, lr}^
    15b8:	464f455a 			; <UNDEFINED> instruction: 0x464f455a
    15bc:	4e4f4c5f 	mcrmi	12, 2, r4, cr15, cr15, {2}
    15c0:	205f5f47 	subscs	r5, pc, r7, asr #30
    15c4:	58450034 	stmdapl	r5, {r2, r4, r5}^
    15c8:	31314954 	teqcc	r1, r4, asr r9
    15cc:	5152495f 	cmppl	r2, pc, asr r9
    15d0:	00303420 	eorseq	r3, r0, r0, lsr #8
    15d4:	32425041 	subcc	r5, r2, #65	; 0x41
    15d8:	00524e45 	subseq	r4, r2, r5, asr #28
    15dc:	5f44434c 	svcpl	0x0044434c
    15e0:	505f3144 	subspl	r3, pc, r4, asr #2
    15e4:	47204e49 	strmi	r4, [r0, -r9, asr #28]!
    15e8:	5f4f4950 	svcpl	0x004f4950
    15ec:	5f4e4950 	svcpl	0x004e4950
    15f0:	53550031 	cmppl	r5, #49	; 0x31
    15f4:	31545241 	cmpcc	r4, r1, asr #4
    15f8:	5152495f 	cmppl	r2, pc, asr r9
    15fc:	00373320 	eorseq	r3, r7, r0, lsr #6
    1600:	5f44434c 	svcpl	0x0044434c
    1604:	50534944 	subspl	r4, r3, r4, asr #18
    1608:	5f59414c 	svcpl	0x0059414c
    160c:	555f4e4f 	ldrbpl	r4, [pc, #-3663]	; 7c5 <_Min_Stack_Size+0x3c5>
    1610:	5245444e 	subpl	r4, r5, #1308622848	; 0x4e000000
    1614:	454e494c 	strbmi	r4, [lr, #-2380]	; 0xfffff6b4
    1618:	5f4e4f5f 	svcpl	0x004e4f5f
    161c:	53525543 	cmppl	r2, #281018368	; 0x10c00000
    1620:	4f5f524f 	svcmi	0x005f524f
    1624:	30204646 	eorcc	r4, r0, r6, asr #12
    1628:	00453078 	subeq	r3, r5, r8, ror r0
    162c:	49535f5f 	ldmdbmi	r3, {r0, r1, r2, r3, r4, r6, r8, r9, sl, fp, ip, lr}^
    1630:	464f455a 			; <UNDEFINED> instruction: 0x464f455a
    1634:	554f445f 	strbpl	r4, [pc, #-1119]	; 11dd <_Min_Stack_Size+0xddd>
    1638:	5f454c42 	svcpl	0x00454c42
    163c:	0038205f 	eorseq	r2, r8, pc, asr r0
    1640:	4e495f5f 	mcrmi	15, 2, r5, cr9, cr15, {2}
    1644:	454c5f54 	strbmi	r5, [ip, #-3924]	; 0xfffff0ac
    1648:	33545341 	cmpcc	r4, #67108865	; 0x4000001
    164c:	49575f32 	ldmdbmi	r7, {r1, r4, r5, r8, r9, sl, fp, ip, lr}^
    1650:	5f485444 	svcpl	0x00485444
    1654:	3233205f 	eorscc	r2, r3, #95	; 0x5f
    1658:	54584500 	ldrbpl	r4, [r8], #-1280	; 0xfffffb00
    165c:	44503949 	ldrbmi	r3, [r0], #-2377	; 0xfffff6b7
    1660:	45282039 	strmi	r2, [r8, #-57]!	; 0xffffffc7
    1664:	5f495458 	svcpl	0x00495458
    1668:	7070614d 	rsbsvc	r6, r0, sp, asr #2
    166c:	5f676e69 	svcpl	0x00676e69
    1670:	457b2974 	ldrbmi	r2, [fp, #-2420]!	; 0xfffff68c
    1674:	39495458 	stmdbcc	r9, {r3, r4, r6, sl, ip, lr}^
    1678:	5047202c 	subpl	r2, r7, ip, lsr #32
    167c:	2c444f49 	mcrrcs	15, 4, r4, r4, cr9
    1680:	49504720 	ldmdbmi	r0, {r5, r8, r9, sl, lr}^
    1684:	49505f4f 	ldmdbmi	r0, {r0, r1, r2, r3, r6, r8, r9, sl, fp, ip, lr}^
    1688:	2c395f4e 	ldccs	15, cr5, [r9], #-312	; 0xfffffec8
    168c:	54584520 	ldrbpl	r4, [r8], #-1312	; 0xfffffae0
    1690:	495f3949 	ldmdbmi	pc, {r0, r3, r6, r8, fp, ip, sp}^	; <UNPREDICTABLE>
    1694:	007d5152 	rsbseq	r5, sp, r2, asr r1
    1698:	4f495047 	svcmi	0x00495047
    169c:	524f505f 	subpl	r5, pc, #95	; 0x5f
    16a0:	5f5f0054 	svcpl	0x005f0054
    16a4:	5f544e49 	svcpl	0x00544e49
    16a8:	54534146 	ldrbpl	r4, [r3], #-326	; 0xfffffeba
    16ac:	414d5f38 	cmpmi	sp, r8, lsr pc
    16b0:	205f5f58 	subscs	r5, pc, r8, asr pc	; <UNPREDICTABLE>
    16b4:	66377830 			; <UNDEFINED> instruction: 0x66377830
    16b8:	66666666 	strbtvs	r6, [r6], -r6, ror #12
    16bc:	49006666 	stmdbmi	r0, {r1, r2, r5, r6, r9, sl, sp, lr}
    16c0:	435f4332 	cmpmi	pc, #-939524096	; 0xc8000000
    16c4:	495f3252 	ldmdbmi	pc, {r1, r4, r6, r9, ip, sp}^	; <UNPREDICTABLE>
    16c8:	46554254 			; <UNDEFINED> instruction: 0x46554254
    16cc:	505f4e45 	subspl	r4, pc, r5, asr #28
    16d0:	2820736f 	stmdacs	r0!, {r0, r1, r2, r3, r5, r6, r8, r9, ip, sp, lr}
    16d4:	29553031 	ldmdbcs	r5, {r0, r4, r5, ip, sp}^
    16d8:	54584500 	ldrbpl	r4, [r8], #-1280	; 0xfffffb00
    16dc:	495f3649 	ldmdbmi	pc, {r0, r3, r6, r9, sl, ip, sp}^	; <UNPREDICTABLE>
    16e0:	32205152 	eorcc	r5, r0, #-2147483628	; 0x80000014
    16e4:	5f5f0033 	svcpl	0x005f0033
    16e8:	5f415455 	svcpl	0x00415455
    16ec:	54494246 	strbpl	r4, [r9], #-582	; 0xfffffdba
    16f0:	36205f5f 	qsaxcc	r5, r0, pc	; <UNPREDICTABLE>
    16f4:	5f5f0034 	svcpl	0x005f0034
    16f8:	5f544c46 	svcpl	0x00544c46
    16fc:	49434544 	stmdbmi	r3, {r2, r6, r8, sl, lr}^
    1700:	5f4c414d 	svcpl	0x004c414d
    1704:	5f474944 	svcpl	0x00474944
    1708:	0039205f 	eorseq	r2, r9, pc, asr r0
    170c:	4e495f5f 	mcrmi	15, 2, r5, cr9, cr15, {2}
    1710:	454c5f54 	strbmi	r5, [ip, #-3924]	; 0xfffff0ac
    1714:	33545341 	cmpcc	r4, #67108865	; 0x4000001
    1718:	414d5f32 	cmpmi	sp, r2, lsr pc
    171c:	205f5f58 	subscs	r5, pc, r8, asr pc	; <UNPREDICTABLE>
    1720:	66377830 			; <UNDEFINED> instruction: 0x66377830
    1724:	66666666 	strbtvs	r6, [r6], -r6, ror #12
    1728:	004c6666 	subeq	r6, ip, r6, ror #12
    172c:	4f495047 	svcmi	0x00495047
    1730:	4e49505f 	mcrmi	0, 2, r5, cr9, cr15, {2}
    1734:	2032315f 	eorscs	r3, r2, pc, asr r1
    1738:	69752828 	ldmdbvs	r5!, {r3, r5, fp, sp}^
    173c:	3631746e 	ldrtcc	r7, [r1], -lr, ror #8
    1740:	3029745f 	eorcc	r7, r9, pc, asr r4
    1744:	30303178 	eorscc	r3, r0, r8, ror r1
    1748:	49002930 	stmdbmi	r0, {r4, r5, r8, fp, sp}
    174c:	535f4332 	cmppl	pc, #-939524096	; 0xc8000000
    1750:	545f3152 	ldrbpl	r3, [pc], #-338	; 1758 <_Min_Stack_Size+0x1358>
    1754:	4f454d49 	svcmi	0x00454d49
    1758:	4d5f5455 	cfldrdmi	mvd5, [pc, #-340]	; 160c <_Min_Stack_Size+0x120c>
    175c:	28206b73 	stmdacs	r0!, {r0, r1, r4, r5, r6, r8, r9, fp, sp, lr}
    1760:	55317830 	ldrpl	r7, [r1, #-2096]!	; 0xfffff7d0
    1764:	3c3c204c 	ldccc	0, cr2, [ip], #-304	; 0xfffffed0
    1768:	43324920 	teqmi	r2, #32, 18	; 0x80000
    176c:	3152535f 	cmpcc	r2, pc, asr r3
    1770:	4d49545f 	cfstrdmi	mvd5, [r9, #-380]	; 0xfffffe84
    1774:	54554f45 	ldrbpl	r4, [r5], #-3909	; 0xfffff0bb
    1778:	736f505f 	cmnvc	pc, #95	; 0x5f
    177c:	69750029 	ldmdbvs	r5!, {r0, r3, r5}^
    1780:	5f38746e 	svcpl	0x0038746e
    1784:	50530074 	subspl	r0, r3, r4, ror r0
    1788:	425f3249 	subsmi	r3, pc, #-1879048188	; 0x90000004
    178c:	20455341 	subcs	r5, r5, r1, asr #6
    1790:	30347830 	eorscc	r7, r4, r0, lsr r8
    1794:	38333030 	ldmdacc	r3!, {r4, r5, ip, sp}
    1798:	4c553030 	mrrcmi	0, 3, r3, r5, cr0
    179c:	43324900 	teqmi	r2, #0, 18
    17a0:	3152535f 	cmpcc	r2, pc, asr r3
    17a4:	5245425f 	subpl	r4, r5, #-268435451	; 0xf0000005
    17a8:	734d5f52 	movtvc	r5, #57170	; 0xdf52
    17ac:	3028206b 	eorcc	r2, r8, fp, rrx
    17b0:	4c553178 	ldfmie	f3, [r5], {120}	; 0x78
    17b4:	203c3c20 	eorscs	r3, ip, r0, lsr #24
    17b8:	5f433249 	svcpl	0x00433249
    17bc:	5f315253 	svcpl	0x00315253
    17c0:	52524542 	subspl	r4, r2, #276824064	; 0x10800000
    17c4:	736f505f 	cmnvc	pc, #95	; 0x5f
    17c8:	434c0029 	movtmi	r0, #49193	; 0xc029
    17cc:	49445f44 	stmdbmi	r4, {r2, r6, r8, r9, sl, fp, ip, lr}^
    17d0:	414c5053 	qdaddmi	r5, r3, ip
    17d4:	4e4f5f59 	mcrmi	15, 2, r5, cr15, cr9, {2}
    17d8:	444e555f 	strbmi	r5, [lr], #-1375	; 0xfffffaa1
    17dc:	494c5245 	stmdbmi	ip, {r0, r2, r6, r9, ip, lr}^
    17e0:	4f5f454e 	svcmi	0x005f454e
    17e4:	435f4646 	cmpmi	pc, #73400320	; 0x4600000
    17e8:	4f535255 	svcmi	0x00535255
    17ec:	464f5f52 			; <UNDEFINED> instruction: 0x464f5f52
    17f0:	78302046 	ldmdavc	r0!, {r1, r2, r6, sp}
    17f4:	5f004330 	svcpl	0x00004330
    17f8:	4152465f 	cmpmi	r2, pc, asr r6
    17fc:	465f5443 	ldrbmi	r5, [pc], -r3, asr #8
    1800:	5f544942 	svcpl	0x00544942
    1804:	3531205f 	ldrcc	r2, [r1, #-95]!	; 0xffffffa1
    1808:	4c5f5f00 	mrrcmi	15, 0, r5, pc, cr0	; <UNPREDICTABLE>
    180c:	4343414c 	movtmi	r4, #12620	; 0x314c
    1810:	455f4d55 	ldrbmi	r4, [pc, #-3413]	; ac3 <_Min_Stack_Size+0x6c3>
    1814:	4c495350 	mcrrmi	3, 5, r5, r9, cr0
    1818:	5f5f4e4f 	svcpl	0x005f4e4f
    181c:	31783020 	cmncc	r8, r0, lsr #32
    1820:	31332d50 	teqcc	r3, r0, asr sp
    1824:	004b4c4c 	subeq	r4, fp, ip, asr #24
    1828:	4e475f5f 	mcrmi	15, 2, r5, cr7, cr15, {2}
    182c:	505f4355 	subspl	r4, pc, r5, asr r3	; <UNPREDICTABLE>
    1830:	48435441 	stmdami	r3, {r0, r6, sl, ip, lr}^
    1834:	4556454c 	ldrbmi	r4, [r6, #-1356]	; 0xfffffab4
    1838:	205f5f4c 	subscs	r5, pc, ip, asr #30
    183c:	5f5f0031 	svcpl	0x005f0031
    1840:	5f434347 	svcpl	0x00434347
    1844:	4d4f5441 	cfstrdmi	mvd5, [pc, #-260]	; 1748 <_Min_Stack_Size+0x1348>
    1848:	435f4349 	cmpmi	pc, #603979777	; 0x24000001
    184c:	33524148 	cmpcc	r2, #72, 2
    1850:	5f545f32 	svcpl	0x00545f32
    1854:	4b434f4c 	blmi	10d558c <_Min_Stack_Size+0x10d518c>
    1858:	4552465f 	ldrbmi	r4, [r2, #-1631]	; 0xfffff9a1
    185c:	00322045 	eorseq	r2, r2, r5, asr #32
    1860:	49555f5f 	ldmdbmi	r5, {r0, r1, r2, r3, r4, r6, r8, r9, sl, fp, ip, lr}^
    1864:	4c5f544e 	cfldrdmi	mvd5, [pc], {78}	; 0x4e
    1868:	54534145 	ldrbpl	r4, [r3], #-325	; 0xfffffebb
    186c:	4d5f3631 	ldclmi	6, cr3, [pc, #-196]	; 17b0 <_Min_Stack_Size+0x13b0>
    1870:	5f5f5841 	svcpl	0x005f5841
    1874:	66783020 	ldrbtvs	r3, [r8], -r0, lsr #32
    1878:	00666666 	rsbeq	r6, r6, r6, ror #12
    187c:	45565f5f 	ldrbmi	r5, [r6, #-3935]	; 0xfffff0a1
    1880:	4f495352 	svcmi	0x00495352
    1884:	205f5f4e 	subscs	r5, pc, lr, asr #30
    1888:	2e313122 	rsfcssp	f3, f1, f2
    188c:	20312e33 	eorscs	r2, r1, r3, lsr lr
    1890:	32323032 	eorscc	r3, r2, #50	; 0x32
    1894:	32313730 	eorscc	r3, r1, #48, 14	; 0xc00000
    1898:	32490022 	subcc	r0, r9, #34	; 0x22
    189c:	52435f43 	subpl	r5, r3, #268	; 0x10c
    18a0:	4c415f31 	mcrrmi	15, 3, r5, r1, cr1
    18a4:	5f545245 	svcpl	0x00545245
    18a8:	20736f50 	rsbscs	r6, r3, r0, asr pc
    18ac:	55333128 	ldrpl	r3, [r3, #-296]!	; 0xfffffed8
    18b0:	58450029 	stmdapl	r5, {r0, r3, r5}^
    18b4:	50384954 	eorspl	r4, r8, r4, asr r9
    18b8:	28203841 	stmdacs	r0!, {r0, r6, fp, ip, sp}
    18bc:	49545845 	ldmdbmi	r4, {r0, r2, r6, fp, ip, lr}^
    18c0:	70614d5f 	rsbvc	r4, r1, pc, asr sp
    18c4:	676e6970 			; <UNDEFINED> instruction: 0x676e6970
    18c8:	7b29745f 	blvc	a5ea4c <_Min_Stack_Size+0xa5e64c>
    18cc:	49545845 	ldmdbmi	r4, {r0, r2, r6, fp, ip, lr}^
    18d0:	47202c38 			; <UNDEFINED> instruction: 0x47202c38
    18d4:	414f4950 	cmpmi	pc, r0, asr r9	; <UNPREDICTABLE>
    18d8:	5047202c 	subpl	r2, r7, ip, lsr #32
    18dc:	505f4f49 	subspl	r4, pc, r9, asr #30
    18e0:	385f4e49 	ldmdacc	pc, {r0, r3, r6, r9, sl, fp, lr}^	; <UNPREDICTABLE>
    18e4:	5845202c 	stmdapl	r5, {r2, r3, r5, sp}^
    18e8:	5f384954 	svcpl	0x00384954
    18ec:	7d515249 	lfmvc	f5, 2, [r1, #-292]	; 0xfffffedc
    18f0:	4c5f5f00 	mrrcmi	15, 0, r5, pc, cr0	; <UNPREDICTABLE>
    18f4:	55434341 	strbpl	r4, [r3, #-833]	; 0xfffffcbf
    18f8:	42465f4d 	submi	r5, r6, #308	; 0x134
    18fc:	5f5f5449 	svcpl	0x005f5449
    1900:	00313320 	eorseq	r3, r1, r0, lsr #6
    1904:	4349564e 	movtmi	r5, #38478	; 0x964e
    1908:	5152495f 	cmppl	r2, pc, asr r9
    190c:	5f30345f 	svcpl	0x0030345f
    1910:	49545845 	ldmdbmi	r4, {r0, r2, r6, fp, ip, lr}^
    1914:	315f3031 	cmpcc	pc, r1, lsr r0	; <UNPREDICTABLE>
    1918:	69445f35 	stmdbvs	r4, {r0, r2, r4, r5, r8, r9, sl, fp, ip, lr}^
    191c:	6c626173 	stfvse	f6, [r2], #-460	; 0xfffffe34
    1920:	20292865 	eorcs	r2, r9, r5, ror #16
    1924:	49564e28 	ldmdbmi	r6, {r3, r5, r9, sl, fp, lr}^
    1928:	43495f43 	movtmi	r5, #40771	; 0x9f43
    192c:	20315245 	eorscs	r5, r1, r5, asr #4
    1930:	31203d7c 			; <UNDEFINED> instruction: 0x31203d7c
    1934:	29383c3c 	ldmdbcs	r8!, {r2, r3, r4, r5, sl, fp, ip, sp}
    1938:	54584500 	ldrbpl	r4, [r8], #-1280	; 0xfffffb00
    193c:	52495f49 	subpl	r5, r9, #292	; 0x124
    1940:	6e455f51 	mcrvs	15, 2, r5, cr5, cr1, {2}
    1944:	656c6261 	strbvs	r6, [ip, #-609]!	; 0xfffffd9f
    1948:	5f003120 	svcpl	0x00003120
    194c:	544c465f 	strbpl	r4, [ip], #-1631	; 0xfffff9a1
    1950:	4d5f3436 	cfldrdmi	mvd3, [pc, #-216]	; 1880 <_Min_Stack_Size+0x1480>
    1954:	315f5841 	cmpcc	pc, r1, asr #16
    1958:	58455f30 	stmdapl	r5, {r4, r5, r8, r9, sl, fp, ip, lr}^
    195c:	205f5f50 	subscs	r5, pc, r0, asr pc	; <UNPREDICTABLE>
    1960:	00383033 	eorseq	r3, r8, r3, lsr r0
    1964:	49555f5f 	ldmdbmi	r5, {r0, r1, r2, r3, r4, r6, r8, r9, sl, fp, ip, lr}^
    1968:	465f544e 	ldrbmi	r5, [pc], -lr, asr #8
    196c:	33545341 	cmpcc	r4, #67108865	; 0x4000001
    1970:	59545f32 	ldmdbpl	r4, {r1, r4, r5, r8, r9, sl, fp, ip, lr}^
    1974:	5f5f4550 	svcpl	0x005f4550
    1978:	736e7520 	cmnvc	lr, #32, 10	; 0x8000000
    197c:	656e6769 	strbvs	r6, [lr, #-1897]!	; 0xfffff897
    1980:	6e692064 	cdpvs	0, 6, cr2, cr9, cr4, {3}
    1984:	5f5f0074 	svcpl	0x005f0074
    1988:	43445453 	movtmi	r5, #17491	; 0x4453
    198c:	4654555f 			; <UNDEFINED> instruction: 0x4654555f
    1990:	5f32335f 	svcpl	0x0032335f
    1994:	0031205f 	eorseq	r2, r1, pc, asr r0
    1998:	49535f5f 	ldmdbmi	r3, {r0, r1, r2, r3, r4, r6, r8, r9, sl, fp, ip, lr}^
    199c:	464f455a 			; <UNDEFINED> instruction: 0x464f455a
    19a0:	4f4c465f 	svcmi	0x004c465f
    19a4:	5f5f5441 	svcpl	0x005f5441
    19a8:	5f003420 	svcpl	0x00003420
    19ac:	544c465f 	strbpl	r4, [ip], #-1631	; 0xfffff9a1
    19b0:	5f583233 	svcpl	0x00583233
    19b4:	4f4e4544 	svcmi	0x004e4544
    19b8:	4d5f4d52 	ldclmi	13, cr4, [pc, #-328]	; 1878 <_Min_Stack_Size+0x1478>
    19bc:	5f5f4e49 	svcpl	0x005f4e49
    19c0:	392e3420 	stmdbcc	lr!, {r5, sl, ip, sp}
    19c4:	35363034 	ldrcc	r3, [r6, #-52]!	; 0xffffffcc
    19c8:	38353436 	ldmdacc	r5!, {r1, r2, r4, r5, sl, ip, sp}
    19cc:	34323134 	ldrtcc	r3, [r2], #-308	; 0xfffffecc
    19d0:	65343536 	ldrvs	r3, [r4, #-1334]!	; 0xfffffaca
    19d4:	3432332d 	ldrtcc	r3, [r2], #-813	; 0xfffffcd3
    19d8:	78323346 	ldmdavc	r2!, {r1, r2, r6, r8, r9, ip, sp}
    19dc:	465f5f00 	ldrbmi	r5, [pc], -r0, lsl #30
    19e0:	4d5f544c 	cfldrdmi	mvd5, [pc, #-304]	; 18b8 <_Min_Stack_Size+0x14b8>
    19e4:	315f5841 	cmpcc	pc, r1, asr #16
    19e8:	58455f30 	stmdapl	r5, {r4, r5, r8, r9, sl, fp, ip, lr}^
    19ec:	205f5f50 	subscs	r5, pc, r0, asr pc	; <UNPREDICTABLE>
    19f0:	45003833 	strmi	r3, [r0, #-2099]	; 0xfffff7cd
    19f4:	34495458 	strbcc	r5, [r9], #-1112	; 0xfffffba8
    19f8:	20344250 	eorscs	r4, r4, r0, asr r2
    19fc:	54584528 	ldrbpl	r4, [r8], #-1320	; 0xfffffad8
    1a00:	614d5f49 	cmpvs	sp, r9, asr #30
    1a04:	6e697070 	mcrvs	0, 3, r7, cr9, cr0, {3}
    1a08:	29745f67 	ldmdbcs	r4!, {r0, r1, r2, r5, r6, r8, r9, sl, fp, ip, lr}^
    1a0c:	5458457b 	ldrbpl	r4, [r8], #-1403	; 0xfffffa85
    1a10:	202c3449 	eorcs	r3, ip, r9, asr #8
    1a14:	4f495047 	svcmi	0x00495047
    1a18:	47202c42 	strmi	r2, [r0, -r2, asr #24]!
    1a1c:	5f4f4950 	svcpl	0x004f4950
    1a20:	5f4e4950 	svcpl	0x004e4950
    1a24:	45202c34 	strmi	r2, [r0, #-3124]!	; 0xfffff3cc
    1a28:	34495458 	strbcc	r5, [r9], #-1112	; 0xfffffba8
    1a2c:	5152495f 	cmppl	r2, pc, asr r9
    1a30:	5f5f007d 	svcpl	0x005f007d
    1a34:	43415246 	movtmi	r5, #4678	; 0x1246
    1a38:	414d5f54 	cmpmi	sp, r4, asr pc
    1a3c:	205f5f58 	subscs	r5, pc, r8, asr pc	; <UNPREDICTABLE>
    1a40:	46375830 			; <UNDEFINED> instruction: 0x46375830
    1a44:	2d504646 	ldclcs	6, cr4, [r0, #-280]	; 0xfffffee8
    1a48:	00523531 	subseq	r3, r2, r1, lsr r5
    1a4c:	4f495047 	svcmi	0x00495047
    1a50:	28282043 	stmdacs	r8!, {r0, r1, r6, sp}
    1a54:	4f495047 	svcmi	0x00495047
    1a58:	2a20745f 	bcs	81ebdc <_Min_Stack_Size+0x81e7dc>
    1a5c:	49504729 	ldmdbmi	r0, {r0, r3, r5, r8, r9, sl, lr}^
    1a60:	425f434f 	subsmi	r4, pc, #1006632961	; 0x3c000001
    1a64:	29455341 	stmdbcs	r5, {r0, r6, r8, r9, ip, lr}^
    1a68:	5f534f00 	svcpl	0x00534f00
    1a6c:	74697753 	strbtvc	r7, [r9], #-1875	; 0xfffff8ad
    1a70:	6f546863 	svcvs	0x00546863
    1a74:	50534d5f 	subspl	r4, r3, pc, asr sp
    1a78:	615f5f20 	cmpvs	pc, r0, lsr #30
    1a7c:	76206d73 			; <UNDEFINED> instruction: 0x76206d73
    1a80:	74616c6f 	strbtvc	r6, [r1], #-3183	; 0xfffff391
    1a84:	28656c69 	stmdacs	r5!, {r0, r3, r5, r6, sl, fp, sp, lr}^
    1a88:	53524d22 	cmppl	r2, #2176	; 0x880
    1a8c:	2c307220 	lfmcs	f7, 4, [r0], #-128	; 0xffffff80
    1a90:	544e4f43 	strbpl	r4, [lr], #-3907	; 0xfffff0bd
    1a94:	204c4f52 	subcs	r4, ip, r2, asr pc
    1a98:	745c6e5c 	ldrbvc	r6, [ip], #-3676	; 0xfffff1a4
    1a9c:	564f4d20 	strbpl	r4, [pc], -r0, lsr #26
    1aa0:	2c317220 	lfmcs	f7, 4, [r1], #-128	; 0xffffff80
    1aa4:	30783023 	rsbscc	r3, r8, r3, lsr #32
    1aa8:	6e5c2035 	mrcvs	0, 2, r2, cr12, cr5, {1}
    1aac:	4120745c 			; <UNDEFINED> instruction: 0x4120745c
    1ab0:	7220444e 	eorvc	r4, r0, #1308622848	; 0x4e000000
    1ab4:	30722c30 	rsbscc	r2, r2, r0, lsr ip
    1ab8:	2031722c 	eorscs	r7, r1, ip, lsr #4
    1abc:	745c6e5c 	ldrbvc	r6, [ip], #-3676	; 0xfffff1a4
    1ac0:	52534d20 	subspl	r4, r3, #32, 26	; 0x800
    1ac4:	4e4f4320 	cdpmi	3, 4, cr4, cr15, cr0, {1}
    1ac8:	4c4f5254 	sfmmi	f5, 2, [pc], {84}	; 0x54
    1acc:	2230722c 	eorscs	r7, r0, #44, 4	; 0xc0000002
    1ad0:	5f5f0029 	svcpl	0x005f0029
    1ad4:	5f544e49 	svcpl	0x00544e49
    1ad8:	54534146 	ldrbpl	r4, [r3], #-326	; 0xfffffeba
    1adc:	4d5f3233 	lfmmi	f3, 2, [pc, #-204]	; 1a18 <_Min_Stack_Size+0x1618>
    1ae0:	5f5f5841 	svcpl	0x005f5841
    1ae4:	37783020 	ldrbcc	r3, [r8, -r0, lsr #32]!
    1ae8:	66666666 	strbtvs	r6, [r6], -r6, ror #12
    1aec:	00666666 	rsbeq	r6, r6, r6, ror #12
    1af0:	54415f5f 	strbpl	r5, [r1], #-3935	; 0xfffff0a1
    1af4:	43494d4f 	movtmi	r4, #40271	; 0x9d4f
    1af8:	5145535f 	cmppl	r5, pc, asr r3
    1afc:	5453435f 	ldrbpl	r4, [r3], #-863	; 0xfffffca1
    1b00:	5f003520 	svcpl	0x00003520
    1b04:	5f51445f 	svcpl	0x0051445f
    1b08:	54494249 	strbpl	r4, [r9], #-585	; 0xfffffdb7
    1b0c:	30205f5f 	eorcc	r5, r0, pc, asr pc
    1b10:	6f6c4300 	svcvs	0x006c4300
    1b14:	495f6b63 	ldmdbmi	pc, {r0, r1, r5, r6, r8, r9, fp, sp, lr}^	; <UNPREDICTABLE>
    1b18:	0074696e 	rsbseq	r6, r4, lr, ror #18
    1b1c:	49545845 	ldmdbmi	r4, {r0, r2, r6, fp, ip, lr}^
    1b20:	30435030 	subcc	r5, r3, r0, lsr r0
    1b24:	58452820 	stmdapl	r5, {r5, fp, sp}^
    1b28:	4d5f4954 	vldrmi.16	s9, [pc, #-168]	; 1a88 <_Min_Stack_Size+0x1688>	; <UNPREDICTABLE>
    1b2c:	69707061 	ldmdbvs	r0!, {r0, r5, r6, ip, sp, lr}^
    1b30:	745f676e 	ldrbvc	r6, [pc], #-1902	; 1b38 <_Min_Stack_Size+0x1738>
    1b34:	58457b29 	stmdapl	r5, {r0, r3, r5, r8, r9, fp, ip, sp, lr}^
    1b38:	2c304954 			; <UNDEFINED> instruction: 0x2c304954
    1b3c:	49504720 	ldmdbmi	r0, {r5, r8, r9, sl, lr}^
    1b40:	202c434f 	eorcs	r4, ip, pc, asr #6
    1b44:	4f495047 	svcmi	0x00495047
    1b48:	4e49505f 	mcrmi	0, 2, r5, cr9, cr15, {2}
    1b4c:	202c305f 	eorcs	r3, ip, pc, asr r0
    1b50:	49545845 	ldmdbmi	r4, {r0, r2, r6, fp, ip, lr}^
    1b54:	52495f30 	subpl	r5, r9, #48, 30	; 0xc0
    1b58:	47007d51 	smlsdmi	r0, r1, sp, r7
    1b5c:	5f4f4950 	svcpl	0x004f4950
    1b60:	20574f4c 	subscs	r4, r7, ip, asr #30
    1b64:	52005530 	andpl	r5, r0, #48, 10	; 0xc000000
    1b68:	495f4343 	ldmdbmi	pc, {r0, r1, r6, r8, r9, lr}^	; <UNPREDICTABLE>
    1b6c:	5f324332 	svcpl	0x00324332
    1b70:	5f4b4c43 	svcpl	0x004b4c43
    1b74:	29284e45 	stmdbcs	r8!, {r0, r2, r6, r9, sl, fp, lr}
    1b78:	43522820 	cmpmi	r2, #32, 16	; 0x200000
    1b7c:	413e2d43 	teqmi	lr, r3, asr #26
    1b80:	45314250 	ldrmi	r4, [r1, #-592]!	; 0xfffffdb0
    1b84:	7c20524e 	sfmvc	f5, 4, [r0], #-312	; 0xfffffec8
    1b88:	3c31203d 	ldccc	0, cr2, [r1], #-244	; 0xffffff0c
    1b8c:	2932323c 	ldmdbcs	r2!, {r2, r3, r4, r5, r9, ip, sp}
    1b90:	545f5f00 	ldrbpl	r5, [pc], #-3840	; 1b98 <_Min_Stack_Size+0x1798>
    1b94:	42465f51 	submi	r5, r6, #324	; 0x144
    1b98:	5f5f5449 	svcpl	0x005f5449
    1b9c:	37323120 	ldrcc	r3, [r2, -r0, lsr #2]!
    1ba0:	43324900 	teqmi	r2, #0, 18
    1ba4:	3152435f 	cmpcc	r2, pc, asr r3
    1ba8:	4f54535f 	svcmi	0x0054535f
    1bac:	32492050 	subcc	r2, r9, #80	; 0x50
    1bb0:	52435f43 	subpl	r5, r3, #268	; 0x10c
    1bb4:	54535f31 	ldrbpl	r5, [r3], #-3889	; 0xfffff0cf
    1bb8:	4d5f504f 	ldclmi	0, cr5, [pc, #-316]	; 1a84 <_Min_Stack_Size+0x1684>
    1bbc:	49006b73 	stmdbmi	r0, {r0, r1, r4, r5, r6, r8, r9, fp, sp, lr}
    1bc0:	4f5f4332 	svcmi	0x005f4332
    1bc4:	5f325241 	svcpl	0x00325241
    1bc8:	32444441 	subcc	r4, r4, #1090519040	; 0x41000000
    1bcc:	43324920 	teqmi	r2, #32, 18	; 0x80000
    1bd0:	52414f5f 	subpl	r4, r1, #380	; 0x17c
    1bd4:	44415f32 	strbmi	r5, [r1], #-3890	; 0xfffff0ce
    1bd8:	4d5f3244 	lfmmi	f3, 2, [pc, #-272]	; 1ad0 <_Min_Stack_Size+0x16d0>
    1bdc:	47006b73 	smlsdxmi	r0, r3, fp, r6
    1be0:	5f4f4950 	svcpl	0x004f4950
    1be4:	45444f4d 	strbmi	r4, [r4, #-3917]	; 0xfffff0b3
    1be8:	414e415f 	cmpmi	lr, pc, asr r1
    1bec:	20474f4c 	subcs	r4, r7, ip, asr #30
    1bf0:	30307830 	eorscc	r7, r0, r0, lsr r8
    1bf4:	30303030 	eorscc	r3, r0, r0, lsr r0
    1bf8:	00553030 	subseq	r3, r5, r0, lsr r0
    1bfc:	746e6975 	strbtvc	r6, [lr], #-2421	; 0xfffff68b
    1c00:	745f3631 	ldrbvc	r3, [pc], #-1585	; 1c08 <_Min_Stack_Size+0x1808>
    1c04:	54584500 	ldrbpl	r4, [r8], #-1280	; 0xfffffb00
    1c08:	41503549 	cmpmi	r0, r9, asr #10
    1c0c:	45282035 	strmi	r2, [r8, #-53]!	; 0xffffffcb
    1c10:	5f495458 	svcpl	0x00495458
    1c14:	7070614d 	rsbsvc	r6, r0, sp, asr #2
    1c18:	5f676e69 	svcpl	0x00676e69
    1c1c:	457b2974 	ldrbmi	r2, [fp, #-2420]!	; 0xfffff68c
    1c20:	35495458 	strbcc	r5, [r9, #-1112]	; 0xfffffba8
    1c24:	5047202c 	subpl	r2, r7, ip, lsr #32
    1c28:	2c414f49 	mcrrcs	15, 4, r4, r1, cr9
    1c2c:	49504720 	ldmdbmi	r0, {r5, r8, r9, sl, lr}^
    1c30:	49505f4f 	ldmdbmi	r0, {r0, r1, r2, r3, r6, r8, r9, sl, fp, ip, lr}^
    1c34:	2c355f4e 	ldccs	15, cr5, [r5], #-312	; 0xfffffec8
    1c38:	54584520 	ldrbpl	r4, [r8], #-1312	; 0xfffffae0
    1c3c:	495f3549 	ldmdbmi	pc, {r0, r3, r6, r8, sl, ip, sp}^	; <UNPREDICTABLE>
    1c40:	007d5152 	rsbseq	r5, sp, r2, asr r1
    1c44:	49535f5f 	ldmdbmi	r3, {r0, r1, r2, r3, r4, r6, r8, r9, sl, fp, ip, lr}^
    1c48:	464f455a 			; <UNDEFINED> instruction: 0x464f455a
    1c4c:	4f48535f 	svcmi	0x0048535f
    1c50:	5f5f5452 	svcpl	0x005f5452
    1c54:	5f003220 	svcpl	0x00003220
    1c58:	4c4c555f 	cfstr64mi	mvdx5, [ip], {95}	; 0x5f
    1c5c:	55434341 	strbpl	r4, [r3, #-833]	; 0xfffffcbf
    1c60:	42465f4d 	submi	r5, r6, #308	; 0x134
    1c64:	5f5f5449 	svcpl	0x005f5449
    1c68:	00323320 	eorseq	r3, r2, r0, lsr #6
    1c6c:	4349564e 	movtmi	r5, #38478	; 0x964e
    1c70:	5152495f 	cmppl	r2, pc, asr r9
    1c74:	455f365f 	ldrbmi	r3, [pc, #-1631]	; 161d <_Min_Stack_Size+0x121d>
    1c78:	30495458 	subcc	r5, r9, r8, asr r4
    1c7c:	7369445f 	cmnvc	r9, #1593835520	; 0x5f000000
    1c80:	656c6261 	strbvs	r6, [ip, #-609]!	; 0xfffffd9f
    1c84:	28202928 	stmdacs	r0!, {r3, r5, r8, fp, sp}
    1c88:	4349564e 	movtmi	r5, #38478	; 0x964e
    1c8c:	4543495f 	strbmi	r4, [r3, #-2399]	; 0xfffff6a1
    1c90:	7c203052 	stcvc	0, cr3, [r0], #-328	; 0xfffffeb8
    1c94:	3c31203d 	ldccc	0, cr2, [r1], #-244	; 0xffffff0c
    1c98:	0029363c 	eoreq	r3, r9, ip, lsr r6
    1c9c:	535f734f 	cmppl	pc, #1006632961	; 0x3c000001
    1ca0:	505f7465 	subspl	r7, pc, r5, ror #8
    1ca4:	565f5053 			; <UNDEFINED> instruction: 0x565f5053
    1ca8:	61284c41 			; <UNDEFINED> instruction: 0x61284c41
    1cac:	65726464 	ldrbvs	r6, [r2, #-1124]!	; 0xfffffb9c
    1cb0:	20297373 	eorcs	r7, r9, r3, ror r3
    1cb4:	73615f5f 	cmnvc	r1, #380	; 0x17c
    1cb8:	6f76206d 	svcvs	0x0076206d
    1cbc:	6974616c 	ldmdbvs	r4!, {r2, r3, r5, r6, r8, sp, lr}^
    1cc0:	2228656c 	eorcs	r6, r8, #108, 10	; 0x1b000000
    1cc4:	20564f4d 	subscs	r4, r6, sp, asr #30
    1cc8:	252c3072 	strcs	r3, [ip, #-114]!	; 0xffffff8e
    1ccc:	5d4e495b 	vstrpl.16	s9, [lr, #-182]	; 0xffffff4a	; <UNPREDICTABLE>
    1cd0:	5c6e5c20 	stclpl	12, cr5, [lr], #-128	; 0xffffff80
    1cd4:	534d2074 	movtpl	r2, #53364	; 0xd074
    1cd8:	53502052 	cmppl	r0, #82	; 0x52
    1cdc:	30722c50 	rsbscc	r2, r2, r0, asr ip
    1ce0:	203a2022 	eorscs	r2, sl, r2, lsr #32
    1ce4:	4e495b3a 	vmovmi.8	d9[1], r5
    1ce8:	2272225d 	rsbscs	r2, r2, #-805306363	; 0xd0000005
    1cec:	64612820 	strbtvs	r2, [r1], #-2080	; 0xfffff7e0
    1cf0:	73657264 	cmnvc	r5, #100, 4	; 0x40000006
    1cf4:	00292973 	eoreq	r2, r9, r3, ror r9
    1cf8:	4f495047 	svcmi	0x00495047
    1cfc:	444f4d5f 	strbmi	r4, [pc], #-3423	; 1d04 <_Min_Stack_Size+0x1904>
    1d00:	554f5f45 	strbpl	r5, [pc, #-3909]	; dc3 <_Min_Stack_Size+0x9c3>
    1d04:	54555054 	ldrbpl	r5, [r5], #-84	; 0xffffffac
    1d08:	2050505f 	subscs	r5, r0, pc, asr r0
    1d0c:	30307830 	eorscc	r7, r0, r0, lsr r8
    1d10:	30303030 	eorscc	r3, r0, r0, lsr r0
    1d14:	00553430 	subseq	r3, r5, r0, lsr r4
    1d18:	5f433249 	svcpl	0x00433249
    1d1c:	5f325253 	svcpl	0x00325253
    1d20:	5f415254 	svcpl	0x00415254
    1d24:	20736f50 	rsbscs	r6, r3, r0, asr pc
    1d28:	29553228 	ldmdbcs	r5, {r3, r5, r9, ip, sp}^
    1d2c:	54584500 	ldrbpl	r4, [r8], #-1280	; 0xfffffb00
    1d30:	41503449 	cmpmi	r0, r9, asr #8
    1d34:	45282034 	strmi	r2, [r8, #-52]!	; 0xffffffcc
    1d38:	5f495458 	svcpl	0x00495458
    1d3c:	7070614d 	rsbsvc	r6, r0, sp, asr #2
    1d40:	5f676e69 	svcpl	0x00676e69
    1d44:	457b2974 	ldrbmi	r2, [fp, #-2420]!	; 0xfffff68c
    1d48:	34495458 	strbcc	r5, [r9], #-1112	; 0xfffffba8
    1d4c:	5047202c 	subpl	r2, r7, ip, lsr #32
    1d50:	2c414f49 	mcrrcs	15, 4, r4, r1, cr9
    1d54:	49504720 	ldmdbmi	r0, {r5, r8, r9, sl, lr}^
    1d58:	49505f4f 	ldmdbmi	r0, {r0, r1, r2, r3, r6, r8, r9, sl, fp, ip, lr}^
    1d5c:	2c345f4e 	ldccs	15, cr5, [r4], #-312	; 0xfffffec8
    1d60:	54584520 	ldrbpl	r4, [r8], #-1312	; 0xfffffae0
    1d64:	495f3449 	ldmdbmi	pc, {r0, r3, r6, sl, ip, sp}^	; <UNPREDICTABLE>
    1d68:	007d5152 	rsbseq	r5, sp, r2, asr r1
    1d6c:	4f495047 	svcmi	0x00495047
    1d70:	4e49505f 	mcrmi	0, 2, r5, cr9, cr15, {2}
    1d74:	2820335f 	stmdacs	r0!, {r0, r1, r2, r3, r4, r6, r8, r9, ip, sp}
    1d78:	6e697528 	cdpvs	5, 6, cr7, cr9, cr8, {1}
    1d7c:	5f363174 	svcpl	0x00363174
    1d80:	78302974 	ldmdavc	r0!, {r2, r4, r5, r6, r8, fp, sp}
    1d84:	38303030 	ldmdacc	r0!, {r4, r5, ip, sp}
    1d88:	5f5f0029 	svcpl	0x005f0029
    1d8c:	455a4953 	ldrbmi	r4, [sl, #-2387]	; 0xfffff6ad
    1d90:	4c5f464f 	mrrcmi	6, 4, r4, pc, cr15	; <UNPREDICTABLE>
    1d94:	5f474e4f 	svcpl	0x00474e4f
    1d98:	42554f44 	subsmi	r4, r5, #68, 30	; 0x110
    1d9c:	5f5f454c 	svcpl	0x005f454c
    1da0:	45003820 	strmi	r3, [r0, #-2080]	; 0xfffff7e0
    1da4:	31495458 	cmpcc	r9, r8, asr r4
    1da8:	20314250 	eorscs	r4, r1, r0, asr r2
    1dac:	54584528 	ldrbpl	r4, [r8], #-1320	; 0xfffffad8
    1db0:	614d5f49 	cmpvs	sp, r9, asr #30
    1db4:	6e697070 	mcrvs	0, 3, r7, cr9, cr0, {3}
    1db8:	29745f67 	ldmdbcs	r4!, {r0, r1, r2, r5, r6, r8, r9, sl, fp, ip, lr}^
    1dbc:	5458457b 	ldrbpl	r4, [r8], #-1403	; 0xfffffa85
    1dc0:	202c3149 	eorcs	r3, ip, r9, asr #2
    1dc4:	4f495047 	svcmi	0x00495047
    1dc8:	47202c42 	strmi	r2, [r0, -r2, asr #24]!
    1dcc:	5f4f4950 	svcpl	0x004f4950
    1dd0:	5f4e4950 	svcpl	0x004e4950
    1dd4:	45202c31 	strmi	r2, [r0, #-3121]!	; 0xfffff3cf
    1dd8:	31495458 	cmpcc	r9, r8, asr r4
    1ddc:	5152495f 	cmppl	r2, pc, asr r9
    1de0:	5f5f007d 	svcpl	0x005f007d
    1de4:	47415250 	smlsldmi	r5, r1, r0, r2
    1de8:	525f414d 	subspl	r4, pc, #1073741843	; 0x40000013
    1dec:	46454445 	strbmi	r4, [r5], -r5, asr #8
    1df0:	5f454e49 	svcpl	0x00454e49
    1df4:	4e545845 	cdpmi	8, 5, cr5, cr4, cr5, {2}
    1df8:	20454d41 	subcs	r4, r5, r1, asr #26
    1dfc:	5f5f0031 	svcpl	0x005f0031
    1e00:	41484357 	cmpmi	r8, r7, asr r3
    1e04:	59545f52 	ldmdbpl	r4, {r1, r4, r6, r8, r9, sl, fp, ip, lr}^
    1e08:	5f5f4550 	svcpl	0x005f4550
    1e0c:	736e7520 	cmnvc	lr, #32, 10	; 0x8000000
    1e10:	656e6769 	strbvs	r6, [lr, #-1897]!	; 0xfffff897
    1e14:	6e692064 	cdpvs	0, 6, cr2, cr9, cr4, {3}
    1e18:	434c0074 	movtmi	r0, #49268	; 0xc074
    1e1c:	4e455f44 	cdpmi	15, 4, cr5, cr5, cr4, {2}
    1e20:	5f595254 	svcpl	0x00595254
    1e24:	45444f4d 	strbmi	r4, [r4, #-3917]	; 0xfffff0b3
    1e28:	434e495f 	movtmi	r4, #59743	; 0xe95f
    1e2c:	4948535f 	stmdbmi	r8, {r0, r1, r2, r3, r4, r6, r8, r9, ip, lr}^
    1e30:	4f5f5446 	svcmi	0x005f5446
    1e34:	30204646 	eorcc	r4, r0, r6, asr #12
    1e38:	00363078 	eorseq	r3, r6, r8, ror r0
    1e3c:	5f433249 	svcpl	0x00433249
    1e40:	5f315243 	svcpl	0x00315243
    1e44:	54534f4e 	ldrbpl	r4, [r3], #-3918	; 0xfffff0b2
    1e48:	43544552 	cmpmi	r4, #343932928	; 0x14800000
    1e4c:	32492048 	subcc	r2, r9, #72	; 0x48
    1e50:	52435f43 	subpl	r5, r3, #268	; 0x10c
    1e54:	4f4e5f31 	svcmi	0x004e5f31
    1e58:	45525453 	ldrbmi	r5, [r2, #-1107]	; 0xfffffbad
    1e5c:	5f484354 	svcpl	0x00484354
    1e60:	006b734d 	rsbeq	r7, fp, sp, asr #6
    1e64:	53555f5f 	cmppl	r5, #380	; 0x17c
    1e68:	42495f41 	submi	r5, r9, #260	; 0x104
    1e6c:	5f5f5449 	svcpl	0x005f5449
    1e70:	00363120 	eorseq	r3, r6, r0, lsr #2
    1e74:	43475f5f 	movtmi	r5, #32607	; 0x7f5f
    1e78:	41485f43 	cmpmi	r8, r3, asr #30
    1e7c:	535f4556 	cmppl	pc, #360710144	; 0x15800000
    1e80:	5f434e59 	svcpl	0x00434e59
    1e84:	504d4f43 	subpl	r4, sp, r3, asr #30
    1e88:	5f455241 	svcpl	0x00455241
    1e8c:	5f444e41 	svcpl	0x00444e41
    1e90:	50415753 	subpl	r5, r1, r3, asr r7
    1e94:	3120325f 			; <UNDEFINED> instruction: 0x3120325f
    1e98:	54584500 	ldrbpl	r4, [r8], #-1280	; 0xfffffb00
    1e9c:	50313149 	eorspl	r3, r1, r9, asr #2
    1ea0:	20313144 	eorscs	r3, r1, r4, asr #2
    1ea4:	54584528 	ldrbpl	r4, [r8], #-1320	; 0xfffffad8
    1ea8:	614d5f49 	cmpvs	sp, r9, asr #30
    1eac:	6e697070 	mcrvs	0, 3, r7, cr9, cr0, {3}
    1eb0:	29745f67 	ldmdbcs	r4!, {r0, r1, r2, r5, r6, r8, r9, sl, fp, ip, lr}^
    1eb4:	5458457b 	ldrbpl	r4, [r8], #-1403	; 0xfffffa85
    1eb8:	2c313149 	ldfcss	f3, [r1], #-292	; 0xfffffedc
    1ebc:	49504720 	ldmdbmi	r0, {r5, r8, r9, sl, lr}^
    1ec0:	202c444f 	eorcs	r4, ip, pc, asr #8
    1ec4:	4f495047 	svcmi	0x00495047
    1ec8:	4e49505f 	mcrmi	0, 2, r5, cr9, cr15, {2}
    1ecc:	2c31315f 	ldfcss	f3, [r1], #-380	; 0xfffffe84
    1ed0:	54584520 	ldrbpl	r4, [r8], #-1312	; 0xfffffae0
    1ed4:	5f313149 	svcpl	0x00313149
    1ed8:	7d515249 	lfmvc	f5, 2, [r1, #-292]	; 0xfffffedc
    1edc:	49464100 	stmdbmi	r6, {r8, lr}^
    1ee0:	41425f4f 	cmpmi	r2, pc, asr #30
    1ee4:	30204553 	eorcc	r4, r0, r3, asr r5
    1ee8:	30303478 	eorscc	r3, r0, r8, ror r4
    1eec:	30303031 	eorscc	r3, r0, r1, lsr r0
    1ef0:	004c5530 	subeq	r5, ip, r0, lsr r5
    1ef4:	46535f5f 	usaxmi	r5, r3, pc	; <UNPREDICTABLE>
    1ef8:	54434152 	strbpl	r4, [r3], #-338	; 0xfffffeae
    1efc:	58414d5f 	stmdapl	r1, {r0, r1, r2, r3, r4, r6, r8, sl, fp, lr}^
    1f00:	30205f5f 	eorcc	r5, r0, pc, asr pc
    1f04:	50463758 	subpl	r3, r6, r8, asr r7
    1f08:	5248372d 	subpl	r3, r8, #11796480	; 0xb40000
    1f0c:	43324900 	teqmi	r2, #0, 18
    1f10:	3152435f 	cmpcc	r2, pc, asr r3
    1f14:	4154535f 	cmpmi	r4, pc, asr r3
    1f18:	505f5452 	subspl	r5, pc, r2, asr r4	; <UNPREDICTABLE>
    1f1c:	2820736f 	stmdacs	r0!, {r0, r1, r2, r3, r5, r6, r8, r9, ip, sp, lr}
    1f20:	00295538 	eoreq	r5, r9, r8, lsr r5
    1f24:	4d5f535f 	ldclmi	3, cr5, [pc, #-380]	; 1db0 <_Min_Stack_Size+0x19b0>
    1f28:	5f005053 	svcpl	0x00005053
    1f2c:	544c465f 	strbpl	r4, [ip], #-1631	; 0xfffff9a1
    1f30:	4e494d5f 	mcrmi	13, 2, r4, cr9, cr15, {2}
    1f34:	31205f5f 			; <UNDEFINED> instruction: 0x31205f5f
    1f38:	3537312e 	ldrcc	r3, [r7, #-302]!	; 0xfffffed2
    1f3c:	33343934 	teqcc	r4, #52, 18	; 0xd0000
    1f40:	32383035 	eorscc	r3, r8, #53	; 0x35
    1f44:	37383232 			; <UNDEFINED> instruction: 0x37383232
    1f48:	332d6535 			; <UNDEFINED> instruction: 0x332d6535
    1f4c:	5f004638 	svcpl	0x00004638
    1f50:	5f41485f 	svcpl	0x0041485f
    1f54:	54494246 	strbpl	r4, [r9], #-582	; 0xfffffdba
    1f58:	37205f5f 			; <UNDEFINED> instruction: 0x37205f5f
    1f5c:	465f5f00 	ldrbmi	r5, [pc], -r0, lsl #30
    1f60:	43495044 	movtmi	r5, #36932	; 0x9044
    1f64:	49005f5f 	stmdbmi	r0, {r0, r1, r2, r3, r4, r6, r8, r9, sl, fp, ip, lr}
    1f68:	4f5f4332 	svcmi	0x005f4332
    1f6c:	5f325241 	svcpl	0x00325241
    1f70:	32444441 	subcc	r4, r4, #1090519040	; 0x41000000
    1f74:	736f505f 	cmnvc	pc, #95	; 0x5f
    1f78:	55312820 	ldrpl	r2, [r1, #-2080]!	; 0xfffff7e0
    1f7c:	5f5f0029 	svcpl	0x005f0029
    1f80:	33544c46 	cmpcc	r4, #17920	; 0x4600
    1f84:	53495f32 	movtpl	r5, #40754	; 0x9f32
    1f88:	4345495f 	movtmi	r4, #22879	; 0x595f
    1f8c:	3530365f 	ldrcc	r3, [r0, #-1631]!	; 0xfffff9a1
    1f90:	5f5f3935 	svcpl	0x005f3935
    1f94:	49003220 	stmdbmi	r0, {r5, r9, ip, sp}
    1f98:	435f4332 	cmpmi	pc, #-939524096	; 0xc8000000
    1f9c:	495f3252 	ldmdbmi	pc, {r1, r4, r6, r9, ip, sp}^	; <UNPREDICTABLE>
    1fa0:	52524554 	subspl	r4, r2, #84, 10	; 0x15000000
    1fa4:	4d5f4e45 	ldclmi	14, cr4, [pc, #-276]	; 1e98 <_Min_Stack_Size+0x1a98>
    1fa8:	28206b73 	stmdacs	r0!, {r0, r1, r4, r5, r6, r8, r9, fp, sp, lr}
    1fac:	55317830 	ldrpl	r7, [r1, #-2096]!	; 0xfffff7d0
    1fb0:	3c3c204c 	ldccc	0, cr2, [ip], #-304	; 0xfffffed0
    1fb4:	43324920 	teqmi	r2, #32, 18	; 0x80000
    1fb8:	3252435f 	subscc	r4, r2, #2080374785	; 0x7c000001
    1fbc:	4554495f 	ldrbmi	r4, [r4, #-2399]	; 0xfffff6a1
    1fc0:	4e455252 	mcrmi	2, 2, r5, cr5, cr2, {2}
    1fc4:	736f505f 	cmnvc	pc, #95	; 0x5f
    1fc8:	50530029 	subspl	r0, r3, r9, lsr #32
    1fcc:	495f3249 	ldmdbmi	pc, {r0, r3, r6, r9, ip, sp}^	; <UNPREDICTABLE>
    1fd0:	33205152 			; <UNDEFINED> instruction: 0x33205152
    1fd4:	32490036 	subcc	r0, r9, #54	; 0x36
    1fd8:	52535f43 	subspl	r5, r3, #268	; 0x10c
    1fdc:	44415f31 	strbmi	r5, [r1], #-3889	; 0xfffff0cf
    1fe0:	5f303144 	svcpl	0x00303144
    1fe4:	206b734d 	rsbcs	r7, fp, sp, asr #6
    1fe8:	31783028 	cmncc	r8, r8, lsr #32
    1fec:	3c204c55 	stccc	12, cr4, [r0], #-340	; 0xfffffeac
    1ff0:	3249203c 	subcc	r2, r9, #60	; 0x3c
    1ff4:	52535f43 	subspl	r5, r3, #268	; 0x10c
    1ff8:	44415f31 	strbmi	r5, [r1], #-3889	; 0xfffff0cf
    1ffc:	5f303144 	svcpl	0x00303144
    2000:	29736f50 	ldmdbcs	r3!, {r4, r6, r8, r9, sl, fp, sp, lr}^
    2004:	54584500 	ldrbpl	r4, [r8], #-1280	; 0xfffffb00
    2008:	5f333149 	svcpl	0x00333149
    200c:	20515249 	subscs	r5, r1, r9, asr #4
    2010:	5f003034 	svcpl	0x00003034
    2014:	4653555f 			; <UNDEFINED> instruction: 0x4653555f
    2018:	54434152 	strbpl	r4, [r3], #-338	; 0xfffffeae
    201c:	4942495f 	stmdbmi	r2, {r0, r1, r2, r3, r4, r6, r8, fp, lr}^
    2020:	205f5f54 	subscs	r5, pc, r4, asr pc	; <UNPREDICTABLE>
    2024:	43520030 	cmpmi	r2, #48	; 0x30
    2028:	53555f43 	cmppl	r5, #268	; 0x10c
    202c:	31545241 	cmpcc	r4, r1, asr #4
    2030:	4b4c435f 	blmi	1312db4 <_Min_Stack_Size+0x13129b4>
    2034:	2849445f 	stmdacs	r9, {r0, r1, r2, r3, r4, r6, sl, lr}^
    2038:	4c432029 	mcrrmi	0, 2, r2, r3, cr9
    203c:	5f524145 	svcpl	0x00524145
    2040:	28544942 	ldmdacs	r4, {r1, r6, r8, fp, lr}^
    2044:	2d434352 	stclcs	3, cr4, [r3, #-328]	; 0xfffffeb8
    2048:	4250413e 	subsmi	r4, r0, #-2147483633	; 0x8000000f
    204c:	524e4532 	subpl	r4, lr, #209715200	; 0xc800000
    2050:	2934312c 	ldmdbcs	r4!, {r2, r3, r5, r8, ip, sp}
    2054:	43324900 	teqmi	r2, #0, 18
    2058:	3252435f 	subscc	r4, r2, #2080374785	; 0x7c000001
    205c:	414d445f 	cmpmi	sp, pc, asr r4
    2060:	49204e45 	stmdbmi	r0!, {r0, r2, r6, r9, sl, fp, lr}
    2064:	435f4332 	cmpmi	pc, #-939524096	; 0xc8000000
    2068:	445f3252 	ldrbmi	r3, [pc], #-594	; 2070 <_Min_Stack_Size+0x1c70>
    206c:	4e45414d 	dvfmism	f4, f5, #5.0
    2070:	6b734d5f 	blvs	1cd55f4 <_Min_Stack_Size+0x1cd51f4>
    2074:	43324900 	teqmi	r2, #0, 18
    2078:	3252535f 	subscc	r5, r2, #2080374785	; 0x7c000001
    207c:	5355425f 	cmppl	r5, #-268435451	; 0xf0000005
    2080:	734d5f59 	movtvc	r5, #57177	; 0xdf59
    2084:	3028206b 	eorcc	r2, r8, fp, rrx
    2088:	4c553178 	ldfmie	f3, [r5], {120}	; 0x78
    208c:	203c3c20 	eorscs	r3, ip, r0, lsr #24
    2090:	5f433249 	svcpl	0x00433249
    2094:	5f325253 	svcpl	0x00325253
    2098:	59535542 	ldmdbpl	r3, {r1, r6, r8, sl, ip, lr}^
    209c:	736f505f 	cmnvc	pc, #95	; 0x5f
    20a0:	5f5f0029 	svcpl	0x005f0029
    20a4:	52465355 	subpl	r5, r6, #1409286145	; 0x54000001
    20a8:	5f544341 	svcpl	0x00544341
    20ac:	5f4e494d 	svcpl	0x004e494d
    20b0:	2e30205f 	mrccs	0, 1, r2, cr0, cr15, {2}
    20b4:	52485530 	subpl	r5, r8, #48, 10	; 0xc000000
    20b8:	415f5f00 	cmpmi	pc, r0, lsl #30
    20bc:	4e5f4d52 	mrcmi	13, 2, r4, cr15, cr2, {2}
    20c0:	004e4f45 	subeq	r4, lr, r5, asr #30
    20c4:	49555f5f 	ldmdbmi	r5, {r0, r1, r2, r3, r4, r6, r8, r9, sl, fp, ip, lr}^
    20c8:	5f38544e 	svcpl	0x0038544e
    20cc:	5f58414d 	svcpl	0x0058414d
    20d0:	7830205f 	ldmdavc	r0!, {r0, r1, r2, r3, r4, r6, sp}
    20d4:	49006666 	stmdbmi	r0, {r1, r2, r5, r6, r9, sl, sp, lr}
    20d8:	535f4332 	cmppl	pc, #-939524096	; 0xc8000000
    20dc:	425f3152 	subsmi	r3, pc, #-2147483628	; 0x80000014
    20e0:	5f525245 	svcpl	0x00525245
    20e4:	20736f50 	rsbscs	r6, r3, r0, asr pc
    20e8:	29553828 	ldmdbcs	r5, {r3, r5, fp, ip, sp}^
    20ec:	4c5f5f00 	mrrcmi	15, 0, r5, pc, cr0	; <UNPREDICTABLE>
    20f0:	5f4c4244 	svcpl	0x004c4244
    20f4:	5f58414d 	svcpl	0x0058414d
    20f8:	5f505845 	svcpl	0x00505845
    20fc:	3031205f 	eorscc	r2, r1, pc, asr r0
    2100:	49003432 	stmdbmi	r0, {r1, r4, r5, sl, ip, sp}
    2104:	535f4332 	cmppl	pc, #-939524096	; 0xc8000000
    2108:	505f3152 	subspl	r3, pc, r2, asr r1	; <UNPREDICTABLE>
    210c:	52454345 	subpl	r4, r5, #335544321	; 0x14000001
    2110:	32492052 	subcc	r2, r9, #82	; 0x52
    2114:	52535f43 	subspl	r5, r3, #268	; 0x10c
    2118:	45505f31 	ldrbmi	r5, [r0, #-3889]	; 0xfffff0cf
    211c:	52524543 	subspl	r4, r2, #281018368	; 0x10c00000
    2120:	6b734d5f 	blvs	1cd56a4 <_Min_Stack_Size+0x1cd52a4>
    2124:	54584500 	ldrbpl	r4, [r8], #-1280	; 0xfffffb00
    2128:	495f3249 	ldmdbmi	pc, {r0, r3, r6, r9, ip, sp}^	; <UNPREDICTABLE>
    212c:	38205152 	stmdacc	r0!, {r1, r4, r6, r8, ip, lr}
    2130:	49504700 	ldmdbmi	r0, {r8, r9, sl, lr}^
    2134:	425f434f 	subsmi	r4, pc, #1006632961	; 0x3c000001
    2138:	20455341 	subcs	r5, r5, r1, asr #6
    213c:	30347830 	eorscc	r7, r4, r0, lsr r8
    2140:	30313130 	eorscc	r3, r1, r0, lsr r1
    2144:	4c553030 	mrrcmi	0, 3, r3, r5, cr0
    2148:	445f5f00 	ldrbmi	r5, [pc], #-3840	; 2150 <_Min_Stack_Size+0x1d50>
    214c:	485f4c42 	ldmdami	pc, {r1, r6, sl, fp, lr}^	; <UNPREDICTABLE>
    2150:	445f5341 	ldrbmi	r5, [pc], #-833	; 2158 <_Min_Stack_Size+0x1d58>
    2154:	524f4e45 	subpl	r4, pc, #1104	; 0x450
    2158:	205f5f4d 	subscs	r5, pc, sp, asr #30
    215c:	72540031 	subsvc	r0, r4, #49	; 0x31
    2160:	65676769 	strbvs	r6, [r7, #-1897]!	; 0xfffff897
    2164:	32490072 	subcc	r0, r9, #114	; 0x72
    2168:	455f3243 	ldrbmi	r3, [pc, #-579]	; 1f2d <_Min_Stack_Size+0x1b2d>
    216c:	52495f56 	subpl	r5, r9, #344	; 0x158
    2170:	33332051 	teqcc	r3, #81	; 0x51
    2174:	49505300 	ldmdbmi	r0, {r8, r9, ip, lr}^
    2178:	28282032 	stmdacs	r8!, {r1, r4, r5, sp}
    217c:	5f495053 	svcpl	0x00495053
    2180:	292a2074 	stmdbcs	sl!, {r2, r4, r5, r6, sp}
    2184:	32495053 	subcc	r5, r9, #83	; 0x53
    2188:	5341425f 	movtpl	r4, #4703	; 0x125f
    218c:	5f002945 	svcpl	0x00002945
    2190:	5f41445f 	svcpl	0x0041445f
    2194:	54494246 	strbpl	r4, [r9], #-582	; 0xfffffdba
    2198:	33205f5f 			; <UNDEFINED> instruction: 0x33205f5f
    219c:	32490031 	subcc	r0, r9, #49	; 0x31
    21a0:	52435f43 	subpl	r5, r3, #268	; 0x10c
    21a4:	45505f31 	ldrbmi	r5, [r0, #-3889]	; 0xfffff0cf
    21a8:	43324920 	teqmi	r2, #32, 18	; 0x80000
    21ac:	3152435f 	cmpcc	r2, pc, asr r3
    21b0:	5f45505f 	svcpl	0x0045505f
    21b4:	006b734d 	rsbeq	r7, fp, sp, asr #6
    21b8:	58475f5f 	stmdapl	r7, {r0, r1, r2, r3, r4, r6, r8, r9, sl, fp, ip, lr}^
    21bc:	42415f58 	submi	r5, r1, #88, 30	; 0x160
    21c0:	45565f49 	ldrbmi	r5, [r6, #-3913]	; 0xfffff0b7
    21c4:	4f495352 	svcmi	0x00495352
    21c8:	3031204e 	eorscc	r2, r1, lr, asr #32
    21cc:	5f003631 	svcpl	0x00003631
    21d0:	544e495f 	strbpl	r4, [lr], #-2399	; 0xfffff6a1
    21d4:	41454c5f 	cmpmi	r5, pc, asr ip
    21d8:	36315453 			; <UNDEFINED> instruction: 0x36315453
    21dc:	58414d5f 	stmdapl	r1, {r0, r1, r2, r3, r4, r6, r8, sl, fp, lr}^
    21e0:	30205f5f 	eorcc	r5, r0, pc, asr pc
    21e4:	66663778 			; <UNDEFINED> instruction: 0x66663778
    21e8:	32490066 	subcc	r0, r9, #102	; 0x66
    21ec:	52535f43 	subspl	r5, r3, #268	; 0x10c
    21f0:	58545f31 	ldmdapl	r4, {r0, r4, r5, r8, r9, sl, fp, ip, lr}^
    21f4:	6f505f45 	svcvs	0x00505f45
    21f8:	37282073 			; <UNDEFINED> instruction: 0x37282073
    21fc:	5f002955 	svcpl	0x00002955
    2200:	544c465f 	strbpl	r4, [ip], #-1631	; 0xfffff9a1
    2204:	4e45445f 	mcrmi	4, 2, r4, cr5, cr15, {2}
    2208:	5f4d524f 	svcpl	0x004d524f
    220c:	5f4e494d 	svcpl	0x004e494d
    2210:	2e31205f 	mrccs	0, 1, r2, cr1, cr15, {2}
    2214:	32313034 	eorscc	r3, r1, #52	; 0x34
    2218:	36343839 			; <UNDEFINED> instruction: 0x36343839
    221c:	34323334 	ldrtcc	r3, [r2], #-820	; 0xfffffccc
    2220:	31373138 	teqcc	r7, r8, lsr r1
    2224:	35342d65 	ldrcc	r2, [r4, #-3429]!	; 0xfffff29b
    2228:	434c0046 	movtmi	r0, #49222	; 0xc046
    222c:	42385f44 	eorsmi	r5, r8, #68, 30	; 0x110
    2230:	4d5f5449 	cfldrdmi	mvd5, [pc, #-292]	; 2114 <_Min_Stack_Size+0x1d14>
    2234:	5f45444f 	svcpl	0x0045444f
    2238:	494c5f32 	stmdbmi	ip, {r1, r4, r5, r8, r9, sl, fp, ip, lr}^
    223c:	3020454e 	eorcc	r4, r0, lr, asr #10
    2240:	00383378 	eorseq	r3, r8, r8, ror r3
    2244:	5f433249 	svcpl	0x00433249
    2248:	5f315243 	svcpl	0x00315243
    224c:	204b4341 	subcs	r4, fp, r1, asr #6
    2250:	5f433249 	svcpl	0x00433249
    2254:	5f315243 	svcpl	0x00315243
    2258:	5f4b4341 	svcpl	0x004b4341
    225c:	006b734d 	rsbeq	r7, fp, sp, asr #6
    2260:	49555f5f 	ldmdbmi	r5, {r0, r1, r2, r3, r4, r6, r8, r9, sl, fp, ip, lr}^
    2264:	3233544e 	eorscc	r5, r3, #1308622848	; 0x4e000000
    2268:	6328435f 			; <UNDEFINED> instruction: 0x6328435f
    226c:	20632029 	rsbcs	r2, r3, r9, lsr #32
    2270:	55202323 	strpl	r2, [r0, #-803]!	; 0xfffffcdd
    2274:	5845004c 	stmdapl	r5, {r2, r3, r6}^
    2278:	30314954 	eorscc	r4, r1, r4, asr r9
    227c:	30314150 	eorscc	r4, r1, r0, asr r1
    2280:	58452820 	stmdapl	r5, {r5, fp, sp}^
    2284:	4d5f4954 	vldrmi.16	s9, [pc, #-168]	; 21e4 <_Min_Stack_Size+0x1de4>	; <UNPREDICTABLE>
    2288:	69707061 	ldmdbvs	r0!, {r0, r5, r6, ip, sp, lr}^
    228c:	745f676e 	ldrbvc	r6, [pc], #-1902	; 2294 <_Min_Stack_Size+0x1e94>
    2290:	58457b29 	stmdapl	r5, {r0, r3, r5, r8, r9, fp, ip, sp, lr}^
    2294:	30314954 	eorscc	r4, r1, r4, asr r9
    2298:	5047202c 	subpl	r2, r7, ip, lsr #32
    229c:	2c414f49 	mcrrcs	15, 4, r4, r1, cr9
    22a0:	49504720 	ldmdbmi	r0, {r5, r8, r9, sl, lr}^
    22a4:	49505f4f 	ldmdbmi	r0, {r0, r1, r2, r3, r6, r8, r9, sl, fp, ip, lr}^
    22a8:	30315f4e 	eorscc	r5, r1, lr, asr #30
    22ac:	5845202c 	stmdapl	r5, {r2, r3, r5, sp}^
    22b0:	30314954 	eorscc	r4, r1, r4, asr r9
    22b4:	5152495f 	cmppl	r2, pc, asr r9
    22b8:	5f5f007d 	svcpl	0x005f007d
    22bc:	43434155 	movtmi	r4, #12629	; 0x3155
    22c0:	4d5f4d55 	ldclmi	13, cr4, [pc, #-340]	; 2174 <_Min_Stack_Size+0x1d74>
    22c4:	5f5f4e49 	svcpl	0x005f4e49
    22c8:	302e3020 	eorcc	r3, lr, r0, lsr #32
    22cc:	5f004b55 	svcpl	0x00004b55
    22d0:	544c465f 	strbpl	r4, [ip], #-1631	; 0xfffff9a1
    22d4:	5350455f 	cmppl	r0, #398458880	; 0x17c00000
    22d8:	4e4f4c49 	cdpmi	12, 4, cr4, cr15, cr9, {2}
    22dc:	31205f5f 			; <UNDEFINED> instruction: 0x31205f5f
    22e0:	3239312e 	eorscc	r3, r9, #-2147483637	; 0x8000000b
    22e4:	38323930 	ldmdacc	r2!, {r4, r5, r8, fp, ip, sp}
    22e8:	30353539 	eorscc	r3, r5, r9, lsr r5
    22ec:	32313837 	eorscc	r3, r1, #3604480	; 0x370000
    22f0:	372d6535 			; <UNDEFINED> instruction: 0x372d6535
    22f4:	5f5f0046 	svcpl	0x005f0046
    22f8:	5f434347 	svcpl	0x00434347
    22fc:	4d4f5441 	cfstrdmi	mvd5, [pc, #-260]	; 2200 <_Min_Stack_Size+0x1e00>
    2300:	535f4349 	cmppl	pc, #603979777	; 0x24000001
    2304:	54524f48 	ldrbpl	r4, [r2], #-3912	; 0xfffff0b8
    2308:	434f4c5f 	movtmi	r4, #64607	; 0xfc5f
    230c:	52465f4b 	subpl	r5, r6, #300	; 0x12c
    2310:	32204545 	eorcc	r4, r0, #289406976	; 0x11400000
    2314:	43324900 	teqmi	r2, #0, 18
    2318:	3152435f 	cmpcc	r2, pc, asr r3
    231c:	5257535f 	subspl	r5, r7, #2080374785	; 0x7c000001
    2320:	4d5f5453 	cfldrdmi	mvd5, [pc, #-332]	; 21dc <_Min_Stack_Size+0x1ddc>
    2324:	28206b73 	stmdacs	r0!, {r0, r1, r4, r5, r6, r8, r9, fp, sp, lr}
    2328:	55317830 	ldrpl	r7, [r1, #-2096]!	; 0xfffff7d0
    232c:	3c3c204c 	ldccc	0, cr2, [ip], #-304	; 0xfffffed0
    2330:	43324920 	teqmi	r2, #32, 18	; 0x80000
    2334:	3152435f 	cmpcc	r2, pc, asr r3
    2338:	5257535f 	subspl	r5, r7, #2080374785	; 0x7c000001
    233c:	505f5453 	subspl	r5, pc, r3, asr r4	; <UNPREDICTABLE>
    2340:	0029736f 	eoreq	r7, r9, pc, ror #6
    2344:	54505f5f 	ldrbpl	r5, [r0], #-3935	; 0xfffff0a1
    2348:	46494452 			; <UNDEFINED> instruction: 0x46494452
    234c:	59545f46 	ldmdbpl	r4, {r1, r2, r6, r8, r9, sl, fp, ip, lr}^
    2350:	5f5f4550 	svcpl	0x005f4550
    2354:	746e6920 	strbtvc	r6, [lr], #-2336	; 0xfffff6e0
    2358:	415f5f00 	cmpmi	pc, r0, lsl #30
    235c:	415f4d52 	cmpmi	pc, r2, asr sp	; <UNPREDICTABLE>
    2360:	5f484352 	svcpl	0x00484352
    2364:	5f415349 	svcpl	0x00415349
    2368:	4d554854 	ldclmi	8, cr4, [r5, #-336]	; 0xfffffeb0
    236c:	32490042 	subcc	r0, r9, #66	; 0x42
    2370:	52535f43 	subspl	r5, r3, #268	; 0x10c
    2374:	42535f31 	subsmi	r5, r3, #49, 30	; 0xc4
    2378:	6b734d5f 	blvs	1cd58fc <_Min_Stack_Size+0x1cd54fc>
    237c:	78302820 	ldmdavc	r0!, {r5, fp, sp}
    2380:	204c5531 	subcs	r5, ip, r1, lsr r5
    2384:	49203c3c 	stmdbmi	r0!, {r2, r3, r4, r5, sl, fp, ip, sp}
    2388:	535f4332 	cmppl	pc, #-939524096	; 0xc8000000
    238c:	535f3152 	cmppl	pc, #-2147483628	; 0x80000014
    2390:	6f505f42 	svcvs	0x00505f42
    2394:	49002973 	stmdbmi	r0, {r0, r1, r4, r5, r6, r8, fp, sp}
    2398:	465f5152 			; <UNDEFINED> instruction: 0x465f5152
    239c:	0067616c 	rsbeq	r6, r7, ip, ror #2
    23a0:	52415f5f 	subpl	r5, r1, #380	; 0x17c
    23a4:	45465f4d 	strbmi	r5, [r6, #-3917]	; 0xfffff0b3
    23a8:	52555441 	subspl	r5, r5, #1090519040	; 0x41000000
    23ac:	414d5f45 	cmpmi	sp, r5, asr #30
    23b0:	4c554d54 	mrrcmi	13, 5, r4, r5, cr4
    23b4:	544e495f 	strbpl	r4, [lr], #-2399	; 0xfffff6a1
    23b8:	32490038 	subcc	r0, r9, #56	; 0x38
    23bc:	52435f43 	subpl	r5, r3, #268	; 0x10c
    23c0:	4d445f32 	stclmi	15, cr5, [r4, #-200]	; 0xffffff38
    23c4:	5f4e4541 	svcpl	0x004e4541
    23c8:	20736f50 	rsbscs	r6, r3, r0, asr pc
    23cc:	55313128 	ldrpl	r3, [r1, #-296]!	; 0xfffffed8
    23d0:	32490029 	subcc	r0, r9, #41	; 0x29
    23d4:	52435f43 	subpl	r5, r3, #268	; 0x10c
    23d8:	4c415f31 	mcrrmi	15, 3, r5, r1, cr1
    23dc:	20545245 	subscs	r5, r4, r5, asr #4
    23e0:	5f433249 	svcpl	0x00433249
    23e4:	5f315243 	svcpl	0x00315243
    23e8:	52454c41 	subpl	r4, r5, #16640	; 0x4100
    23ec:	734d5f54 	movtvc	r5, #57172	; 0xdf54
    23f0:	2e2e006b 	cdpcs	0, 2, cr0, cr14, cr11, {3}
    23f4:	6372532f 	cmnvs	r2, #-1140850688	; 0xbc000000
    23f8:	69616d2f 	stmdbvs	r1!, {r0, r1, r2, r3, r5, r8, sl, fp, sp, lr}^
    23fc:	00632e6e 	rsbeq	r2, r3, lr, ror #28
    2400:	5f434352 	svcpl	0x00434352
    2404:	45534142 	ldrbmi	r4, [r3, #-322]	; 0xfffffebe
    2408:	34783020 	ldrbtcc	r3, [r8], #-32	; 0xffffffe0
    240c:	31323030 	teqcc	r2, r0, lsr r0
    2410:	55303030 	ldrpl	r3, [r0, #-48]!	; 0xffffffd0
    2414:	5453004c 	ldrbpl	r0, [r3], #-76	; 0xffffffb4
    2418:	4632334d 	ldrtmi	r3, [r2], -sp, asr #6
    241c:	58333031 	ldmdapl	r3!, {r0, r4, r5, ip, sp}
    2420:	5f485f36 	svcpl	0x00485f36
    2424:	5f5f0020 	svcpl	0x005f0020
    2428:	5f434347 	svcpl	0x00434347
    242c:	4d4f5441 	cfstrdmi	mvd5, [pc, #-260]	; 2330 <_Min_Stack_Size+0x1f30>
    2430:	545f4349 	ldrbpl	r4, [pc], #-841	; 2438 <_Min_Stack_Size+0x2038>
    2434:	5f545345 	svcpl	0x00545345
    2438:	5f444e41 	svcpl	0x00444e41
    243c:	5f544553 	svcpl	0x00544553
    2440:	45555254 	ldrbmi	r5, [r5, #-596]	; 0xfffffdac
    2444:	204c4156 	subcs	r4, ip, r6, asr r1
    2448:	5f5f0031 	svcpl	0x005f0031
    244c:	5f464c45 	svcpl	0x00464c45
    2450:	0031205f 	eorseq	r2, r1, pc, asr r0
    2454:	52434442 	subpl	r4, r3, #1107296256	; 0x42000000
    2458:	4c5f5f00 	mrrcmi	15, 0, r5, pc, cr0	; <UNPREDICTABLE>
    245c:	5f4c4244 	svcpl	0x004c4244
    2460:	4d524f4e 	ldclmi	15, cr4, [r2, #-312]	; 0xfffffec8
    2464:	58414d5f 	stmdapl	r1, {r0, r1, r2, r3, r4, r6, r8, sl, fp, lr}^
    2468:	31205f5f 			; <UNDEFINED> instruction: 0x31205f5f
    246c:	3739372e 	ldrcc	r3, [r9, -lr, lsr #14]!
    2470:	31333936 	teqcc	r3, r6, lsr r9
    2474:	36383433 			; <UNDEFINED> instruction: 0x36383433
    2478:	35313332 	ldrcc	r3, [r1, #-818]!	; 0xfffffcce
    247c:	332b6537 			; <UNDEFINED> instruction: 0x332b6537
    2480:	004c3830 	subeq	r3, ip, r0, lsr r8
    2484:	5f433249 	svcpl	0x00433249
    2488:	5f315243 	svcpl	0x00315243
    248c:	4d5f4550 	cfldr64mi	mvdx4, [pc, #-320]	; 2354 <_Min_Stack_Size+0x1f54>
    2490:	28206b73 	stmdacs	r0!, {r0, r1, r4, r5, r6, r8, r9, fp, sp, lr}
    2494:	55317830 	ldrpl	r7, [r1, #-2096]!	; 0xfffff7d0
    2498:	3c3c204c 	ldccc	0, cr2, [ip], #-304	; 0xfffffed0
    249c:	43324920 	teqmi	r2, #32, 18	; 0x80000
    24a0:	3152435f 	cmpcc	r2, pc, asr r3
    24a4:	5f45505f 	svcpl	0x0045505f
    24a8:	29736f50 	ldmdbcs	r3!, {r4, r6, r8, r9, sl, fp, sp, lr}^
    24ac:	465f5f00 	ldrbmi	r5, [pc], -r0, lsl #30
    24b0:	3233544c 	eorscc	r5, r3, #76, 8	; 0x4c000000
    24b4:	5341485f 	movtpl	r4, #6239	; 0x185f
    24b8:	4955515f 	ldmdbmi	r5, {r0, r1, r2, r3, r4, r6, r8, ip, lr}^
    24bc:	4e5f5445 	cdpmi	4, 5, cr5, cr15, cr5, {2}
    24c0:	5f5f4e41 	svcpl	0x005f4e41
    24c4:	45003120 	strmi	r3, [r0, #-288]	; 0xfffffee0
    24c8:	5f495458 	svcpl	0x00495458
    24cc:	67697254 			; <UNDEFINED> instruction: 0x67697254
    24d0:	5f726567 	svcpl	0x00726567
    24d4:	49534952 	ldmdbmi	r3, {r1, r4, r6, r8, fp, lr}^
    24d8:	3020474e 	eorcc	r4, r0, lr, asr #14
    24dc:	4c5f5f00 	mrrcmi	15, 0, r5, pc, cr0	; <UNPREDICTABLE>
    24e0:	5f4c4244 	svcpl	0x004c4244
    24e4:	5f534148 	svcpl	0x00534148
    24e8:	49464e49 	stmdbmi	r6, {r0, r3, r6, r9, sl, fp, lr}^
    24ec:	5954494e 	ldmdbpl	r4, {r1, r2, r3, r6, r8, fp, lr}^
    24f0:	31205f5f 			; <UNDEFINED> instruction: 0x31205f5f
    24f4:	535f5f00 	cmppl	pc, #0, 30
    24f8:	55434341 	strbpl	r4, [r3, #-833]	; 0xfffffcbf
    24fc:	42465f4d 	submi	r5, r6, #308	; 0x134
    2500:	5f5f5449 	svcpl	0x005f5449
    2504:	52003720 	andpl	r3, r0, #32, 14	; 0x800000
    2508:	555f4343 	ldrbpl	r4, [pc, #-835]	; 21cd <_Min_Stack_Size+0x1dcd>
    250c:	54524153 	ldrbpl	r4, [r2], #-339	; 0xfffffead
    2510:	4c435f31 	mcrrmi	15, 3, r5, r3, cr1
    2514:	4e455f4b 	cdpmi	15, 4, cr5, cr5, cr11, {2}
    2518:	53202928 			; <UNDEFINED> instruction: 0x53202928
    251c:	425f5445 	subsmi	r5, pc, #1157627904	; 0x45000000
    2520:	52285449 	eorpl	r5, r8, #1224736768	; 0x49000000
    2524:	3e2d4343 	cdpcc	3, 2, cr4, cr13, cr3, {2}
    2528:	32425041 	subcc	r5, r2, #65	; 0x41
    252c:	2c524e45 	mrrccs	14, 4, r4, r2, cr5
    2530:	00293431 	eoreq	r3, r9, r1, lsr r4
    2534:	49545845 	ldmdbmi	r4, {r0, r2, r6, fp, ip, lr}^
    2538:	52495f33 	subpl	r5, r9, #51, 30	; 0xcc
    253c:	00392051 	eorseq	r2, r9, r1, asr r0
    2540:	5f433249 	svcpl	0x00433249
    2544:	5f315243 	svcpl	0x00315243
    2548:	55424d53 	strbpl	r4, [r2, #-3411]	; 0xfffff2ad
    254c:	6f505f53 	svcvs	0x00505f53
    2550:	31282073 			; <UNDEFINED> instruction: 0x31282073
    2554:	5f002955 	svcpl	0x00002955
    2558:	544c465f 	strbpl	r4, [ip], #-1631	; 0xfffff9a1
    255c:	5f583233 	svcpl	0x00583233
    2560:	5f58414d 	svcpl	0x0058414d
    2564:	455f3031 	ldrbmi	r3, [pc, #-49]	; 253b <_Min_Stack_Size+0x213b>
    2568:	5f5f5058 	svcpl	0x005f5058
    256c:	38303320 	ldmdacc	r0!, {r5, r8, r9, ip, sp}
    2570:	415f5f00 	cmpmi	pc, r0, lsl #30
    2574:	415f4d52 	cmpmi	pc, r2, asr sp	; <UNPREDICTABLE>
    2578:	5f484352 	svcpl	0x00484352
    257c:	5f545845 	svcpl	0x00545845
    2580:	56494449 	strbpl	r4, [r9], -r9, asr #8
    2584:	31205f5f 			; <UNDEFINED> instruction: 0x31205f5f
    2588:	42504100 	subsmi	r4, r0, #0, 2
    258c:	55425f32 	strbpl	r5, [r2, #-3890]	; 0xfffff0ce
    2590:	41425f53 	cmpmi	r2, r3, asr pc
    2594:	28204553 	stmdacs	r0!, {r0, r1, r4, r6, r8, sl, lr}
    2598:	49524550 	ldmdbmi	r2, {r4, r6, r8, sl, lr}^
    259c:	52454850 	subpl	r4, r5, #80, 16	; 0x500000
    25a0:	5f534c41 	svcpl	0x00534c41
    25a4:	45534142 	ldrbmi	r4, [r3, #-322]	; 0xfffffebe
    25a8:	30202b20 	eorcc	r2, r0, r0, lsr #22
    25ac:	30303178 	eorscc	r3, r0, r8, ror r1
    25b0:	00293030 	eoreq	r3, r9, r0, lsr r0
    25b4:	49545845 	ldmdbmi	r4, {r0, r2, r6, fp, ip, lr}^
    25b8:	38435038 	stmdacc	r3, {r3, r4, r5, ip, lr}^
    25bc:	58452820 	stmdapl	r5, {r5, fp, sp}^
    25c0:	4d5f4954 	vldrmi.16	s9, [pc, #-168]	; 2520 <_Min_Stack_Size+0x2120>	; <UNPREDICTABLE>
    25c4:	69707061 	ldmdbvs	r0!, {r0, r5, r6, ip, sp, lr}^
    25c8:	745f676e 	ldrbvc	r6, [pc], #-1902	; 25d0 <_Min_Stack_Size+0x21d0>
    25cc:	58457b29 	stmdapl	r5, {r0, r3, r5, r8, r9, fp, ip, sp, lr}^
    25d0:	2c384954 			; <UNDEFINED> instruction: 0x2c384954
    25d4:	49504720 	ldmdbmi	r0, {r5, r8, r9, sl, lr}^
    25d8:	202c434f 	eorcs	r4, ip, pc, asr #6
    25dc:	4f495047 	svcmi	0x00495047
    25e0:	4e49505f 	mcrmi	0, 2, r5, cr9, cr15, {2}
    25e4:	202c385f 	eorcs	r3, ip, pc, asr r8
    25e8:	49545845 	ldmdbmi	r4, {r0, r2, r6, fp, ip, lr}^
    25ec:	52495f38 	subpl	r5, r9, #56, 30	; 0xe0
    25f0:	4e007d51 	mcrmi	13, 0, r7, cr0, cr1, {2}
    25f4:	5f434956 	svcpl	0x00434956
    25f8:	52455349 	subpl	r5, r5, #603979777	; 0x24000001
    25fc:	282a2030 	stmdacs	sl!, {r4, r5, sp}
    2600:	616c6f76 	smcvs	50934	; 0xc6f6
    2604:	656c6974 	strbvs	r6, [ip, #-2420]!	; 0xfffff68c
    2608:	6e697520 	cdpvs	5, 6, cr7, cr9, cr0, {1}
    260c:	5f323374 	svcpl	0x00323374
    2610:	292a2074 	stmdbcs	sl!, {r2, r4, r5, r6, sp}
    2614:	49564e28 	ldmdbmi	r6, {r3, r5, r9, sl, fp, lr}^
    2618:	41425f43 	cmpmi	r2, r3, asr #30
    261c:	2b204553 	blcs	813b70 <_Min_Stack_Size+0x813770>
    2620:	30783020 	rsbscc	r3, r8, r0, lsr #32
    2624:	5f002930 	svcpl	0x00002930
    2628:	4749535f 	smlsldmi	r5, r9, pc, r3	; <UNPREDICTABLE>
    262c:	4f54415f 	svcmi	0x0054415f
    2630:	5f43494d 	svcpl	0x0043494d
    2634:	5f4e494d 	svcpl	0x004e494d
    2638:	2d28205f 	stccs	0, cr2, [r8, #-380]!	; 0xfffffe84
    263c:	49535f5f 	ldmdbmi	r3, {r0, r1, r2, r3, r4, r6, r8, r9, sl, fp, ip, lr}^
    2640:	54415f47 	strbpl	r5, [r1], #-3911	; 0xfffff0b9
    2644:	43494d4f 	movtmi	r4, #40271	; 0x9d4f
    2648:	58414d5f 	stmdapl	r1, {r0, r1, r2, r3, r4, r6, r8, sl, fp, lr}^
    264c:	2d205f5f 	stccs	15, cr5, [r0, #-380]!	; 0xfffffe84
    2650:	00293120 	eoreq	r3, r9, r0, lsr #2
    2654:	49545845 	ldmdbmi	r4, {r0, r2, r6, fp, ip, lr}^
    2658:	00352035 	eorseq	r2, r5, r5, lsr r0
    265c:	49555f5f 	ldmdbmi	r5, {r0, r1, r2, r3, r4, r6, r8, r9, sl, fp, ip, lr}^
    2660:	4c5f544e 	cfldrdmi	mvd5, [pc], {78}	; 0x4e
    2664:	54534145 	ldrbpl	r4, [r3], #-325	; 0xfffffebb
    2668:	414d5f38 	cmpmi	sp, r8, lsr pc
    266c:	205f5f58 	subscs	r5, pc, r8, asr pc	; <UNPREDICTABLE>
    2670:	66667830 			; <UNDEFINED> instruction: 0x66667830
    2674:	49564e00 	ldmdbmi	r6, {r9, sl, fp, lr}^
    2678:	52495f43 	subpl	r5, r9, #268	; 0x10c
    267c:	5f375f51 	svcpl	0x00375f51
    2680:	49545845 	ldmdbmi	r4, {r0, r2, r6, fp, ip, lr}^
    2684:	69445f31 	stmdbvs	r4, {r0, r4, r5, r8, r9, sl, fp, ip, lr}^
    2688:	6c626173 	stfvse	f6, [r2], #-460	; 0xfffffe34
    268c:	20292865 	eorcs	r2, r9, r5, ror #16
    2690:	49564e28 	ldmdbmi	r6, {r3, r5, r9, sl, fp, lr}^
    2694:	43495f43 	movtmi	r5, #40771	; 0x9f43
    2698:	20305245 	eorscs	r5, r0, r5, asr #4
    269c:	31203d7c 			; <UNDEFINED> instruction: 0x31203d7c
    26a0:	29373c3c 	ldmdbcs	r7!, {r2, r3, r4, r5, sl, fp, ip, sp}
    26a4:	43324900 	teqmi	r2, #0, 18
    26a8:	3252535f 	subscc	r5, r2, #2080374785	; 0x7c000001
    26ac:	4345505f 	movtmi	r5, #20575	; 0x505f
    26b0:	736f505f 	cmnvc	pc, #95	; 0x5f
    26b4:	55382820 	ldrpl	r2, [r8, #-2080]!	; 0xfffff7e0
    26b8:	50470029 	subpl	r0, r7, r9, lsr #32
    26bc:	485f4f49 	ldmdami	pc, {r0, r3, r6, r8, r9, sl, fp, lr}^	; <UNPREDICTABLE>
    26c0:	20484749 	subcs	r4, r8, r9, asr #14
    26c4:	5f005531 	svcpl	0x00005531
    26c8:	544c465f 	strbpl	r4, [ip], #-1631	; 0xfffff9a1
    26cc:	5f583233 	svcpl	0x00583233
    26d0:	495f5349 	ldmdbmi	pc, {r0, r3, r6, r8, r9, ip, lr}^	; <UNPREDICTABLE>
    26d4:	365f4345 	ldrbcc	r4, [pc], -r5, asr #6
    26d8:	39353530 	ldmdbcc	r5!, {r4, r5, r8, sl, ip, sp}
    26dc:	32205f5f 	eorcc	r5, r0, #380	; 0x17c
    26e0:	54584500 	ldrbpl	r4, [r8], #-1280	; 0xfffffb00
    26e4:	44503449 	ldrbmi	r3, [r0], #-1097	; 0xfffffbb7
    26e8:	45282034 	strmi	r2, [r8, #-52]!	; 0xffffffcc
    26ec:	5f495458 	svcpl	0x00495458
    26f0:	7070614d 	rsbsvc	r6, r0, sp, asr #2
    26f4:	5f676e69 	svcpl	0x00676e69
    26f8:	457b2974 	ldrbmi	r2, [fp, #-2420]!	; 0xfffff68c
    26fc:	34495458 	strbcc	r5, [r9], #-1112	; 0xfffffba8
    2700:	5047202c 	subpl	r2, r7, ip, lsr #32
    2704:	2c444f49 	mcrrcs	15, 4, r4, r4, cr9
    2708:	49504720 	ldmdbmi	r0, {r5, r8, r9, sl, lr}^
    270c:	49505f4f 	ldmdbmi	r0, {r0, r1, r2, r3, r6, r8, r9, sl, fp, ip, lr}^
    2710:	2c345f4e 	ldccs	15, cr5, [r4], #-312	; 0xfffffec8
    2714:	54584520 	ldrbpl	r4, [r8], #-1312	; 0xfffffae0
    2718:	495f3449 	ldmdbmi	pc, {r0, r3, r6, sl, ip, sp}^	; <UNPREDICTABLE>
    271c:	007d5152 	rsbseq	r5, sp, r2, asr r1
    2720:	4c465f5f 	mcrrmi	15, 5, r5, r6, cr15
    2724:	41485f54 	cmpmi	r8, r4, asr pc
    2728:	45445f53 	strbmi	r5, [r4, #-3923]	; 0xfffff0ad
    272c:	4d524f4e 	ldclmi	15, cr4, [r2, #-312]	; 0xfffffec8
    2730:	31205f5f 			; <UNDEFINED> instruction: 0x31205f5f
    2734:	5f455f00 	svcpl	0x00455f00
    2738:	5f505350 	svcpl	0x00505350
    273c:	6b736154 	blvs	1cdac94 <_Min_Stack_Size+0x1cda894>
    2740:	455f0041 	ldrbmi	r0, [pc, #-65]	; 2707 <_Min_Stack_Size+0x2307>
    2744:	5053505f 	subspl	r5, r3, pc, asr r0
    2748:	7361545f 	cmnvc	r1, #1593835520	; 0x5f000000
    274c:	5f00426b 	svcpl	0x0000426b
    2750:	544e495f 	strbpl	r4, [lr], #-2399	; 0xfffff6a1
    2754:	41454c5f 	cmpmi	r5, pc, asr ip
    2758:	36315453 			; <UNDEFINED> instruction: 0x36315453
    275c:	4449575f 	strbmi	r5, [r9], #-1887	; 0xfffff8a1
    2760:	5f5f4854 	svcpl	0x005f4854
    2764:	00363120 	eorseq	r3, r6, r0, lsr #2
    2768:	52415355 	subpl	r5, r1, #1409286145	; 0x54000001
    276c:	425f3354 	subsmi	r3, pc, #84, 6	; 0x50000001
    2770:	20455341 	subcs	r5, r5, r1, asr #6
    2774:	30347830 	eorscc	r7, r4, r0, lsr r8
    2778:	38343130 	ldmdacc	r4!, {r4, r5, r8, ip, sp}
    277c:	4c553030 	mrrcmi	0, 3, r3, r5, cr0
    2780:	415f5f00 	cmpmi	pc, r0, lsl #30
    2784:	465f4d52 			; <UNDEFINED> instruction: 0x465f4d52
    2788:	55544145 	ldrbpl	r4, [r4, #-325]	; 0xfffffebb
    278c:	465f4552 			; <UNDEFINED> instruction: 0x465f4552
    2790:	5f363150 	svcpl	0x00363150
    2794:	004c4d46 	subeq	r4, ip, r6, asr #26
    2798:	5f434352 	svcpl	0x00434352
    279c:	32495053 	subcc	r5, r9, #83	; 0x53
    27a0:	4b4c435f 	blmi	1313524 <_Min_Stack_Size+0x1313124>
    27a4:	284e455f 	stmdacs	lr, {r0, r1, r2, r3, r4, r6, r8, sl, lr}^
    27a8:	45532029 	ldrbmi	r2, [r3, #-41]	; 0xffffffd7
    27ac:	49425f54 	stmdbmi	r2, {r2, r4, r6, r8, r9, sl, fp, ip, lr}^
    27b0:	43522854 	cmpmi	r2, #84, 16	; 0x540000
    27b4:	413e2d43 	teqmi	lr, r3, asr #26
    27b8:	45314250 	ldrmi	r4, [r1, #-592]!	; 0xfffffdb0
    27bc:	312c524e 			; <UNDEFINED> instruction: 0x312c524e
    27c0:	45002934 	strmi	r2, [r0, #-2356]	; 0xfffff6cc
    27c4:	31495458 	cmpcc	r9, r8, asr r4
    27c8:	31435031 	cmpcc	r3, r1, lsr r0
    27cc:	45282031 	strmi	r2, [r8, #-49]!	; 0xffffffcf
    27d0:	5f495458 	svcpl	0x00495458
    27d4:	7070614d 	rsbsvc	r6, r0, sp, asr #2
    27d8:	5f676e69 	svcpl	0x00676e69
    27dc:	457b2974 	ldrbmi	r2, [fp, #-2420]!	; 0xfffff68c
    27e0:	31495458 	cmpcc	r9, r8, asr r4
    27e4:	47202c31 			; <UNDEFINED> instruction: 0x47202c31
    27e8:	434f4950 	movtmi	r4, #63824	; 0xf950
    27ec:	5047202c 	subpl	r2, r7, ip, lsr #32
    27f0:	505f4f49 	subspl	r4, pc, r9, asr #30
    27f4:	315f4e49 	cmpcc	pc, r9, asr #28
    27f8:	45202c31 	strmi	r2, [r0, #-3121]!	; 0xfffff3cf
    27fc:	31495458 	cmpcc	r9, r8, asr r4
    2800:	52495f31 	subpl	r5, r9, #49, 30	; 0xc4
    2804:	5f007d51 	svcpl	0x00007d51
    2808:	4653555f 			; <UNDEFINED> instruction: 0x4653555f
    280c:	54434152 	strbpl	r4, [r3], #-338	; 0xfffffeae
    2810:	5350455f 	cmppl	r0, #398458880	; 0x17c00000
    2814:	4e4f4c49 	cdpmi	12, 4, cr4, cr15, cr9, {2}
    2818:	30205f5f 	eorcc	r5, r0, pc, asr pc
    281c:	2d503178 	ldfcse	f3, [r0, #-480]	; 0xfffffe20
    2820:	52485538 	subpl	r5, r8, #56, 10	; 0xe000000
    2824:	4c554e00 	mrrcmi	14, 0, r4, r5, cr0
    2828:	2828204c 	stmdacs	r8!, {r2, r3, r6, sp}
    282c:	64696f76 	strbtvs	r6, [r9], #-3958	; 0xfffff08a
    2830:	30292a20 	eorcc	r2, r9, r0, lsr #20
    2834:	45500029 	ldrbmi	r0, [r0, #-41]	; 0xffffffd7
    2838:	48504952 	ldmdami	r0, {r1, r4, r6, r8, fp, lr}^
    283c:	4c415245 	sfmmi	f5, 2, [r1], {69}	; 0x45
    2840:	41425f53 	cmpmi	r2, r3, asr pc
    2844:	28204553 	stmdacs	r0!, {r0, r1, r4, r6, r8, sl, lr}
    2848:	6e697528 	cdpvs	5, 6, cr7, cr9, cr8, {1}
    284c:	5f323374 	svcpl	0x00323374
    2850:	78302974 	ldmdavc	r0!, {r2, r4, r5, r6, r8, fp, sp}
    2854:	30303034 	eorscc	r3, r0, r4, lsr r0
    2858:	30303030 	eorscc	r3, r0, r0, lsr r0
    285c:	535f0029 	cmppl	pc, #41	; 0x29
    2860:	5053505f 	subspl	r5, r3, pc, asr r0
    2864:	7361545f 	cmnvc	r1, #1593835520	; 0x5f000000
    2868:	5f00416b 	svcpl	0x0000416b
    286c:	53505f53 	cmppl	r0, #332	; 0x14c
    2870:	61545f50 	cmpvs	r4, r0, asr pc
    2874:	00426b73 	subeq	r6, r2, r3, ror fp
    2878:	53555f5f 	cmppl	r5, #380	; 0x17c
    287c:	43415246 	movtmi	r5, #4678	; 0x1246
    2880:	42465f54 	submi	r5, r6, #84, 30	; 0x150
    2884:	5f5f5449 	svcpl	0x005f5449
    2888:	5f003820 	svcpl	0x00003820
    288c:	414c4c5f 	cmpmi	ip, pc, asr ip
    2890:	4d554343 	ldclmi	3, cr4, [r5, #-268]	; 0xfffffef4
    2894:	58414d5f 	stmdapl	r1, {r0, r1, r2, r3, r4, r6, r8, sl, fp, lr}^
    2898:	30205f5f 	eorcc	r5, r0, pc, asr pc
    289c:	46463758 			; <UNDEFINED> instruction: 0x46463758
    28a0:	46464646 	strbmi	r4, [r6], -r6, asr #12
    28a4:	46464646 	strbmi	r4, [r6], -r6, asr #12
    28a8:	46464646 	strbmi	r4, [r6], -r6, asr #12
    28ac:	332d5046 			; <UNDEFINED> instruction: 0x332d5046
    28b0:	4b4c4c31 	blmi	131597c <_Min_Stack_Size+0x131557c>
    28b4:	43324900 	teqmi	r2, #0, 18
    28b8:	3152435f 	cmpcc	r2, pc, asr r3
    28bc:	414e455f 	cmpmi	lr, pc, asr r5
    28c0:	505f5052 	subspl	r5, pc, r2, asr r0	; <UNPREDICTABLE>
    28c4:	2820736f 	stmdacs	r0!, {r0, r1, r2, r3, r5, r6, r8, r9, ip, sp, lr}
    28c8:	00295534 	eoreq	r5, r9, r4, lsr r5
    28cc:	5f434352 	svcpl	0x00434352
    28d0:	5f5f0074 	svcpl	0x005f0074
    28d4:	52455355 	subpl	r5, r5, #1409286145	; 0x54000001
    28d8:	42414c5f 	submi	r4, r1, #24320	; 0x5f00
    28dc:	505f4c45 	subspl	r4, pc, r5, asr #24
    28e0:	49464552 	stmdbmi	r6, {r1, r4, r6, r8, sl, lr}^
    28e4:	205f5f58 	subscs	r5, pc, r8, asr pc	; <UNPREDICTABLE>
    28e8:	555f5f00 	ldrbpl	r5, [pc, #-3840]	; 19f0 <_Min_Stack_Size+0x15f0>
    28ec:	36544e49 	ldrbcc	r4, [r4], -r9, asr #28
    28f0:	414d5f34 	cmpmi	sp, r4, lsr pc
    28f4:	205f5f58 	subscs	r5, pc, r8, asr pc	; <UNPREDICTABLE>
    28f8:	66667830 			; <UNDEFINED> instruction: 0x66667830
    28fc:	66666666 	strbtvs	r6, [r6], -r6, ror #12
    2900:	66666666 	strbtvs	r6, [r6], -r6, ror #12
    2904:	66666666 	strbtvs	r6, [r6], -r6, ror #12
    2908:	4c556666 	mrrcmi	6, 6, r6, r5, cr6
    290c:	5845004c 	stmdapl	r5, {r2, r3, r6}^
    2910:	28204954 	stmdacs	r0!, {r2, r4, r6, r8, fp, lr}
    2914:	54584528 	ldrbpl	r4, [r8], #-1320	; 0xfffffad8
    2918:	20745f49 	rsbscs	r5, r4, r9, asr #30
    291c:	5845292a 	stmdapl	r5, {r1, r3, r5, r8, fp, sp}^
    2920:	425f4954 	subsmi	r4, pc, #84, 18	; 0x150000
    2924:	29455341 	stmdbcs	r5, {r0, r6, r8, r9, ip, lr}^
    2928:	535f5f00 	cmppl	pc, #0, 30
    292c:	5f434454 	svcpl	0x00434454
    2930:	53524556 	cmppl	r2, #360710144	; 0x15800000
    2934:	5f4e4f49 	svcpl	0x004e4f49
    2938:	3032205f 	eorscc	r2, r2, pc, asr r0
    293c:	32313131 	eorscc	r3, r1, #1073741836	; 0x4000000c
    2940:	5f5f004c 	svcpl	0x005f004c
    2944:	5f544e49 	svcpl	0x00544e49
    2948:	5341454c 	movtpl	r4, #5452	; 0x154c
    294c:	4d5f3854 	ldclmi	8, cr3, [pc, #-336]	; 2804 <_Min_Stack_Size+0x2404>
    2950:	5f5f5841 	svcpl	0x005f5841
    2954:	37783020 	ldrbcc	r3, [r8, -r0, lsr #32]!
    2958:	5f5f0066 	svcpl	0x005f0066
    295c:	5f434347 	svcpl	0x00434347
    2960:	4d4f5441 	cfstrdmi	mvd5, [pc, #-260]	; 2864 <_Min_Stack_Size+0x2464>
    2964:	505f4349 	subspl	r4, pc, r9, asr #6
    2968:	544e494f 	strbpl	r4, [lr], #-2383	; 0xfffff6b1
    296c:	4c5f5245 	lfmmi	f5, 2, [pc], {69}	; 0x45
    2970:	5f4b434f 	svcpl	0x004b434f
    2974:	45455246 	strbmi	r5, [r5, #-582]	; 0xfffffdba
    2978:	5f003220 	svcpl	0x00003220
    297c:	4d52415f 	ldfmie	f4, [r2, #-380]	; 0xfffffe84
    2980:	4145465f 	cmpmi	r5, pc, asr r6
    2984:	45525554 	ldrbmi	r5, [r2, #-1364]	; 0xfffffaac
    2988:	4942515f 	stmdbmi	r2, {r0, r1, r2, r3, r4, r6, r8, ip, lr}^
    298c:	00312054 	eorseq	r2, r1, r4, asr r0
    2990:	52415f5f 	subpl	r5, r1, #380	; 0x17c
    2994:	45465f4d 	strbmi	r5, [r6, #-3917]	; 0xfffff0b3
    2998:	52555441 	subspl	r5, r5, #1090519040	; 0x41000000
    299c:	4c435f45 	mcrrmi	15, 4, r5, r3, cr5
    29a0:	0031205a 	eorseq	r2, r1, sl, asr r0
    29a4:	54415f5f 	strbpl	r5, [r1], #-3935	; 0xfffff0a1
    29a8:	43494d4f 	movtmi	r4, #40271	; 0x9d4f
    29ac:	5143415f 	cmppl	r3, pc, asr r1
    29b0:	45524955 	ldrbmi	r4, [r2, #-2389]	; 0xfffff6ab
    29b4:	5f003220 	svcpl	0x00003220
    29b8:	4d52415f 	ldfmie	f4, [r2, #-380]	; 0xfffffe84
    29bc:	4145465f 	cmpmi	r5, pc, asr r6
    29c0:	45525554 	ldrbmi	r5, [r2, #-1364]	; 0xfffffaac
    29c4:	4d4f435f 	stclmi	3, cr4, [pc, #-380]	; 2850 <_Min_Stack_Size+0x2450>
    29c8:	58454c50 	stmdapl	r5, {r4, r6, sl, fp, lr}^
    29cc:	43435200 	movtmi	r5, #12800	; 0x3200
    29d0:	4950475f 	ldmdbmi	r0, {r0, r1, r2, r3, r4, r6, r8, r9, sl, lr}^
    29d4:	435f454f 	cmpmi	pc, #331350016	; 0x13c00000
    29d8:	455f4b4c 	ldrbmi	r4, [pc, #-2892]	; 1e94 <_Min_Stack_Size+0x1a94>
    29dc:	2029284e 	eorcs	r2, r9, lr, asr #16
    29e0:	5f544553 	svcpl	0x00544553
    29e4:	28544942 	ldmdacs	r4, {r1, r6, r8, fp, lr}^
    29e8:	2d434352 	stclcs	3, cr4, [r3, #-328]	; 0xfffffeb8
    29ec:	4250413e 	subsmi	r4, r0, #-2147483633	; 0x8000000f
    29f0:	524e4532 	subpl	r4, lr, #209715200	; 0xc800000
    29f4:	0029362c 	eoreq	r3, r9, ip, lsr #12
    29f8:	49555f5f 	ldmdbmi	r5, {r0, r1, r2, r3, r4, r6, r8, r9, sl, fp, ip, lr}^
    29fc:	3436544e 	ldrtcc	r5, [r6], #-1102	; 0xfffffbb2
    2a00:	5059545f 	subspl	r5, r9, pc, asr r4
    2a04:	205f5f45 	subscs	r5, pc, r5, asr #30
    2a08:	676e6f6c 	strbvs	r6, [lr, -ip, ror #30]!
    2a0c:	6e6f6c20 	cdpvs	12, 6, cr6, cr15, cr0, {1}
    2a10:	6e752067 	cdpvs	0, 7, cr2, cr5, cr7, {3}
    2a14:	6e676973 			; <UNDEFINED> instruction: 0x6e676973
    2a18:	69206465 	stmdbvs	r0!, {r0, r2, r5, r6, sl, sp, lr}
    2a1c:	5f00746e 	svcpl	0x0000746e
    2a20:	4d52415f 	ldfmie	f4, [r2, #-380]	; 0xfffffe84
    2a24:	5a49535f 	bpl	12577a8 <_Min_Stack_Size+0x12573a8>
    2a28:	5f464f45 	svcpl	0x00464f45
    2a2c:	41484357 	cmpmi	r8, r7, asr r3
    2a30:	20545f52 	subscs	r5, r4, r2, asr pc
    2a34:	5f5f0034 	svcpl	0x005f0034
    2a38:	33544c46 	cmpcc	r4, #17920	; 0x4600
    2a3c:	4d5f5832 	ldclmi	8, cr5, [pc, #-200]	; 297c <_Min_Stack_Size+0x257c>
    2a40:	455f5841 	ldrbmi	r5, [pc, #-2113]	; 2207 <_Min_Stack_Size+0x1e07>
    2a44:	5f5f5058 	svcpl	0x005f5058
    2a48:	32303120 	eorscc	r3, r0, #32, 2
    2a4c:	50470034 	subpl	r0, r7, r4, lsr r0
    2a50:	505f4f49 	subspl	r4, pc, r9, asr #30
    2a54:	375f4e49 	ldrbcc	r4, [pc, -r9, asr #28]
    2a58:	75282820 	strvc	r2, [r8, #-2080]!	; 0xfffff7e0
    2a5c:	31746e69 	cmncc	r4, r9, ror #28
    2a60:	29745f36 	ldmdbcs	r4!, {r1, r2, r4, r5, r8, r9, sl, fp, ip, lr}^
    2a64:	30307830 	eorscc	r7, r0, r0, lsr r8
    2a68:	00293038 	eoreq	r3, r9, r8, lsr r0
    2a6c:	49555f5f 	ldmdbmi	r5, {r0, r1, r2, r3, r4, r6, r8, r9, sl, fp, ip, lr}^
    2a70:	4c5f544e 	cfldrdmi	mvd5, [pc], {78}	; 0x4e
    2a74:	54534145 	ldrbpl	r4, [r3], #-325	; 0xfffffebb
    2a78:	4d5f3233 	lfmmi	f3, 2, [pc, #-204]	; 29b4 <_Min_Stack_Size+0x25b4>
    2a7c:	5f5f5841 	svcpl	0x005f5841
    2a80:	66783020 	ldrbtvs	r3, [r8], -r0, lsr #32
    2a84:	66666666 	strbtvs	r6, [r6], -r6, ror #12
    2a88:	55666666 	strbpl	r6, [r6, #-1638]!	; 0xfffff99a
    2a8c:	5f5f004c 	svcpl	0x005f004c
    2a90:	5f4c4244 	svcpl	0x004c4244
    2a94:	49535045 	ldmdbmi	r3, {r0, r2, r6, ip, lr}^
    2a98:	5f4e4f4c 	svcpl	0x004e4f4c
    2a9c:	2828205f 	stmdacs	r8!, {r0, r1, r2, r3, r4, r6, sp}
    2aa0:	62756f64 	rsbsvs	r6, r5, #100, 30	; 0x190
    2aa4:	3229656c 	eorcc	r6, r9, #108, 10	; 0x1b000000
    2aa8:	3032322e 	eorscc	r3, r2, lr, lsr #4
    2aac:	30363434 	eorscc	r3, r6, r4, lsr r4
    2ab0:	35323934 	ldrcc	r3, [r2, #-2356]!	; 0xfffff6cc
    2ab4:	33313330 	teqcc	r1, #48, 6	; 0xc0000000
    2ab8:	312d6531 			; <UNDEFINED> instruction: 0x312d6531
    2abc:	00294c36 	eoreq	r4, r9, r6, lsr ip
    2ac0:	5f44434c 	svcpl	0x0044434c
    2ac4:	55544552 	ldrbpl	r4, [r4, #-1362]	; 0xfffffaae
    2ac8:	485f4e52 	ldmdami	pc, {r1, r4, r6, r9, sl, fp, lr}^	; <UNPREDICTABLE>
    2acc:	20454d4f 	subcs	r4, r5, pc, asr #26
    2ad0:	32307830 	eorscc	r7, r0, #48, 16	; 0x300000
    2ad4:	495f5f00 	ldmdbmi	pc, {r8, r9, sl, fp, ip, lr}^	; <UNPREDICTABLE>
    2ad8:	4c5f544e 	cfldrdmi	mvd5, [pc], {78}	; 0x4e
    2adc:	54534145 	ldrbpl	r4, [r3], #-325	; 0xfffffebb
    2ae0:	575f3436 	smmlarpl	pc, r6, r4, r3	; <UNPREDICTABLE>
    2ae4:	48544449 	ldmdami	r4, {r0, r3, r6, sl, lr}^
    2ae8:	36205f5f 	qsaxcc	r5, r0, pc	; <UNPREDICTABLE>
    2aec:	5f5f0034 	svcpl	0x005f0034
    2af0:	5f544c46 	svcpl	0x00544c46
    2af4:	5f534148 	svcpl	0x00534148
    2af8:	49464e49 	stmdbmi	r6, {r0, r3, r6, r9, sl, fp, lr}^
    2afc:	5954494e 	ldmdbpl	r4, {r1, r2, r3, r6, r8, fp, lr}^
    2b00:	31205f5f 			; <UNDEFINED> instruction: 0x31205f5f
    2b04:	43435200 	movtmi	r5, #12800	; 0x3200
    2b08:	4950535f 	ldmdbmi	r0, {r0, r1, r2, r3, r4, r6, r8, r9, ip, lr}^
    2b0c:	45525f32 	ldrbmi	r5, [r2, #-3890]	; 0xfffff0ce
    2b10:	28544553 	ldmdacs	r4, {r0, r1, r4, r6, r8, sl, lr}^
    2b14:	52282029 	eorpl	r2, r8, #41	; 0x29
    2b18:	3e2d4343 	cdpcc	3, 2, cr4, cr13, cr3, {2}
    2b1c:	31425041 	cmpcc	r2, r1, asr #32
    2b20:	52545352 	subspl	r5, r4, #1207959553	; 0x48000001
    2b24:	203d7c20 	eorscs	r7, sp, r0, lsr #24
    2b28:	3c3c2031 	ldccc	0, cr2, [ip], #-196	; 0xffffff3c
    2b2c:	29343120 	ldmdbcs	r4!, {r5, r8, ip, sp}
    2b30:	415f5f00 	cmpmi	pc, r0, lsl #30
    2b34:	4d554343 	ldclmi	3, cr4, [r5, #-268]	; 0xfffffef4
    2b38:	58414d5f 	stmdapl	r1, {r0, r1, r2, r3, r4, r6, r8, sl, fp, lr}^
    2b3c:	30205f5f 	eorcc	r5, r0, pc, asr pc
    2b40:	46463758 			; <UNDEFINED> instruction: 0x46463758
    2b44:	46464646 	strbmi	r4, [r6], -r6, asr #12
    2b48:	312d5046 			; <UNDEFINED> instruction: 0x312d5046
    2b4c:	5f004b35 	svcpl	0x00004b35
    2b50:	544e495f 	strbpl	r4, [lr], #-2399	; 0xfffff6a1
    2b54:	414d5f38 	cmpmi	sp, r8, lsr pc
    2b58:	205f5f58 	subscs	r5, pc, r8, asr pc	; <UNPREDICTABLE>
    2b5c:	66377830 			; <UNDEFINED> instruction: 0x66377830
    2b60:	475f5f00 	ldrbmi	r5, [pc, -r0, lsl #30]
    2b64:	485f4343 	ldmdami	pc, {r0, r1, r6, r8, r9, lr}^	; <UNPREDICTABLE>
    2b68:	5f455641 	svcpl	0x00455641
    2b6c:	52415744 	subpl	r5, r1, #68, 14	; 0x1100000
    2b70:	435f3246 	cmpmi	pc, #1610612740	; 0x60000004
    2b74:	415f4946 	cmpmi	pc, r6, asr #18
    2b78:	31204d53 			; <UNDEFINED> instruction: 0x31204d53
    2b7c:	49564e00 	ldmdbmi	r6, {r9, sl, fp, lr}^
    2b80:	41425f43 	cmpmi	r2, r3, asr #30
    2b84:	30204553 	eorcc	r4, r0, r3, asr r5
    2b88:	30304578 	eorscc	r4, r0, r8, ror r5
    2b8c:	30314530 	eorscc	r4, r1, r0, lsr r5
    2b90:	004c5530 	subeq	r5, ip, r0, lsr r5
    2b94:	46535f5f 	usaxmi	r5, r3, pc	; <UNPREDICTABLE>
    2b98:	54434152 	strbpl	r4, [r3], #-338	; 0xfffffeae
    2b9c:	4e494d5f 	mcrmi	13, 2, r4, cr9, cr15, {2}
    2ba0:	28205f5f 	stmdacs	r0!, {r0, r1, r2, r3, r4, r6, r8, r9, sl, fp, ip, lr}
    2ba4:	352e302d 	strcc	r3, [lr, #-45]!	; 0xffffffd3
    2ba8:	302d5248 	eorcc	r5, sp, r8, asr #4
    2bac:	5248352e 	subpl	r3, r8, #192937984	; 0xb800000
    2bb0:	5f5f0029 	svcpl	0x005f0029
    2bb4:	495f4153 	ldmdbmi	pc, {r0, r1, r4, r6, r8, lr}^	; <UNPREDICTABLE>
    2bb8:	5f544942 	svcpl	0x00544942
    2bbc:	3631205f 			; <UNDEFINED> instruction: 0x3631205f
    2bc0:	43324900 	teqmi	r2, #0, 18
    2bc4:	52414f5f 	subpl	r4, r1, #380	; 0x17c
    2bc8:	4e455f32 	mcrmi	15, 2, r5, cr5, cr2, {1}
    2bcc:	4c415544 	cfstr64mi	mvdx5, [r1], {68}	; 0x44
    2bd0:	736f505f 	cmnvc	pc, #95	; 0x5f
    2bd4:	55302820 	ldrpl	r2, [r0, #-2080]!	; 0xfffff7e0
    2bd8:	5f5f0029 	svcpl	0x005f0029
    2bdc:	5f4d5241 	svcpl	0x004d5241
    2be0:	54414546 	strbpl	r4, [r1], #-1350	; 0xfffffaba
    2be4:	5f455255 	svcpl	0x00455255
    2be8:	0045564d 	subeq	r5, r5, sp, asr #12
    2bec:	5f433249 	svcpl	0x00433249
    2bf0:	5f315243 	svcpl	0x00315243
    2bf4:	55424d53 	strbpl	r4, [r2, #-3411]	; 0xfffff2ad
    2bf8:	32492053 	subcc	r2, r9, #83	; 0x53
    2bfc:	52435f43 	subpl	r5, r3, #268	; 0x10c
    2c00:	4d535f31 	ldclmi	15, cr5, [r3, #-196]	; 0xffffff3c
    2c04:	5f535542 	svcpl	0x00535542
    2c08:	006b734d 	rsbeq	r7, fp, sp, asr #6
    2c0c:	52415f5f 	subpl	r5, r1, #380	; 0x17c
    2c10:	50465f4d 	subpl	r5, r6, sp, asr #30
    2c14:	465f3631 			; <UNDEFINED> instruction: 0x465f3631
    2c18:	414d524f 	cmpmi	sp, pc, asr #4
    2c1c:	45495f54 	strbmi	r5, [r9, #-3924]	; 0xfffff0ac
    2c20:	5f004545 	svcpl	0x00004545
    2c24:	4e49555f 	mcrmi	5, 2, r5, cr9, cr15, {2}
    2c28:	5f363154 	svcpl	0x00363154
    2c2c:	45505954 	ldrbmi	r5, [r0, #-2388]	; 0xfffff6ac
    2c30:	73205f5f 			; <UNDEFINED> instruction: 0x73205f5f
    2c34:	74726f68 	ldrbtvc	r6, [r2], #-3944	; 0xfffff098
    2c38:	736e7520 	cmnvc	lr, #32, 10	; 0x8000000
    2c3c:	656e6769 	strbvs	r6, [lr, #-1897]!	; 0xfffff897
    2c40:	6e692064 	cdpvs	0, 6, cr2, cr9, cr4, {3}
    2c44:	32490074 	subcc	r0, r9, #116	; 0x74
    2c48:	414f5f43 	cmpmi	pc, r3, asr #30
    2c4c:	455f3252 	ldrbmi	r3, [pc, #-594]	; 2a02 <_Min_Stack_Size+0x2602>
    2c50:	4155444e 	cmpmi	r5, lr, asr #8
    2c54:	3249204c 	subcc	r2, r9, #76	; 0x4c
    2c58:	414f5f43 	cmpmi	pc, r3, asr #30
    2c5c:	455f3252 	ldrbmi	r3, [pc, #-594]	; 2a12 <_Min_Stack_Size+0x2612>
    2c60:	4155444e 	cmpmi	r5, lr, asr #8
    2c64:	734d5f4c 	movtvc	r5, #57164	; 0xdf4c
    2c68:	5f5f006b 	svcpl	0x005f006b
    2c6c:	54464f53 	strbpl	r4, [r6], #-3923	; 0xfffff0ad
    2c70:	5f5f5046 	svcpl	0x005f5046
    2c74:	5f003120 	svcpl	0x00003120
    2c78:	4e49555f 	mcrmi	5, 2, r5, cr9, cr15, {2}
    2c7c:	5f323354 	svcpl	0x00323354
    2c80:	5f58414d 	svcpl	0x0058414d
    2c84:	7830205f 	ldmdavc	r0!, {r0, r1, r2, r3, r4, r6, sp}
    2c88:	66666666 	strbtvs	r6, [r6], -r6, ror #12
    2c8c:	66666666 	strbtvs	r6, [r6], -r6, ror #12
    2c90:	5f004c55 	svcpl	0x00004c55
    2c94:	544c465f 	strbpl	r4, [ip], #-1631	; 0xfffff9a1
    2c98:	4156455f 	cmpmi	r6, pc, asr r5
    2c9c:	454d5f4c 	strbmi	r5, [sp, #-3916]	; 0xfffff0b4
    2ca0:	444f4854 	strbmi	r4, [pc], #-2132	; 2ca8 <_Min_Stack_Size+0x28a8>
    2ca4:	5f53545f 	svcpl	0x0053545f
    2ca8:	36363831 			; <UNDEFINED> instruction: 0x36363831
    2cac:	5f335f31 	svcpl	0x00335f31
    2cb0:	0030205f 	eorseq	r2, r0, pc, asr r0
    2cb4:	43535f5f 	cmpmi	r3, #380	; 0x17c
    2cb8:	5f524148 	svcpl	0x00524148
    2cbc:	54444957 	strbpl	r4, [r4], #-2391	; 0xfffff6a9
    2cc0:	205f5f48 	subscs	r5, pc, r8, asr #30
    2cc4:	58450038 	stmdapl	r5, {r3, r4, r5}^
    2cc8:	50304954 	eorspl	r4, r0, r4, asr r9
    2ccc:	28203041 	stmdacs	r0!, {r0, r6, ip, sp}
    2cd0:	49545845 	ldmdbmi	r4, {r0, r2, r6, fp, ip, lr}^
    2cd4:	70614d5f 	rsbvc	r4, r1, pc, asr sp
    2cd8:	676e6970 			; <UNDEFINED> instruction: 0x676e6970
    2cdc:	7b29745f 	blvc	a5fe60 <_Min_Stack_Size+0xa5fa60>
    2ce0:	49545845 	ldmdbmi	r4, {r0, r2, r6, fp, ip, lr}^
    2ce4:	47202c30 			; <UNDEFINED> instruction: 0x47202c30
    2ce8:	414f4950 	cmpmi	pc, r0, asr r9	; <UNPREDICTABLE>
    2cec:	5047202c 	subpl	r2, r7, ip, lsr #32
    2cf0:	505f4f49 	subspl	r4, pc, r9, asr #30
    2cf4:	305f4e49 	subscc	r4, pc, r9, asr #28
    2cf8:	5845202c 	stmdapl	r5, {r2, r3, r5, sp}^
    2cfc:	5f304954 	svcpl	0x00304954
    2d00:	7d515249 	lfmvc	f5, 2, [r1, #-292]	; 0xfffffedc
    2d04:	43324900 	teqmi	r2, #0, 18
    2d08:	3252535f 	subscc	r5, r2, #2080374785	; 0x7c000001
    2d0c:	4c534d5f 	mrrcmi	13, 5, r4, r3, cr15
    2d10:	6b734d5f 	blvs	1cd6294 <_Min_Stack_Size+0x1cd5e94>
    2d14:	78302820 	ldmdavc	r0!, {r5, fp, sp}
    2d18:	204c5531 	subcs	r5, ip, r1, lsr r5
    2d1c:	49203c3c 	stmdbmi	r0!, {r2, r3, r4, r5, sl, fp, ip, sp}
    2d20:	535f4332 	cmppl	pc, #-939524096	; 0xc8000000
    2d24:	4d5f3252 	lfmmi	f3, 2, [pc, #-328]	; 2be4 <_Min_Stack_Size+0x27e4>
    2d28:	505f4c53 	subspl	r4, pc, r3, asr ip	; <UNPREDICTABLE>
    2d2c:	0029736f 	eoreq	r7, r9, pc, ror #6
    2d30:	49555f5f 	ldmdbmi	r5, {r0, r1, r2, r3, r4, r6, r8, r9, sl, fp, ip, lr}^
    2d34:	465f544e 	ldrbmi	r5, [pc], -lr, asr #8
    2d38:	38545341 	ldmdacc	r4, {r0, r6, r8, r9, ip, lr}^
    2d3c:	5059545f 	subspl	r5, r9, pc, asr r4
    2d40:	205f5f45 	subscs	r5, pc, r5, asr #30
    2d44:	69736e75 	ldmdbvs	r3!, {r0, r2, r4, r5, r6, r9, sl, fp, sp, lr}^
    2d48:	64656e67 	strbtvs	r6, [r5], #-3687	; 0xfffff199
    2d4c:	746e6920 	strbtvc	r6, [lr], #-2336	; 0xfffff6e0
    2d50:	4c5f5f00 	mrrcmi	15, 0, r5, pc, cr0	; <UNPREDICTABLE>
    2d54:	4343414c 	movtmi	r4, #12620	; 0x314c
    2d58:	495f4d55 	ldmdbmi	pc, {r0, r2, r4, r6, r8, sl, fp, lr}^	; <UNPREDICTABLE>
    2d5c:	5f544942 	svcpl	0x00544942
    2d60:	3233205f 	eorscc	r2, r3, #95	; 0x5f
    2d64:	465f5f00 	ldrbmi	r5, [pc], -r0, lsl #30
    2d68:	54434152 	strbpl	r4, [r3], #-338	; 0xfffffeae
    2d6c:	5350455f 	cmppl	r0, #398458880	; 0x17c00000
    2d70:	4e4f4c49 	cdpmi	12, 4, cr4, cr15, cr9, {2}
    2d74:	30205f5f 	eorcc	r5, r0, pc, asr pc
    2d78:	2d503178 	ldfcse	f3, [r0, #-480]	; 0xfffffe20
    2d7c:	00523531 	subseq	r3, r2, r1, lsr r5
    2d80:	5f433249 	svcpl	0x00433249
    2d84:	5f315253 	svcpl	0x00315253
    2d88:	20465442 	subcs	r5, r6, r2, asr #8
    2d8c:	5f433249 	svcpl	0x00433249
    2d90:	5f315253 	svcpl	0x00315253
    2d94:	5f465442 	svcpl	0x00465442
    2d98:	006b734d 	rsbeq	r7, fp, sp, asr #6
    2d9c:	5f433249 	svcpl	0x00433249
    2da0:	5f315253 	svcpl	0x00315253
    2da4:	454d4954 	strbmi	r4, [sp, #-2388]	; 0xfffff6ac
    2da8:	5f54554f 	svcpl	0x0054554f
    2dac:	20736f50 	rsbscs	r6, r3, r0, asr pc
    2db0:	55343128 	ldrpl	r3, [r4, #-296]!	; 0xfffffed8
    2db4:	5f5f0029 	svcpl	0x005f0029
    2db8:	33544e49 	cmpcc	r4, #1168	; 0x490
    2dbc:	414d5f32 	cmpmi	sp, r2, lsr pc
    2dc0:	205f5f58 	subscs	r5, pc, r8, asr pc	; <UNPREDICTABLE>
    2dc4:	66377830 			; <UNDEFINED> instruction: 0x66377830
    2dc8:	66666666 	strbtvs	r6, [r6], -r6, ror #12
    2dcc:	004c6666 	subeq	r6, ip, r6, ror #12
    2dd0:	5f433249 	svcpl	0x00433249
    2dd4:	3252414f 	subscc	r4, r2, #-1073741805	; 0xc0000013
    2dd8:	4444415f 	strbmi	r4, [r4], #-351	; 0xfffffea1
    2ddc:	734d5f32 	movtvc	r5, #57138	; 0xdf32
    2de0:	3028206b 	eorcc	r2, r8, fp, rrx
    2de4:	4c553178 	ldfmie	f3, [r5], {120}	; 0x78
    2de8:	203c3c20 	eorscs	r3, ip, r0, lsr #24
    2dec:	5f433249 	svcpl	0x00433249
    2df0:	3252414f 	subscc	r4, r2, #-1073741805	; 0xc0000013
    2df4:	4444415f 	strbmi	r4, [r4], #-351	; 0xfffffea1
    2df8:	6f505f32 	svcvs	0x00505f32
    2dfc:	5f002973 	svcpl	0x00002973
    2e00:	4d52415f 	ldfmie	f4, [r2, #-380]	; 0xfffffe84
    2e04:	5343505f 	movtpl	r5, #12383	; 0x305f
    2e08:	4c003120 	stfmis	f3, [r0], {32}
    2e0c:	445f4443 	ldrbmi	r4, [pc], #-1091	; 2e14 <_Min_Stack_Size+0x2a14>
    2e10:	49505f37 	ldmdbmi	r0, {r0, r1, r2, r4, r5, r8, r9, sl, fp, ip, lr}^
    2e14:	5047204e 	subpl	r2, r7, lr, asr #32
    2e18:	505f4f49 	subspl	r4, pc, r9, asr #30
    2e1c:	375f4e49 	ldrbcc	r4, [pc, -r9, asr #28]
    2e20:	495f5f00 	ldmdbmi	pc, {r8, r9, sl, fp, ip, lr}^	; <UNPREDICTABLE>
    2e24:	4c5f544e 	cfldrdmi	mvd5, [pc], {78}	; 0x4e
    2e28:	54534145 	ldrbpl	r4, [r3], #-325	; 0xfffffebb
    2e2c:	4d5f3436 	cfldrdmi	mvd3, [pc, #-216]	; 2d5c <_Min_Stack_Size+0x295c>
    2e30:	5f5f5841 	svcpl	0x005f5841
    2e34:	37783020 	ldrbcc	r3, [r8, -r0, lsr #32]!
    2e38:	66666666 	strbtvs	r6, [r6], -r6, ror #12
    2e3c:	66666666 	strbtvs	r6, [r6], -r6, ror #12
    2e40:	66666666 	strbtvs	r6, [r6], -r6, ror #12
    2e44:	4c666666 	stclmi	6, cr6, [r6], #-408	; 0xfffffe68
    2e48:	5845004c 	stmdapl	r5, {r2, r3, r6}^
    2e4c:	30314954 	eorscc	r4, r1, r4, asr r9
    2e50:	30314250 	eorscc	r4, r1, r0, asr r2
    2e54:	58452820 	stmdapl	r5, {r5, fp, sp}^
    2e58:	4d5f4954 	vldrmi.16	s9, [pc, #-168]	; 2db8 <_Min_Stack_Size+0x29b8>	; <UNPREDICTABLE>
    2e5c:	69707061 	ldmdbvs	r0!, {r0, r5, r6, ip, sp, lr}^
    2e60:	745f676e 	ldrbvc	r6, [pc], #-1902	; 2e68 <_Min_Stack_Size+0x2a68>
    2e64:	58457b29 	stmdapl	r5, {r0, r3, r5, r8, r9, fp, ip, sp, lr}^
    2e68:	30314954 	eorscc	r4, r1, r4, asr r9
    2e6c:	5047202c 	subpl	r2, r7, ip, lsr #32
    2e70:	2c424f49 	mcrrcs	15, 4, r4, r2, cr9
    2e74:	49504720 	ldmdbmi	r0, {r5, r8, r9, sl, lr}^
    2e78:	49505f4f 	ldmdbmi	r0, {r0, r1, r2, r3, r6, r8, r9, sl, fp, ip, lr}^
    2e7c:	30315f4e 	eorscc	r5, r1, lr, asr #30
    2e80:	5845202c 	stmdapl	r5, {r2, r3, r5, sp}^
    2e84:	30314954 	eorscc	r4, r1, r4, asr r9
    2e88:	5152495f 	cmppl	r2, pc, asr r9
    2e8c:	5f5f007d 	svcpl	0x005f007d
    2e90:	5f4d5241 	svcpl	0x004d5241
    2e94:	54414546 	strbpl	r4, [r1], #-1350	; 0xfffffaba
    2e98:	5f455255 	svcpl	0x00455255
    2e9c:	36314642 	ldrtcc	r4, [r1], -r2, asr #12
    2ea0:	4345565f 	movtmi	r5, #22111	; 0x565f
    2ea4:	5f524f54 	svcpl	0x00524f54
    2ea8:	54495241 	strbpl	r5, [r9], #-577	; 0xfffffdbf
    2eac:	54454d48 	strbpl	r4, [r5], #-3400	; 0xfffff2b8
    2eb0:	45004349 	strmi	r4, [r0, #-841]	; 0xfffffcb7
    2eb4:	31495458 	cmpcc	r9, r8, asr r4
    2eb8:	31415033 	cmpcc	r1, r3, lsr r0
    2ebc:	45282033 	strmi	r2, [r8, #-51]!	; 0xffffffcd
    2ec0:	5f495458 	svcpl	0x00495458
    2ec4:	7070614d 	rsbsvc	r6, r0, sp, asr #2
    2ec8:	5f676e69 	svcpl	0x00676e69
    2ecc:	457b2974 	ldrbmi	r2, [fp, #-2420]!	; 0xfffff68c
    2ed0:	31495458 	cmpcc	r9, r8, asr r4
    2ed4:	47202c33 			; <UNDEFINED> instruction: 0x47202c33
    2ed8:	414f4950 	cmpmi	pc, r0, asr r9	; <UNPREDICTABLE>
    2edc:	5047202c 	subpl	r2, r7, ip, lsr #32
    2ee0:	505f4f49 	subspl	r4, pc, r9, asr #30
    2ee4:	315f4e49 	cmpcc	pc, r9, asr #28
    2ee8:	45202c33 	strmi	r2, [r0, #-3123]!	; 0xfffff3cd
    2eec:	31495458 	cmpcc	r9, r8, asr r4
    2ef0:	52495f33 	subpl	r5, r9, #51, 30	; 0xcc
    2ef4:	5f007d51 	svcpl	0x00007d51
    2ef8:	544c465f 	strbpl	r4, [ip], #-1631	; 0xfffff9a1
    2efc:	4d5f3233 	lfmmi	f3, 2, [pc, #-204]	; 2e38 <_Min_Stack_Size+0x2a38>
    2f00:	5f544e41 	svcpl	0x00544e41
    2f04:	5f474944 	svcpl	0x00474944
    2f08:	3432205f 	ldrtcc	r2, [r2], #-95	; 0xffffffa1
    2f0c:	5f455f00 	svcpl	0x00455f00
    2f10:	0050534d 	subseq	r5, r0, sp, asr #6
    2f14:	5f434352 	svcpl	0x00434352
    2f18:	4f495047 	svcmi	0x00495047
    2f1c:	4c435f42 	mcrrmi	15, 4, r5, r3, cr2
    2f20:	4e455f4b 	cdpmi	15, 4, cr5, cr5, cr11, {2}
    2f24:	53202928 			; <UNDEFINED> instruction: 0x53202928
    2f28:	425f5445 	subsmi	r5, pc, #1157627904	; 0x45000000
    2f2c:	52285449 	eorpl	r5, r8, #1224736768	; 0x49000000
    2f30:	3e2d4343 	cdpcc	3, 2, cr4, cr13, cr3, {2}
    2f34:	32425041 	subcc	r5, r2, #65	; 0x41
    2f38:	2c524e45 	mrrccs	14, 4, r4, r2, cr5
    2f3c:	5f002933 	svcpl	0x00002933
    2f40:	4e49555f 	mcrmi	5, 2, r5, cr9, cr15, {2}
    2f44:	454c5f54 	strbmi	r5, [ip, #-3924]	; 0xfffff0ac
    2f48:	36545341 	ldrbcc	r5, [r4], -r1, asr #6
    2f4c:	59545f34 	ldmdbpl	r4, {r2, r4, r5, r8, r9, sl, fp, ip, lr}^
    2f50:	5f5f4550 	svcpl	0x005f4550
    2f54:	6e6f6c20 	cdpvs	12, 6, cr6, cr15, cr0, {1}
    2f58:	6f6c2067 	svcvs	0x006c2067
    2f5c:	7520676e 	strvc	r6, [r0, #-1902]!	; 0xfffff892
    2f60:	6769736e 	strbvs	r7, [r9, -lr, ror #6]!
    2f64:	2064656e 	rsbcs	r6, r4, lr, ror #10
    2f68:	00746e69 	rsbseq	r6, r4, r9, ror #28
    2f6c:	5f434352 	svcpl	0x00434352
    2f70:	32433249 	subcc	r3, r3, #-1879048188	; 0x90000004
    2f74:	7365525f 	cmnvc	r5, #-268435451	; 0xf0000005
    2f78:	29287465 	stmdbcs	r8!, {r0, r2, r5, r6, sl, ip, sp, lr}
    2f7c:	43522820 	cmpmi	r2, #32, 16	; 0x200000
    2f80:	413e2d43 	teqmi	lr, r3, asr #26
    2f84:	52314250 	eorspl	r4, r1, #80, 4
    2f88:	20525453 	subscs	r5, r2, r3, asr r4
    2f8c:	31203d7c 			; <UNDEFINED> instruction: 0x31203d7c
    2f90:	32323c3c 	eorscc	r3, r2, #60, 24	; 0x3c00
    2f94:	5f5f0029 	svcpl	0x005f0029
    2f98:	4c42444c 	cfstrdmi	mvd4, [r2], {76}	; 0x4c
    2f9c:	5350455f 	cmppl	r0, #398458880	; 0x17c00000
    2fa0:	4e4f4c49 	cdpmi	12, 4, cr4, cr15, cr9, {2}
    2fa4:	32205f5f 	eorcc	r5, r0, #380	; 0x17c
    2fa8:	3032322e 	eorscc	r3, r2, lr, lsr #4
    2fac:	30363434 	eorscc	r3, r6, r4, lsr r4
    2fb0:	35323934 	ldrcc	r3, [r2, #-2356]!	; 0xfffff6cc
    2fb4:	33313330 	teqcc	r1, #48, 6	; 0xc0000000
    2fb8:	312d6531 			; <UNDEFINED> instruction: 0x312d6531
    2fbc:	45004c36 	strmi	r4, [r0, #-3126]	; 0xfffff3ca
    2fc0:	39495458 	stmdbcc	r9, {r3, r4, r6, sl, ip, lr}^
    2fc4:	20394350 	eorscs	r4, r9, r0, asr r3
    2fc8:	54584528 	ldrbpl	r4, [r8], #-1320	; 0xfffffad8
    2fcc:	614d5f49 	cmpvs	sp, r9, asr #30
    2fd0:	6e697070 	mcrvs	0, 3, r7, cr9, cr0, {3}
    2fd4:	29745f67 	ldmdbcs	r4!, {r0, r1, r2, r5, r6, r8, r9, sl, fp, ip, lr}^
    2fd8:	5458457b 	ldrbpl	r4, [r8], #-1403	; 0xfffffa85
    2fdc:	202c3949 	eorcs	r3, ip, r9, asr #18
    2fe0:	4f495047 	svcmi	0x00495047
    2fe4:	47202c43 	strmi	r2, [r0, -r3, asr #24]!
    2fe8:	5f4f4950 	svcpl	0x004f4950
    2fec:	5f4e4950 	svcpl	0x004e4950
    2ff0:	45202c39 	strmi	r2, [r0, #-3129]!	; 0xfffff3c7
    2ff4:	39495458 	stmdbcc	r9, {r3, r4, r6, sl, ip, lr}^
    2ff8:	5152495f 	cmppl	r2, pc, asr r9
    2ffc:	3249007d 	subcc	r0, r9, #125	; 0x7d
    3000:	52535f43 	subspl	r5, r3, #268	; 0x10c
    3004:	45475f32 	strbmi	r5, [r7, #-3890]	; 0xfffff0ce
    3008:	4c41434e 	mcrrmi	3, 4, r4, r1, cr14
    300c:	6f505f4c 	svcvs	0x00505f4c
    3010:	34282073 	strtcc	r2, [r8], #-115	; 0xffffff8d
    3014:	5f002955 	svcpl	0x00002955
    3018:	4343475f 	movtmi	r4, #14175	; 0x375f
    301c:	4f54415f 	svcmi	0x0054415f
    3020:	5f43494d 	svcpl	0x0043494d
    3024:	52414843 	subpl	r4, r1, #4390912	; 0x430000
    3028:	545f3631 	ldrbpl	r3, [pc], #-1585	; 3030 <_Min_Stack_Size+0x2c30>
    302c:	434f4c5f 	movtmi	r4, #64607	; 0xfc5f
    3030:	52465f4b 	subpl	r5, r6, #300	; 0x12c
    3034:	32204545 	eorcc	r4, r0, #289406976	; 0x11400000
    3038:	4b434c00 	blmi	10d6040 <_Min_Stack_Size+0x10d5c40>
    303c:	5f5f0052 	svcpl	0x005f0052
    3040:	5f4c4244 	svcpl	0x004c4244
    3044:	5f58414d 	svcpl	0x0058414d
    3048:	5f505845 	svcpl	0x00505845
    304c:	3031205f 	eorscc	r2, r1, pc, asr r0
    3050:	5f003432 	svcpl	0x00003432
    3054:	4f54415f 	svcmi	0x0054415f
    3058:	5f43494d 	svcpl	0x0043494d
    305c:	454c4552 	strbmi	r4, [ip, #-1362]	; 0xfffffaae
    3060:	20455341 	subcs	r5, r5, r1, asr #6
    3064:	32490033 	subcc	r0, r9, #51	; 0x33
    3068:	455f3143 	ldrbmi	r3, [pc, #-323]	; 2f2d <_Min_Stack_Size+0x2b2d>
    306c:	52495f52 	subpl	r5, r9, #328	; 0x148
    3070:	32332051 	eorscc	r2, r3, #81	; 0x51
    3074:	43324900 	teqmi	r2, #0, 18
    3078:	3152435f 	cmpcc	r2, pc, asr r3
    307c:	4154535f 	cmpmi	r4, pc, asr r3
    3080:	49205452 	stmdbmi	r0!, {r1, r4, r6, sl, ip, lr}
    3084:	435f4332 	cmpmi	pc, #-939524096	; 0xc8000000
    3088:	535f3152 	cmppl	pc, #-2147483628	; 0x80000014
    308c:	54524154 	ldrbpl	r4, [r2], #-340	; 0xfffffeac
    3090:	6b734d5f 	blvs	1cd6614 <_Min_Stack_Size+0x1cd6214>
    3094:	465f5f00 	ldrbmi	r5, [pc], -r0, lsl #30
    3098:	3233544c 	eorscc	r5, r3, #76, 8	; 0x4c000000
    309c:	41485f58 	cmpmi	r8, r8, asr pc
    30a0:	45445f53 	strbmi	r5, [r4, #-3923]	; 0xfffff0ad
    30a4:	4d524f4e 	ldclmi	15, cr4, [r2, #-312]	; 0xfffffec8
    30a8:	31205f5f 			; <UNDEFINED> instruction: 0x31205f5f
    30ac:	465f5f00 	ldrbmi	r5, [pc], -r0, lsl #30
    30b0:	4d5f544c 	cfldrdmi	mvd5, [pc, #-304]	; 2f88 <_Min_Stack_Size+0x2b88>
    30b4:	5f544e41 	svcpl	0x00544e41
    30b8:	5f474944 	svcpl	0x00474944
    30bc:	3432205f 	ldrtcc	r2, [r2], #-95	; 0xffffffa1
    30c0:	43324900 	teqmi	r2, #0, 18
    30c4:	3152535f 	cmpcc	r2, pc, asr r3
    30c8:	52564f5f 	subspl	r4, r6, #380	; 0x17c
    30cc:	6b734d5f 	blvs	1cd6650 <_Min_Stack_Size+0x1cd6250>
    30d0:	78302820 	ldmdavc	r0!, {r5, fp, sp}
    30d4:	204c5531 	subcs	r5, ip, r1, lsr r5
    30d8:	49203c3c 	stmdbmi	r0!, {r2, r3, r4, r5, sl, fp, ip, sp}
    30dc:	535f4332 	cmppl	pc, #-939524096	; 0xc8000000
    30e0:	4f5f3152 	svcmi	0x005f3152
    30e4:	505f5256 	subspl	r5, pc, r6, asr r2	; <UNPREDICTABLE>
    30e8:	0029736f 	eoreq	r7, r9, pc, ror #6
    30ec:	5f44434c 	svcpl	0x0044434c
    30f0:	53525543 	cmppl	r2, #281018368	; 0x10c00000
    30f4:	4d5f524f 	lfmmi	f5, 2, [pc, #-316]	; 2fc0 <_Min_Stack_Size+0x2bc0>
    30f8:	5f45564f 	svcpl	0x0045564f
    30fc:	46494853 			; <UNDEFINED> instruction: 0x46494853
    3100:	454c5f54 	strbmi	r5, [ip, #-3924]	; 0xfffff0ac
    3104:	30205446 	eorcc	r5, r0, r6, asr #8
    3108:	00303178 	eorseq	r3, r0, r8, ror r1
    310c:	44555f5f 	ldrbmi	r5, [r5], #-3935	; 0xfffff0a1
    3110:	42495f51 	submi	r5, r9, #324	; 0x144
    3114:	5f5f5449 	svcpl	0x005f5449
    3118:	5f003020 	svcpl	0x00003020
    311c:	544e495f 	strbpl	r4, [lr], #-2399	; 0xfffff6a1
    3120:	41454c5f 	cmpmi	r5, pc, asr ip
    3124:	32335453 	eorscc	r5, r3, #1392508928	; 0x53000000
    3128:	5059545f 	subspl	r5, r9, pc, asr r4
    312c:	205f5f45 	subscs	r5, pc, r5, asr #30
    3130:	676e6f6c 	strbvs	r6, [lr, -ip, ror #30]!
    3134:	746e6920 	strbtvc	r6, [lr], #-2336	; 0xfffff6e0
    3138:	49564e00 	ldmdbmi	r6, {r9, sl, fp, lr}^
    313c:	52495f43 	subpl	r5, r9, #268	; 0x10c
    3140:	5f343351 	svcpl	0x00343351
    3144:	32433249 	subcc	r3, r3, #-1879048188	; 0x90000004
    3148:	5f52455f 	svcpl	0x0052455f
    314c:	61736944 	cmnvs	r3, r4, asr #18
    3150:	28656c62 	stmdacs	r5!, {r1, r5, r6, sl, fp, sp, lr}^
    3154:	4e282029 	cdpmi	0, 2, cr2, cr8, cr9, {1}
    3158:	5f434956 	svcpl	0x00434956
    315c:	52454349 	subpl	r4, r5, #603979777	; 0x24000001
    3160:	3d7c2031 	ldclcc	0, cr2, [ip, #-196]!	; 0xffffff3c
    3164:	3c3c3120 	ldfccs	f3, [ip], #-128	; 0xffffff80
    3168:	32492028 	subcc	r2, r9, #40	; 0x28
    316c:	455f3243 	ldrbmi	r3, [pc, #-579]	; 2f31 <_Min_Stack_Size+0x2b31>
    3170:	52495f52 	subpl	r5, r9, #328	; 0x148
    3174:	202d2051 	eorcs	r2, sp, r1, asr r0
    3178:	29203233 	stmdbcs	r0!, {r0, r1, r4, r5, r9, ip, sp}
    317c:	53550029 	cmppl	r5, #41	; 0x29
    3180:	33545241 	cmpcc	r4, #268435460	; 0x10000004
    3184:	5152495f 	cmppl	r2, pc, asr r9
    3188:	00393320 	eorseq	r3, r9, r0, lsr #6
    318c:	41555f5f 	cmpmi	r5, pc, asr pc
    3190:	4d554343 	ldclmi	3, cr4, [r5, #-268]	; 0xfffffef4
    3194:	58414d5f 	stmdapl	r1, {r0, r1, r2, r3, r4, r6, r8, sl, fp, lr}^
    3198:	30205f5f 	eorcc	r5, r0, pc, asr pc
    319c:	46464658 			; <UNDEFINED> instruction: 0x46464658
    31a0:	46464646 	strbmi	r4, [r6], -r6, asr #12
    31a4:	312d5046 			; <UNDEFINED> instruction: 0x312d5046
    31a8:	004b5536 	subeq	r5, fp, r6, lsr r5
    31ac:	4c465f5f 	mcrrmi	15, 5, r5, r6, cr15
    31b0:	5f343654 	svcpl	0x00343654
    31b4:	4d524f4e 	ldclmi	15, cr4, [r2, #-312]	; 0xfffffec8
    31b8:	58414d5f 	stmdapl	r1, {r0, r1, r2, r3, r4, r6, r8, sl, fp, lr}^
    31bc:	31205f5f 			; <UNDEFINED> instruction: 0x31205f5f
    31c0:	3739372e 	ldrcc	r3, [r9, -lr, lsr #14]!
    31c4:	31333936 	teqcc	r3, r6, lsr r9
    31c8:	36383433 			; <UNDEFINED> instruction: 0x36383433
    31cc:	35313332 	ldrcc	r3, [r1, #-818]!	; 0xfffffcce
    31d0:	332b6537 			; <UNDEFINED> instruction: 0x332b6537
    31d4:	36463830 			; <UNDEFINED> instruction: 0x36463830
    31d8:	4e490034 	mcrmi	0, 2, r0, cr9, cr4, {1}
    31dc:	50475f43 	subpl	r5, r7, r3, asr #30
    31e0:	485f4f49 	ldmdami	pc, {r0, r3, r6, r8, r9, sl, fp, lr}^	; <UNPREDICTABLE>
    31e4:	4900205f 	stmdbmi	r0, {r0, r1, r2, r3, r4, r6, sp}
    31e8:	435f4332 	cmpmi	pc, #-939524096	; 0xc8000000
    31ec:	415f3152 	cmpmi	pc, r2, asr r1	; <UNPREDICTABLE>
    31f0:	505f4b43 	subspl	r4, pc, r3, asr #22
    31f4:	2820736f 	stmdacs	r0!, {r0, r1, r2, r3, r5, r6, r8, r9, ip, sp, lr}
    31f8:	29553031 	ldmdbcs	r5, {r0, r4, r5, ip, sp}^
    31fc:	43324900 	teqmi	r2, #0, 18
    3200:	3152535f 	cmpcc	r2, pc, asr r3
    3204:	4c52415f 	ldfmie	f4, [r2], {95}	; 0x5f
    3208:	734d5f4f 	movtvc	r5, #57167	; 0xdf4f
    320c:	3028206b 	eorcc	r2, r8, fp, rrx
    3210:	4c553178 	ldfmie	f3, [r5], {120}	; 0x78
    3214:	203c3c20 	eorscs	r3, ip, r0, lsr #24
    3218:	5f433249 	svcpl	0x00433249
    321c:	5f315253 	svcpl	0x00315253
    3220:	4f4c5241 	svcmi	0x004c5241
    3224:	736f505f 	cmnvc	pc, #95	; 0x5f
    3228:	5f5f0029 	svcpl	0x005f0029
    322c:	4c42444c 	cfstrdmi	mvd4, [r2], {76}	; 0x4c
    3230:	4e45445f 	mcrmi	4, 2, r4, cr5, cr15, {2}
    3234:	5f4d524f 	svcpl	0x004d524f
    3238:	5f4e494d 	svcpl	0x004e494d
    323c:	2e34205f 	mrccs	0, 1, r2, cr4, cr15, {2}
    3240:	36303439 			; <UNDEFINED> instruction: 0x36303439
    3244:	35343635 	ldrcc	r3, [r4, #-1589]!	; 0xfffff9cb
    3248:	32313438 	eorscc	r3, r1, #56, 8	; 0x38000000
    324c:	34353634 	ldrtcc	r3, [r5], #-1588	; 0xfffff9cc
    3250:	32332d65 	eorscc	r2, r3, #6464	; 0x1940
    3254:	5f004c34 	svcpl	0x00004c34
    3258:	544e495f 	strbpl	r4, [lr], #-2399	; 0xfffff6a1
    325c:	4d5f3436 	cfldrdmi	mvd3, [pc, #-216]	; 318c <_Min_Stack_Size+0x2d8c>
    3260:	5f5f5841 	svcpl	0x005f5841
    3264:	37783020 	ldrbcc	r3, [r8, -r0, lsr #32]!
    3268:	66666666 	strbtvs	r6, [r6], -r6, ror #12
    326c:	66666666 	strbtvs	r6, [r6], -r6, ror #12
    3270:	66666666 	strbtvs	r6, [r6], -r6, ror #12
    3274:	4c666666 	stclmi	6, cr6, [r6], #-408	; 0xfffffe68
    3278:	5f5f004c 	svcpl	0x005f004c
    327c:	5f4d5241 	svcpl	0x004d5241
    3280:	54414546 	strbpl	r4, [r1], #-1350	; 0xfffffaba
    3284:	5f455255 	svcpl	0x00455255
    3288:	20544153 	subscs	r4, r4, r3, asr r1
    328c:	5f5f0031 	svcpl	0x005f0031
    3290:	464c4c55 			; <UNDEFINED> instruction: 0x464c4c55
    3294:	54434152 	strbpl	r4, [r3], #-338	; 0xfffffeae
    3298:	4942495f 	stmdbmi	r2, {r0, r1, r2, r3, r4, r6, r8, fp, lr}^
    329c:	205f5f54 	subscs	r5, pc, r4, asr pc	; <UNPREDICTABLE>
    32a0:	564e0030 			; <UNDEFINED> instruction: 0x564e0030
    32a4:	495f4349 	ldmdbmi	pc, {r0, r3, r6, r8, r9, lr}^	; <UNPREDICTABLE>
    32a8:	31524543 	cmpcc	r2, r3, asr #10
    32ac:	76282a20 	strtvc	r2, [r8], -r0, lsr #20
    32b0:	74616c6f 	strbtvc	r6, [r1], #-3183	; 0xfffff391
    32b4:	20656c69 	rsbcs	r6, r5, r9, ror #24
    32b8:	746e6975 	strbtvc	r6, [lr], #-2421	; 0xfffff68b
    32bc:	745f3233 	ldrbvc	r3, [pc], #-563	; 32c4 <_Min_Stack_Size+0x2ec4>
    32c0:	28292a20 	stmdacs	r9!, {r5, r9, fp, sp}
    32c4:	4349564e 	movtmi	r5, #38478	; 0x964e
    32c8:	5341425f 	movtpl	r4, #4703	; 0x125f
    32cc:	202b2045 	eorcs	r2, fp, r5, asr #32
    32d0:	34387830 	ldrtcc	r7, [r8], #-2096	; 0xfffff7d0
    32d4:	434c0029 	movtmi	r0, #49193	; 0xc029
    32d8:	42345f44 	eorsmi	r5, r4, #68, 30	; 0x110
    32dc:	4d5f5449 	cfldrdmi	mvd5, [pc, #-292]	; 31c0 <_Min_Stack_Size+0x2dc0>
    32e0:	5f45444f 	svcpl	0x0045444f
    32e4:	494c5f32 	stmdbmi	ip, {r1, r4, r5, r8, r9, sl, fp, ip, lr}^
    32e8:	3020454e 	eorcc	r4, r0, lr, asr #10
    32ec:	00383278 	eorseq	r3, r8, r8, ror r2
    32f0:	5f434352 	svcpl	0x00434352
    32f4:	32495053 	subcc	r5, r9, #83	; 0x53
    32f8:	4b4c435f 	blmi	131407c <_Min_Stack_Size+0x1313c7c>
    32fc:	2849445f 	stmdacs	r9, {r0, r1, r2, r3, r4, r6, sl, lr}^
    3300:	4c432029 	mcrrmi	0, 2, r2, r3, cr9
    3304:	5f524145 	svcpl	0x00524145
    3308:	28544942 	ldmdacs	r4, {r1, r6, r8, fp, lr}^
    330c:	2d434352 	stclcs	3, cr4, [r3, #-328]	; 0xfffffeb8
    3310:	4250413e 	subsmi	r4, r0, #-2147483633	; 0x8000000f
    3314:	524e4531 	subpl	r4, lr, #205520896	; 0xc400000
    3318:	2934312c 	ldmdbcs	r4!, {r2, r3, r5, r8, ip, sp}
    331c:	475f5f00 	ldrbmi	r5, [pc, -r0, lsl #30]
    3320:	5f43554e 	svcpl	0x0043554e
    3324:	3131205f 	teqcc	r1, pc, asr r0
    3328:	485f5f00 	ldmdami	pc, {r8, r9, sl, fp, ip, lr}^	; <UNPREDICTABLE>
    332c:	5f455641 	svcpl	0x00455641
    3330:	43455053 	movtmi	r5, #20563	; 0x5053
    3334:	54414c55 	strbpl	r4, [r1], #-3157	; 0xfffff3ab
    3338:	5f4e4f49 	svcpl	0x004e4f49
    333c:	45464153 	strbmi	r4, [r6, #-339]	; 0xfffffead
    3340:	4c41565f 	mcrrmi	6, 5, r5, r1, cr15
    3344:	31204555 			; <UNDEFINED> instruction: 0x31204555
    3348:	43324900 	teqmi	r2, #0, 18
    334c:	3152535f 	cmpcc	r2, pc, asr r3
    3350:	4d49545f 	cfstrdmi	mvd5, [r9, #-380]	; 0xfffffe84
    3354:	54554f45 	ldrbpl	r4, [r5], #-3909	; 0xfffff0bb
    3358:	43324920 	teqmi	r2, #32, 18	; 0x80000
    335c:	3152535f 	cmpcc	r2, pc, asr r3
    3360:	4d49545f 	cfstrdmi	mvd5, [r9, #-380]	; 0xfffffe84
    3364:	54554f45 	ldrbpl	r4, [r5], #-3909	; 0xfffff0bb
    3368:	6b734d5f 	blvs	1cd68ec <_Min_Stack_Size+0x1cd64ec>
    336c:	43324900 	teqmi	r2, #0, 18
    3370:	3252535f 	subscc	r5, r2, #2080374785	; 0x7c000001
    3374:	424d535f 	submi	r5, sp, #2080374785	; 0x7c000001
    3378:	54534f48 	ldrbpl	r4, [r3], #-3912	; 0xfffff0b8
    337c:	6b734d5f 	blvs	1cd6900 <_Min_Stack_Size+0x1cd6500>
    3380:	78302820 	ldmdavc	r0!, {r5, fp, sp}
    3384:	204c5531 	subcs	r5, ip, r1, lsr r5
    3388:	49203c3c 	stmdbmi	r0!, {r2, r3, r4, r5, sl, fp, ip, sp}
    338c:	535f4332 	cmppl	pc, #-939524096	; 0xc8000000
    3390:	535f3252 	cmppl	pc, #536870917	; 0x20000005
    3394:	4f48424d 	svcmi	0x0048424d
    3398:	505f5453 	subspl	r5, pc, r3, asr r4	; <UNPREDICTABLE>
    339c:	0029736f 	eoreq	r7, r9, pc, ror #6
    33a0:	4349564e 	movtmi	r5, #38478	; 0x964e
    33a4:	4553495f 	ldrbmi	r4, [r3, #-2399]	; 0xfffff6a1
    33a8:	2a203152 	bcs	80f8f8 <_Min_Stack_Size+0x80f4f8>
    33ac:	6c6f7628 	stclvs	6, cr7, [pc], #-160	; 3314 <_Min_Stack_Size+0x2f14>
    33b0:	6c697461 	cfstrdvs	mvd7, [r9], #-388	; 0xfffffe7c
    33b4:	69752065 	ldmdbvs	r5!, {r0, r2, r5, r6, sp}^
    33b8:	3233746e 	eorscc	r7, r3, #1845493760	; 0x6e000000
    33bc:	2a20745f 	bcs	820540 <_Min_Stack_Size+0x820140>
    33c0:	564e2829 	strbpl	r2, [lr], -r9, lsr #16
    33c4:	425f4349 	subsmi	r4, pc, #603979777	; 0x24000001
    33c8:	20455341 	subcs	r5, r5, r1, asr #6
    33cc:	7830202b 	ldmdavc	r0!, {r0, r1, r3, r5, sp}
    33d0:	00293430 	eoreq	r3, r9, r0, lsr r4
    33d4:	49545845 	ldmdbmi	r4, {r0, r2, r6, fp, ip, lr}^
    33d8:	42503131 	subsmi	r3, r0, #1073741836	; 0x4000000c
    33dc:	28203131 	stmdacs	r0!, {r0, r4, r5, r8, ip, sp}
    33e0:	49545845 	ldmdbmi	r4, {r0, r2, r6, fp, ip, lr}^
    33e4:	70614d5f 	rsbvc	r4, r1, pc, asr sp
    33e8:	676e6970 			; <UNDEFINED> instruction: 0x676e6970
    33ec:	7b29745f 	blvc	a60570 <_Min_Stack_Size+0xa60170>
    33f0:	49545845 	ldmdbmi	r4, {r0, r2, r6, fp, ip, lr}^
    33f4:	202c3131 	eorcs	r3, ip, r1, lsr r1
    33f8:	4f495047 	svcmi	0x00495047
    33fc:	47202c42 	strmi	r2, [r0, -r2, asr #24]!
    3400:	5f4f4950 	svcpl	0x004f4950
    3404:	5f4e4950 	svcpl	0x004e4950
    3408:	202c3131 	eorcs	r3, ip, r1, lsr r1
    340c:	49545845 	ldmdbmi	r4, {r0, r2, r6, fp, ip, lr}^
    3410:	495f3131 	ldmdbmi	pc, {r0, r4, r5, r8, ip, sp}^	; <UNPREDICTABLE>
    3414:	007d5152 	rsbseq	r5, sp, r2, asr r1
    3418:	4f4c5f5f 	svcmi	0x004c5f5f
    341c:	575f474e 	ldrbpl	r4, [pc, -lr, asr #14]
    3420:	48544449 	ldmdami	r4, {r0, r3, r6, sl, lr}^
    3424:	33205f5f 			; <UNDEFINED> instruction: 0x33205f5f
    3428:	5f5f0032 	svcpl	0x005f0032
    342c:	5f544c46 	svcpl	0x00544c46
    3430:	5f58414d 	svcpl	0x0058414d
    3434:	2e33205f 	mrccs	0, 1, r2, cr3, cr15, {2}
    3438:	38323034 	ldmdacc	r2!, {r2, r4, r5, ip, sp}
    343c:	36343332 			; <UNDEFINED> instruction: 0x36343332
    3440:	35383336 	ldrcc	r3, [r8, #-822]!	; 0xfffffcca
    3444:	36383832 			; <UNDEFINED> instruction: 0x36383832
    3448:	38332b65 	ldmdacc	r3!, {r0, r2, r5, r6, r8, r9, fp, sp}
    344c:	43520046 	cmpmi	r2, #70	; 0x46
    3450:	53555f43 	cmppl	r5, #268	; 0x10c
    3454:	33545241 	cmpcc	r4, #268435460	; 0x10000004
    3458:	5345525f 	movtpl	r5, #21087	; 0x525f
    345c:	29285445 	stmdbcs	r8!, {r0, r2, r6, sl, ip, lr}
    3460:	43522820 	cmpmi	r2, #32, 16	; 0x200000
    3464:	413e2d43 	teqmi	lr, r3, asr #26
    3468:	52314250 	eorspl	r4, r1, #80, 4
    346c:	20525453 	subscs	r5, r2, r3, asr r4
    3470:	31203d7c 			; <UNDEFINED> instruction: 0x31203d7c
    3474:	203c3c20 	eorscs	r3, ip, r0, lsr #24
    3478:	00293831 	eoreq	r3, r9, r1, lsr r8
    347c:	4f495047 	svcmi	0x00495047
    3480:	4e49505f 	mcrmi	0, 2, r5, cr9, cr15, {2}
    3484:	2033315f 	eorscs	r3, r3, pc, asr r1
    3488:	69752828 	ldmdbvs	r5!, {r3, r5, fp, sp}^
    348c:	3631746e 	ldrtcc	r7, [r1], -lr, ror #8
    3490:	3029745f 	eorcc	r7, r9, pc, asr r4
    3494:	30303278 	eorscc	r3, r0, r8, ror r2
    3498:	5f002930 	svcpl	0x00002930
    349c:	5246555f 	subpl	r5, r6, #398458880	; 0x17c00000
    34a0:	5f544341 	svcpl	0x00544341
    34a4:	49535045 	ldmdbmi	r3, {r0, r2, r6, ip, lr}^
    34a8:	5f4e4f4c 	svcpl	0x004e4f4c
    34ac:	7830205f 	ldmdavc	r0!, {r0, r1, r2, r3, r4, r6, sp}
    34b0:	312d5031 			; <UNDEFINED> instruction: 0x312d5031
    34b4:	00525536 	subseq	r5, r2, r6, lsr r5
    34b8:	43575f5f 	cmpmi	r7, #380	; 0x17c
    34bc:	5f524148 	svcpl	0x00524148
    34c0:	5f4e494d 	svcpl	0x004e494d
    34c4:	5530205f 	ldrpl	r2, [r0, #-95]!	; 0xffffffa1
    34c8:	555f5f00 	ldrbpl	r5, [pc, #-3840]	; 25d0 <_Min_Stack_Size+0x21d0>
    34cc:	495f5151 	ldmdbmi	pc, {r0, r4, r6, r8, ip, lr}^	; <UNPREDICTABLE>
    34d0:	5f544942 	svcpl	0x00544942
    34d4:	0030205f 	eorseq	r2, r0, pc, asr r0
    34d8:	43475f5f 	movtmi	r5, #32607	; 0x7f5f
    34dc:	54415f43 	strbpl	r5, [r1], #-3907	; 0xfffff0bd
    34e0:	43494d4f 	movtmi	r4, #40271	; 0x9d4f
    34e4:	4e4f4c5f 	mcrmi	12, 2, r4, cr15, cr15, {2}
    34e8:	4f4c5f47 	svcmi	0x004c5f47
    34ec:	465f4b43 	ldrbmi	r4, [pc], -r3, asr #22
    34f0:	20454552 	subcs	r4, r5, r2, asr r5
    34f4:	5f5f0032 	svcpl	0x005f0032
    34f8:	43414c55 	movtmi	r4, #7253	; 0x1c55
    34fc:	5f4d5543 	svcpl	0x004d5543
    3500:	5f4e494d 	svcpl	0x004e494d
    3504:	2e30205f 	mrccs	0, 1, r2, cr0, cr15, {2}
    3508:	4b4c5530 	blmi	13189d0 <_Min_Stack_Size+0x13185d0>
    350c:	4c5f5f00 	mrrcmi	15, 0, r5, pc, cr0	; <UNPREDICTABLE>
    3510:	5f4c4244 	svcpl	0x004c4244
    3514:	5f58414d 	svcpl	0x0058414d
    3518:	2e31205f 	mrccs	0, 1, r2, cr1, cr15, {2}
    351c:	36373937 			; <UNDEFINED> instruction: 0x36373937
    3520:	33313339 	teqcc	r1, #-469762048	; 0xe4000000
    3524:	32363834 	eorscc	r3, r6, #52, 16	; 0x340000
    3528:	37353133 			; <UNDEFINED> instruction: 0x37353133
    352c:	30332b65 	eorscc	r2, r3, r5, ror #22
    3530:	5f004c38 	svcpl	0x00004c38
    3534:	4d52415f 	ldfmie	f4, [r2, #-380]	; 0xfffffe84
    3538:	4352415f 	cmpmi	r2, #-1073741801	; 0xc0000017
    353c:	00372048 	eorseq	r2, r7, r8, asr #32
    3540:	5f44434c 	svcpl	0x0044434c
    3544:	53525543 	cmppl	r2, #281018368	; 0x10c00000
    3548:	4d5f524f 	lfmmi	f5, 2, [pc, #-316]	; 3414 <_Min_Stack_Size+0x3014>
    354c:	5f45564f 	svcpl	0x0045564f
    3550:	46494853 			; <UNDEFINED> instruction: 0x46494853
    3554:	49525f54 	ldmdbmi	r2, {r2, r4, r6, r8, r9, sl, fp, ip, lr}^
    3558:	20544847 	subscs	r4, r4, r7, asr #16
    355c:	34317830 	ldrtcc	r7, [r1], #-2096	; 0xfffff7d0
    3560:	54584500 	ldrbpl	r4, [r8], #-1280	; 0xfffffb00
    3564:	50343149 	eorspl	r3, r4, r9, asr #2
    3568:	20343144 	eorscs	r3, r4, r4, asr #2
    356c:	54584528 	ldrbpl	r4, [r8], #-1320	; 0xfffffad8
    3570:	614d5f49 	cmpvs	sp, r9, asr #30
    3574:	6e697070 	mcrvs	0, 3, r7, cr9, cr0, {3}
    3578:	29745f67 	ldmdbcs	r4!, {r0, r1, r2, r5, r6, r8, r9, sl, fp, ip, lr}^
    357c:	5458457b 	ldrbpl	r4, [r8], #-1403	; 0xfffffa85
    3580:	2c343149 	ldfcss	f3, [r4], #-292	; 0xfffffedc
    3584:	49504720 	ldmdbmi	r0, {r5, r8, r9, sl, lr}^
    3588:	202c444f 	eorcs	r4, ip, pc, asr #8
    358c:	4f495047 	svcmi	0x00495047
    3590:	4e49505f 	mcrmi	0, 2, r5, cr9, cr15, {2}
    3594:	2c34315f 	ldfcss	f3, [r4], #-380	; 0xfffffe84
    3598:	54584520 	ldrbpl	r4, [r8], #-1312	; 0xfffffae0
    359c:	5f343149 	svcpl	0x00343149
    35a0:	7d515249 	lfmvc	f5, 2, [r1, #-292]	; 0xfffffedc
    35a4:	43324900 	teqmi	r2, #0, 18
    35a8:	3252435f 	subscc	r4, r2, #2080374785	; 0x7c000001
    35ac:	414d445f 	cmpmi	sp, pc, asr r4
    35b0:	4d5f4e45 	ldclmi	14, cr4, [pc, #-276]	; 34a4 <_Min_Stack_Size+0x30a4>
    35b4:	28206b73 	stmdacs	r0!, {r0, r1, r4, r5, r6, r8, r9, fp, sp, lr}
    35b8:	55317830 	ldrpl	r7, [r1, #-2096]!	; 0xfffff7d0
    35bc:	3c3c204c 	ldccc	0, cr2, [ip], #-304	; 0xfffffed0
    35c0:	43324920 	teqmi	r2, #32, 18	; 0x80000
    35c4:	3252435f 	subscc	r4, r2, #2080374785	; 0x7c000001
    35c8:	414d445f 	cmpmi	sp, pc, asr r4
    35cc:	505f4e45 	subspl	r4, pc, r5, asr #28
    35d0:	0029736f 	eoreq	r7, r9, pc, ror #6
    35d4:	49545845 	ldmdbmi	r4, {r0, r2, r6, fp, ip, lr}^
    35d8:	36435036 			; <UNDEFINED> instruction: 0x36435036
    35dc:	58452820 	stmdapl	r5, {r5, fp, sp}^
    35e0:	4d5f4954 	vldrmi.16	s9, [pc, #-168]	; 3540 <_Min_Stack_Size+0x3140>	; <UNPREDICTABLE>
    35e4:	69707061 	ldmdbvs	r0!, {r0, r5, r6, ip, sp, lr}^
    35e8:	745f676e 	ldrbvc	r6, [pc], #-1902	; 35f0 <_Min_Stack_Size+0x31f0>
    35ec:	58457b29 	stmdapl	r5, {r0, r3, r5, r8, r9, fp, ip, sp, lr}^
    35f0:	2c364954 			; <UNDEFINED> instruction: 0x2c364954
    35f4:	49504720 	ldmdbmi	r0, {r5, r8, r9, sl, lr}^
    35f8:	202c434f 	eorcs	r4, ip, pc, asr #6
    35fc:	4f495047 	svcmi	0x00495047
    3600:	4e49505f 	mcrmi	0, 2, r5, cr9, cr15, {2}
    3604:	202c365f 	eorcs	r3, ip, pc, asr r6
    3608:	49545845 	ldmdbmi	r4, {r0, r2, r6, fp, ip, lr}^
    360c:	52495f36 	subpl	r5, r9, #54, 30	; 0xd8
    3610:	49007d51 	stmdbmi	r0, {r0, r4, r6, r8, sl, fp, ip, sp, lr}
    3614:	435f4332 	cmpmi	pc, #-939524096	; 0xc8000000
    3618:	465f3252 			; <UNDEFINED> instruction: 0x465f3252
    361c:	5f514552 	svcpl	0x00514552
    3620:	20736f50 	rsbscs	r6, r3, r0, asr pc
    3624:	29553028 	ldmdbcs	r5, {r3, r5, ip, sp}^
    3628:	43435200 	movtmi	r5, #12800	; 0x3200
    362c:	4950535f 	ldmdbmi	r0, {r0, r1, r2, r3, r4, r6, r8, r9, ip, lr}^
    3630:	4c435f31 	mcrrmi	15, 3, r5, r3, cr1
    3634:	49445f4b 	stmdbmi	r4, {r0, r1, r3, r6, r8, r9, sl, fp, ip, lr}^
    3638:	43202928 			; <UNDEFINED> instruction: 0x43202928
    363c:	5241454c 	subpl	r4, r1, #76, 10	; 0x13000000
    3640:	5449425f 	strbpl	r4, [r9], #-607	; 0xfffffda1
    3644:	43435228 	movtmi	r5, #12840	; 0x3228
    3648:	50413e2d 	subpl	r3, r1, sp, lsr #28
    364c:	4e453242 	cdpmi	2, 4, cr3, cr5, cr2, {2}
    3650:	32312c52 	eorscc	r2, r1, #20992	; 0x5200
    3654:	5f5f0029 	svcpl	0x005f0029
    3658:	5f4d5241 	svcpl	0x004d5241
    365c:	54414546 	strbpl	r4, [r1], #-1350	; 0xfffffaba
    3660:	5f455255 	svcpl	0x00455255
    3664:	45534d43 	ldrbmi	r4, [r3, #-3395]	; 0xfffff2bd
    3668:	54584500 	ldrbpl	r4, [r8], #-1280	; 0xfffffb00
    366c:	42503049 	subsmi	r3, r0, #73	; 0x49
    3670:	45282030 	strmi	r2, [r8, #-48]!	; 0xffffffd0
    3674:	5f495458 	svcpl	0x00495458
    3678:	7070614d 	rsbsvc	r6, r0, sp, asr #2
    367c:	5f676e69 	svcpl	0x00676e69
    3680:	457b2974 	ldrbmi	r2, [fp, #-2420]!	; 0xfffff68c
    3684:	30495458 	subcc	r5, r9, r8, asr r4
    3688:	5047202c 	subpl	r2, r7, ip, lsr #32
    368c:	2c424f49 	mcrrcs	15, 4, r4, r2, cr9
    3690:	49504720 	ldmdbmi	r0, {r5, r8, r9, sl, lr}^
    3694:	49505f4f 	ldmdbmi	r0, {r0, r1, r2, r3, r6, r8, r9, sl, fp, ip, lr}^
    3698:	2c305f4e 	ldccs	15, cr5, [r0], #-312	; 0xfffffec8
    369c:	54584520 	ldrbpl	r4, [r8], #-1312	; 0xfffffae0
    36a0:	495f3049 	ldmdbmi	pc, {r0, r3, r6, ip, sp}^	; <UNPREDICTABLE>
    36a4:	007d5152 	rsbseq	r5, sp, r2, asr r1
    36a8:	5f433249 	svcpl	0x00433249
    36ac:	5f315243 	svcpl	0x00315243
    36b0:	20534f50 	subscs	r4, r3, r0, asr pc
    36b4:	5f433249 	svcpl	0x00433249
    36b8:	5f315243 	svcpl	0x00315243
    36bc:	5f534f50 	svcpl	0x00534f50
    36c0:	006b734d 	rsbeq	r7, fp, sp, asr #6
    36c4:	5f433249 	svcpl	0x00433249
    36c8:	5f315243 	svcpl	0x00315243
    36cc:	43474e45 	movtmi	r4, #32325	; 0x7e45
    36d0:	736f505f 	cmnvc	pc, #95	; 0x5f
    36d4:	55362820 	ldrpl	r2, [r6, #-2080]!	; 0xfffff7e0
    36d8:	5f5f0029 	svcpl	0x005f0029
    36dc:	4c42444c 	cfstrdmi	mvd4, [r2], {76}	; 0x4c
    36e0:	5341485f 	movtpl	r4, #6239	; 0x185f
    36e4:	4955515f 	ldmdbmi	r5, {r0, r1, r2, r3, r4, r6, r8, ip, lr}^
    36e8:	4e5f5445 	cdpmi	4, 5, cr5, cr15, cr5, {2}
    36ec:	5f5f4e41 	svcpl	0x005f4e41
    36f0:	5f003120 	svcpl	0x00003120
    36f4:	4e4f4c5f 	mcrmi	12, 2, r4, cr15, cr15, {2}
    36f8:	4f4c5f47 	svcmi	0x004c5f47
    36fc:	575f474e 	ldrbpl	r4, [pc, -lr, asr #14]
    3700:	48544449 	ldmdami	r4, {r0, r3, r6, sl, lr}^
    3704:	36205f5f 	qsaxcc	r5, r0, pc	; <UNPREDICTABLE>
    3708:	32490034 	subcc	r0, r9, #52	; 0x34
    370c:	414f5f43 	cmpmi	pc, r3, asr #30
    3710:	455f3252 	ldrbmi	r3, [pc, #-594]	; 34c6 <_Min_Stack_Size+0x30c6>
    3714:	4155444e 	cmpmi	r5, lr, asr #8
    3718:	734d5f4c 	movtvc	r5, #57164	; 0xdf4c
    371c:	3028206b 	eorcc	r2, r8, fp, rrx
    3720:	4c553178 	ldfmie	f3, [r5], {120}	; 0x78
    3724:	203c3c20 	eorscs	r3, ip, r0, lsr #24
    3728:	5f433249 	svcpl	0x00433249
    372c:	3252414f 	subscc	r4, r2, #-1073741805	; 0xc0000013
    3730:	444e455f 	strbmi	r4, [lr], #-1375	; 0xfffffaa1
    3734:	5f4c4155 	svcpl	0x004c4155
    3738:	29736f50 	ldmdbcs	r3!, {r4, r6, r8, r9, sl, fp, sp, lr}^
    373c:	49504700 	ldmdbmi	r0, {r8, r9, sl, lr}^
    3740:	49505f4f 	ldmdbmi	r0, {r0, r1, r2, r3, r6, r8, r9, sl, fp, ip, lr}^
    3744:	30315f4e 	eorscc	r5, r1, lr, asr #30
    3748:	75282820 	strvc	r2, [r8, #-2080]!	; 0xfffff7e0
    374c:	31746e69 	cmncc	r4, r9, ror #28
    3750:	29745f36 	ldmdbcs	r4!, {r1, r2, r4, r5, r8, r9, sl, fp, ip, lr}^
    3754:	34307830 	ldrtcc	r7, [r0], #-2096	; 0xfffff7d0
    3758:	00293030 	eoreq	r3, r9, r0, lsr r0
    375c:	49555f5f 	ldmdbmi	r5, {r0, r1, r2, r3, r4, r6, r8, r9, sl, fp, ip, lr}^
    3760:	465f544e 	ldrbmi	r5, [pc], -lr, asr #8
    3764:	36545341 	ldrbcc	r5, [r4], -r1, asr #6
    3768:	414d5f34 	cmpmi	sp, r4, lsr pc
    376c:	205f5f58 	subscs	r5, pc, r8, asr pc	; <UNPREDICTABLE>
    3770:	66667830 			; <UNDEFINED> instruction: 0x66667830
    3774:	66666666 	strbtvs	r6, [r6], -r6, ror #12
    3778:	66666666 	strbtvs	r6, [r6], -r6, ror #12
    377c:	66666666 	strbtvs	r6, [r6], -r6, ror #12
    3780:	4c556666 	mrrcmi	6, 6, r6, r5, cr6
    3784:	5f5f004c 	svcpl	0x005f004c
    3788:	5f4d5241 	svcpl	0x004d5241
    378c:	5f005046 	svcpl	0x00005046
    3790:	5f41485f 	svcpl	0x0041485f
    3794:	54494249 	strbpl	r4, [r9], #-585	; 0xfffffdb7
    3798:	38205f5f 	stmdacc	r0!, {r0, r1, r2, r3, r4, r6, r8, r9, sl, fp, ip, lr}
    379c:	49564e00 	ldmdbmi	r6, {r9, sl, fp, lr}^
    37a0:	52495f43 	subpl	r5, r9, #268	; 0x10c
    37a4:	33325f51 	teqcc	r2, #324	; 0x144
    37a8:	5458455f 	ldrbpl	r4, [r8], #-1375	; 0xfffffaa1
    37ac:	395f3549 	ldmdbcc	pc, {r0, r3, r6, r8, sl, ip, sp}^	; <UNPREDICTABLE>
    37b0:	616e455f 	cmnvs	lr, pc, asr r5
    37b4:	28656c62 	stmdacs	r5!, {r1, r5, r6, sl, fp, sp, lr}^
    37b8:	4e282029 	cdpmi	0, 2, cr2, cr8, cr9, {1}
    37bc:	5f434956 	svcpl	0x00434956
    37c0:	52455349 	subpl	r5, r5, #603979777	; 0x24000001
    37c4:	3d7c2030 	ldclcc	0, cr2, [ip, #-192]!	; 0xffffff40
    37c8:	3c3c3120 	ldfccs	f3, [ip], #-128	; 0xffffff80
    37cc:	00293332 	eoreq	r3, r9, r2, lsr r3
    37d0:	4e495f5f 	mcrmi	15, 2, r5, cr9, cr15, {2}
    37d4:	52545054 	subspl	r5, r4, #84	; 0x54
    37d8:	4449575f 	strbmi	r5, [r9], #-1887	; 0xfffff8a1
    37dc:	5f5f4854 	svcpl	0x005f4854
    37e0:	00323320 	eorseq	r3, r2, r0, lsr #6
    37e4:	43475f5f 	movtmi	r5, #32607	; 0x7f5f
    37e8:	54415f43 	strbpl	r5, [r1], #-3907	; 0xfffff0bd
    37ec:	43494d4f 	movtmi	r4, #40271	; 0x9d4f
    37f0:	4f4c4c5f 	svcmi	0x004c4c5f
    37f4:	4c5f474e 	mrrcmi	7, 4, r4, pc, cr14	; <UNPREDICTABLE>
    37f8:	5f4b434f 	svcpl	0x004b434f
    37fc:	45455246 	strbmi	r5, [r5, #-582]	; 0xfffffdba
    3800:	45003120 	strmi	r3, [r0, #-288]	; 0xfffffee0
    3804:	5f495458 	svcpl	0x00495458
    3808:	75706e49 	ldrbvc	r6, [r0, #-3657]!	; 0xfffff1b7
    380c:	6e694c74 	mcrvs	12, 3, r4, cr9, cr4, {3}
    3810:	6d754e65 	ldclvs	14, cr4, [r5, #-404]!	; 0xfffffe6c
    3814:	00726562 	rsbseq	r6, r2, r2, ror #10
    3818:	4c465f5f 	mcrrmi	15, 5, r5, r6, cr15
    381c:	58323354 	ldmdapl	r2!, {r2, r4, r6, r8, r9, ip, sp}
    3820:	4e494d5f 	mcrmi	13, 2, r4, cr9, cr15, {2}
    3824:	32205f5f 	eorcc	r5, r0, #380	; 0x17c
    3828:	3532322e 	ldrcc	r3, [r2, #-558]!	; 0xfffffdd2
    382c:	38333730 	ldmdacc	r3!, {r4, r5, r8, r9, sl, ip, sp}
    3830:	30353835 	eorscc	r3, r5, r5, lsr r8
    3834:	31303237 	teqcc	r0, r7, lsr r2
    3838:	332d6534 			; <UNDEFINED> instruction: 0x332d6534
    383c:	33463830 	movtcc	r3, #26672	; 0x6830
    3840:	5f007832 	svcpl	0x00007832
    3844:	544c465f 	strbpl	r4, [ip], #-1631	; 0xfffff9a1
    3848:	4d5f3436 	cfldrdmi	mvd3, [pc, #-216]	; 3778 <_Min_Stack_Size+0x3378>
    384c:	455f5841 	ldrbmi	r5, [pc, #-2113]	; 3013 <_Min_Stack_Size+0x2c13>
    3850:	5f5f5058 	svcpl	0x005f5058
    3854:	32303120 	eorscc	r3, r0, #32, 2
    3858:	6f640034 	svcvs	0x00640034
    385c:	656c6275 	strbvs	r6, [ip, #-629]!	; 0xfffffd8b
    3860:	465f5f00 	ldrbmi	r5, [pc], -r0, lsl #30
    3864:	3436544c 	ldrtcc	r5, [r6], #-1100	; 0xfffffbb4
    3868:	4e494d5f 	mcrmi	13, 2, r4, cr9, cr15, {2}
    386c:	32205f5f 	eorcc	r5, r0, #380	; 0x17c
    3870:	3532322e 	ldrcc	r3, [r2, #-558]!	; 0xfffffdd2
    3874:	38333730 	ldmdacc	r3!, {r4, r5, r8, r9, sl, ip, sp}
    3878:	30353835 	eorscc	r3, r5, r5, lsr r8
    387c:	31303237 	teqcc	r0, r7, lsr r2
    3880:	332d6534 			; <UNDEFINED> instruction: 0x332d6534
    3884:	36463830 			; <UNDEFINED> instruction: 0x36463830
    3888:	58450034 	stmdapl	r5, {r2, r4, r5}^
    388c:	50374954 	eorspl	r4, r7, r4, asr r9
    3890:	28203742 	stmdacs	r0!, {r1, r6, r8, r9, sl, ip, sp}
    3894:	49545845 	ldmdbmi	r4, {r0, r2, r6, fp, ip, lr}^
    3898:	70614d5f 	rsbvc	r4, r1, pc, asr sp
    389c:	676e6970 			; <UNDEFINED> instruction: 0x676e6970
    38a0:	7b29745f 	blvc	a60a24 <_Min_Stack_Size+0xa60624>
    38a4:	49545845 	ldmdbmi	r4, {r0, r2, r6, fp, ip, lr}^
    38a8:	47202c37 			; <UNDEFINED> instruction: 0x47202c37
    38ac:	424f4950 	submi	r4, pc, #80, 18	; 0x140000
    38b0:	5047202c 	subpl	r2, r7, ip, lsr #32
    38b4:	505f4f49 	subspl	r4, pc, r9, asr #30
    38b8:	375f4e49 	ldrbcc	r4, [pc, -r9, asr #28]
    38bc:	5845202c 	stmdapl	r5, {r2, r3, r5, sp}^
    38c0:	5f374954 	svcpl	0x00374954
    38c4:	7d515249 	lfmvc	f5, 2, [r1, #-292]	; 0xfffffedc
    38c8:	42504100 	subsmi	r4, r0, #0, 2
    38cc:	54535232 	ldrbpl	r5, [r3], #-562	; 0xfffffdce
    38d0:	32490052 	subcc	r0, r9, #82	; 0x52
    38d4:	52535f43 	subspl	r5, r3, #268	; 0x10c
    38d8:	55425f32 	strbpl	r5, [r2, #-3890]	; 0xfffff0ce
    38dc:	505f5953 	subspl	r5, pc, r3, asr r9	; <UNPREDICTABLE>
    38e0:	2820736f 	stmdacs	r0!, {r0, r1, r2, r3, r5, r6, r8, r9, ip, sp, lr}
    38e4:	00295531 	eoreq	r5, r9, r1, lsr r5
    38e8:	52415f5f 	subpl	r5, r1, #380	; 0x17c
    38ec:	52415f4d 	subpl	r5, r1, #308	; 0x134
    38f0:	505f4843 	subspl	r4, pc, r3, asr #16
    38f4:	49464f52 	stmdbmi	r6, {r1, r4, r6, r8, r9, sl, fp, lr}^
    38f8:	5f00454c 	svcpl	0x0000454c
    38fc:	544e495f 	strbpl	r4, [lr], #-2399	; 0xfffff6a1
    3900:	545f3436 	ldrbpl	r3, [pc], #-1078	; 3908 <_Min_Stack_Size+0x3508>
    3904:	5f455059 	svcpl	0x00455059
    3908:	6f6c205f 	svcvs	0x006c205f
    390c:	6c20676e 	stcvs	7, cr6, [r0], #-440	; 0xfffffe48
    3910:	20676e6f 	rsbcs	r6, r7, pc, ror #28
    3914:	00746e69 	rsbseq	r6, r4, r9, ror #28
    3918:	5f434352 	svcpl	0x00434352
    391c:	52415355 	subpl	r5, r1, #1409286145	; 0x54000001
    3920:	435f3354 	cmpmi	pc, #84, 6	; 0x50000001
    3924:	445f4b4c 	ldrbmi	r4, [pc], #-2892	; 392c <_Min_Stack_Size+0x352c>
    3928:	20292849 	eorcs	r2, r9, r9, asr #16
    392c:	41454c43 	cmpmi	r5, r3, asr #24
    3930:	49425f52 	stmdbmi	r2, {r1, r4, r6, r8, r9, sl, fp, ip, lr}^
    3934:	43522854 	cmpmi	r2, #84, 16	; 0x540000
    3938:	413e2d43 	teqmi	lr, r3, asr #26
    393c:	45314250 	ldrmi	r4, [r1, #-592]!	; 0xfffffdb0
    3940:	312c524e 			; <UNDEFINED> instruction: 0x312c524e
    3944:	5f002938 	svcpl	0x00002938
    3948:	4148435f 	cmpmi	r8, pc, asr r3
    394c:	49425f52 	stmdbmi	r2, {r1, r4, r6, r8, r9, sl, fp, ip, lr}^
    3950:	205f5f54 	subscs	r5, pc, r4, asr pc	; <UNPREDICTABLE>
    3954:	434c0038 	movtmi	r0, #49208	; 0xc038
    3958:	4e455f44 	cdpmi	15, 4, cr5, cr5, cr4, {2}
    395c:	5f595254 	svcpl	0x00595254
    3960:	45444f4d 	strbmi	r4, [r4, #-3917]	; 0xfffff0b3
    3964:	4345445f 	movtmi	r4, #21599	; 0x545f
    3968:	4948535f 	stmdbmi	r8, {r0, r1, r2, r3, r4, r6, r8, r9, ip, lr}^
    396c:	4f5f5446 	svcmi	0x005f5446
    3970:	7830204e 	ldmdavc	r0!, {r1, r2, r3, r6, sp}
    3974:	45003530 	strmi	r3, [r0, #-1328]	; 0xfffffad0
    3978:	5f495458 	svcpl	0x00495458
    397c:	004e4950 	subeq	r4, lr, r0, asr r9
    3980:	4f495047 	svcmi	0x00495047
    3984:	434f4c5f 	movtmi	r4, #64607	; 0xfc5f
    3988:	52455f4b 	subpl	r5, r5, #300	; 0x12c
    398c:	20524f52 	subscs	r4, r2, r2, asr pc
    3990:	5f005531 	svcpl	0x00005531
    3994:	544c465f 	strbpl	r4, [ip], #-1631	; 0xfffff9a1
    3998:	4441525f 	strbmi	r5, [r1], #-607	; 0xfffffda1
    399c:	5f5f5849 	svcpl	0x005f5849
    39a0:	52003220 	andpl	r3, r0, #32, 4
    39a4:	555f4343 	ldrbpl	r4, [pc, #-835]	; 3669 <_Min_Stack_Size+0x3269>
    39a8:	54524153 	ldrbpl	r4, [r2], #-339	; 0xfffffead
    39ac:	4c435f33 	mcrrmi	15, 3, r5, r3, cr3
    39b0:	4e455f4b 	cdpmi	15, 4, cr5, cr5, cr11, {2}
    39b4:	53202928 			; <UNDEFINED> instruction: 0x53202928
    39b8:	425f5445 	subsmi	r5, pc, #1157627904	; 0x45000000
    39bc:	52285449 	eorpl	r5, r8, #1224736768	; 0x49000000
    39c0:	3e2d4343 	cdpcc	3, 2, cr4, cr13, cr3, {2}
    39c4:	31425041 	cmpcc	r2, r1, asr #32
    39c8:	2c524e45 	mrrccs	14, 4, r4, r2, cr5
    39cc:	00293831 	eoreq	r3, r9, r1, lsr r8
    39d0:	49545845 	ldmdbmi	r4, {r0, r2, r6, fp, ip, lr}^
    39d4:	33435033 	movtcc	r5, #12339	; 0x3033
    39d8:	58452820 	stmdapl	r5, {r5, fp, sp}^
    39dc:	4d5f4954 	vldrmi.16	s9, [pc, #-168]	; 393c <_Min_Stack_Size+0x353c>	; <UNPREDICTABLE>
    39e0:	69707061 	ldmdbvs	r0!, {r0, r5, r6, ip, sp, lr}^
    39e4:	745f676e 	ldrbvc	r6, [pc], #-1902	; 39ec <_Min_Stack_Size+0x35ec>
    39e8:	58457b29 	stmdapl	r5, {r0, r3, r5, r8, r9, fp, ip, sp, lr}^
    39ec:	2c334954 			; <UNDEFINED> instruction: 0x2c334954
    39f0:	49504720 	ldmdbmi	r0, {r5, r8, r9, sl, lr}^
    39f4:	202c434f 	eorcs	r4, ip, pc, asr #6
    39f8:	4f495047 	svcmi	0x00495047
    39fc:	4e49505f 	mcrmi	0, 2, r5, cr9, cr15, {2}
    3a00:	202c335f 	eorcs	r3, ip, pc, asr r3
    3a04:	49545845 	ldmdbmi	r4, {r0, r2, r6, fp, ip, lr}^
    3a08:	52495f33 	subpl	r5, r9, #51, 30	; 0xcc
    3a0c:	47007d51 	smlsdmi	r0, r1, sp, r7
    3a10:	414f4950 	cmpmi	pc, r0, asr r9	; <UNPREDICTABLE>
    3a14:	5341425f 	movtpl	r4, #4703	; 0x125f
    3a18:	78302045 	ldmdavc	r0!, {r0, r2, r6, sp}
    3a1c:	31303034 	teqcc	r0, r4, lsr r0
    3a20:	30303830 	eorscc	r3, r0, r0, lsr r8
    3a24:	41004c55 	tstmi	r0, r5, asr ip
    3a28:	425f4248 	subsmi	r4, pc, #72, 4	; 0x80000004
    3a2c:	425f5355 	subsmi	r5, pc, #1409286145	; 0x54000001
    3a30:	20455341 	subcs	r5, r5, r1, asr #6
    3a34:	52455028 	subpl	r5, r5, #40	; 0x28
    3a38:	45485049 	strbmi	r5, [r8, #-73]	; 0xffffffb7
    3a3c:	534c4152 	movtpl	r4, #49490	; 0xc152
    3a40:	5341425f 	movtpl	r4, #4703	; 0x125f
    3a44:	202b2045 	eorcs	r2, fp, r5, asr #32
    3a48:	30327830 	eorscc	r7, r2, r0, lsr r8
    3a4c:	29303030 	ldmdbcs	r0!, {r4, r5, ip, sp}
    3a50:	555f5f00 	ldrbpl	r5, [pc, #-3840]	; 2b58 <_Min_Stack_Size+0x2758>
    3a54:	43415246 	movtmi	r5, #4678	; 0x1246
    3a58:	414d5f54 	cmpmi	sp, r4, asr pc
    3a5c:	205f5f58 	subscs	r5, pc, r8, asr pc	; <UNPREDICTABLE>
    3a60:	46465830 			; <UNDEFINED> instruction: 0x46465830
    3a64:	2d504646 	ldclcs	6, cr4, [r0, #-280]	; 0xfffffee8
    3a68:	52553631 	subspl	r3, r5, #51380224	; 0x3100000
    3a6c:	49564e00 	ldmdbmi	r6, {r9, sl, fp, lr}^
    3a70:	52495f43 	subpl	r5, r9, #268	; 0x10c
    3a74:	5f383351 	svcpl	0x00383351
    3a78:	52415355 	subpl	r5, r1, #1409286145	; 0x54000001
    3a7c:	455f3254 	ldrbmi	r3, [pc, #-596]	; 3830 <_Min_Stack_Size+0x3430>
    3a80:	6c62616e 	stfvse	f6, [r2], #-440	; 0xfffffe48
    3a84:	20292865 	eorcs	r2, r9, r5, ror #16
    3a88:	49564e28 	ldmdbmi	r6, {r3, r5, r9, sl, fp, lr}^
    3a8c:	53495f43 	movtpl	r5, #40771	; 0x9f43
    3a90:	20315245 	eorscs	r5, r1, r5, asr #4
    3a94:	31203d7c 			; <UNDEFINED> instruction: 0x31203d7c
    3a98:	55283c3c 	strpl	r3, [r8, #-3132]!	; 0xfffff3c4
    3a9c:	54524153 	ldrbpl	r4, [r2], #-339	; 0xfffffead
    3aa0:	52495f32 	subpl	r5, r9, #50, 30	; 0xc8
    3aa4:	202d2051 	eorcs	r2, sp, r1, asr r0
    3aa8:	29293233 	stmdbcs	r9!, {r0, r1, r4, r5, r9, ip, sp}
    3aac:	43324900 	teqmi	r2, #0, 18
    3ab0:	3152435f 	cmpcc	r2, pc, asr r3
    3ab4:	534f505f 	movtpl	r5, #61535	; 0xf05f
    3ab8:	736f505f 	cmnvc	pc, #95	; 0x5f
    3abc:	31312820 	teqcc	r1, r0, lsr #16
    3ac0:	5f002955 	svcpl	0x00002955
    3ac4:	5246535f 	subpl	r5, r6, #2080374785	; 0x7c000001
    3ac8:	5f544341 	svcpl	0x00544341
    3acc:	54494249 	strbpl	r4, [r9], #-585	; 0xfffffdb7
    3ad0:	30205f5f 	eorcc	r5, r0, pc, asr pc
    3ad4:	54584500 	ldrbpl	r4, [r8], #-1280	; 0xfffffb00
    3ad8:	50323149 	eorspl	r3, r2, r9, asr #2
    3adc:	20323144 	eorscs	r3, r2, r4, asr #2
    3ae0:	54584528 	ldrbpl	r4, [r8], #-1320	; 0xfffffad8
    3ae4:	614d5f49 	cmpvs	sp, r9, asr #30
    3ae8:	6e697070 	mcrvs	0, 3, r7, cr9, cr0, {3}
    3aec:	29745f67 	ldmdbcs	r4!, {r0, r1, r2, r5, r6, r8, r9, sl, fp, ip, lr}^
    3af0:	5458457b 	ldrbpl	r4, [r8], #-1403	; 0xfffffa85
    3af4:	2c323149 	ldfcss	f3, [r2], #-292	; 0xfffffedc
    3af8:	49504720 	ldmdbmi	r0, {r5, r8, r9, sl, lr}^
    3afc:	202c444f 	eorcs	r4, ip, pc, asr #8
    3b00:	4f495047 	svcmi	0x00495047
    3b04:	4e49505f 	mcrmi	0, 2, r5, cr9, cr15, {2}
    3b08:	2c32315f 	ldfcss	f3, [r2], #-380	; 0xfffffe84
    3b0c:	54584520 	ldrbpl	r4, [r8], #-1312	; 0xfffffae0
    3b10:	5f323149 	svcpl	0x00323149
    3b14:	7d515249 	lfmvc	f5, 2, [r1, #-292]	; 0xfffffedc
    3b18:	43324900 	teqmi	r2, #0, 18
    3b1c:	3152535f 	cmpcc	r2, pc, asr r3
    3b20:	4654425f 			; <UNDEFINED> instruction: 0x4654425f
    3b24:	6b734d5f 	blvs	1cd70a8 <_Min_Stack_Size+0x1cd6ca8>
    3b28:	78302820 	ldmdavc	r0!, {r5, fp, sp}
    3b2c:	204c5531 	subcs	r5, ip, r1, lsr r5
    3b30:	49203c3c 	stmdbmi	r0!, {r2, r3, r4, r5, sl, fp, ip, sp}
    3b34:	535f4332 	cmppl	pc, #-939524096	; 0xc8000000
    3b38:	425f3152 	subsmi	r3, pc, #-2147483628	; 0x80000014
    3b3c:	505f4654 	subspl	r4, pc, r4, asr r6	; <UNPREDICTABLE>
    3b40:	0029736f 	eoreq	r7, r9, pc, ror #6
    3b44:	59425f5f 	stmdbpl	r2, {r0, r1, r2, r3, r4, r6, r8, r9, sl, fp, ip, lr}^
    3b48:	4f5f4554 	svcmi	0x005f4554
    3b4c:	52454452 	subpl	r4, r5, #1375731712	; 0x52000000
    3b50:	5f205f5f 	svcpl	0x00205f5f
    3b54:	44524f5f 	ldrbmi	r4, [r2], #-3935	; 0xfffff0a1
    3b58:	4c5f5245 	lfmmi	f5, 2, [pc], {69}	; 0x45
    3b5c:	4c545449 	cfldrdmi	mvd5, [r4], {73}	; 0x49
    3b60:	4e455f45 	cdpmi	15, 4, cr5, cr5, cr5, {2}
    3b64:	4e414944 	vmlsmi.f16	s9, s2, s8	; <UNPREDICTABLE>
    3b68:	5f005f5f 	svcpl	0x00005f5f
    3b6c:	544c465f 	strbpl	r4, [ip], #-1631	; 0xfffff9a1
    3b70:	455f3233 	ldrbmi	r3, [pc, #-563]	; 3945 <_Min_Stack_Size+0x3545>
    3b74:	4c495350 	mcrrmi	3, 5, r5, r9, cr0
    3b78:	5f5f4e4f 	svcpl	0x005f4e4f
    3b7c:	312e3120 			; <UNDEFINED> instruction: 0x312e3120
    3b80:	39303239 	ldmdbcc	r0!, {r0, r3, r4, r5, r9, ip, sp}
    3b84:	35393832 	ldrcc	r3, [r9, #-2098]!	; 0xfffff7ce
    3b88:	38373035 	ldmdacc	r7!, {r0, r2, r4, r5, ip, sp}
    3b8c:	65353231 	ldrvs	r3, [r5, #-561]!	; 0xfffffdcf
    3b90:	3346372d 	movtcc	r3, #26413	; 0x672d
    3b94:	5f5f0032 	svcpl	0x005f0032
    3b98:	5f4d5241 	svcpl	0x004d5241
    3b9c:	4e4f454e 	cdpmi	5, 4, cr4, cr15, cr14, {2}
    3ba0:	0050465f 	subseq	r4, r0, pc, asr r6
    3ba4:	53555f5f 	cmppl	r5, #380	; 0x17c
    3ba8:	55434341 	strbpl	r4, [r3, #-833]	; 0xfffffcbf
    3bac:	414d5f4d 	cmpmi	sp, sp, asr #30
    3bb0:	205f5f58 	subscs	r5, pc, r8, asr pc	; <UNPREDICTABLE>
    3bb4:	46465830 			; <UNDEFINED> instruction: 0x46465830
    3bb8:	2d504646 	ldclcs	6, cr4, [r0, #-280]	; 0xfffffee8
    3bbc:	4b485538 	blmi	12190a4 <_Min_Stack_Size+0x1218ca4>
    3bc0:	43324900 	teqmi	r2, #0, 18
    3bc4:	3252535f 	subscc	r5, r2, #2080374785	; 0x7c000001
    3bc8:	4155445f 	cmpmi	r5, pc, asr r4
    3bcc:	4920464c 	stmdbmi	r0!, {r2, r3, r6, r9, sl, lr}
    3bd0:	535f4332 	cmppl	pc, #-939524096	; 0xc8000000
    3bd4:	445f3252 	ldrbmi	r3, [pc], #-594	; 3bdc <_Min_Stack_Size+0x37dc>
    3bd8:	464c4155 			; <UNDEFINED> instruction: 0x464c4155
    3bdc:	6b734d5f 	blvs	1cd7160 <_Min_Stack_Size+0x1cd6d60>
    3be0:	54584500 	ldrbpl	r4, [r8], #-1280	; 0xfffffb00
    3be4:	5f303149 	svcpl	0x00303149
    3be8:	20515249 	subscs	r5, r1, r9, asr #4
    3bec:	45003034 	strmi	r3, [r0, #-52]	; 0xffffffcc
    3bf0:	31495458 	cmpcc	r9, r8, asr r4
    3bf4:	5f003120 	svcpl	0x00003120
    3bf8:	5246555f 	subpl	r5, r6, #398458880	; 0x17c00000
    3bfc:	5f544341 	svcpl	0x00544341
    3c00:	54494246 	strbpl	r4, [r9], #-582	; 0xfffffdba
    3c04:	31205f5f 			; <UNDEFINED> instruction: 0x31205f5f
    3c08:	5f5f0036 	svcpl	0x005f0036
    3c0c:	5f514455 	svcpl	0x00514455
    3c10:	54494246 	strbpl	r4, [r9], #-582	; 0xfffffdba
    3c14:	36205f5f 	qsaxcc	r5, r0, pc	; <UNPREDICTABLE>
    3c18:	5f5f0034 	svcpl	0x005f0034
    3c1c:	5f4c4244 	svcpl	0x004c4244
    3c20:	4d524f4e 	ldclmi	15, cr4, [r2, #-312]	; 0xfffffec8
    3c24:	58414d5f 	stmdapl	r1, {r0, r1, r2, r3, r4, r6, r8, sl, fp, lr}^
    3c28:	28205f5f 	stmdacs	r0!, {r0, r1, r2, r3, r4, r6, r8, r9, sl, fp, ip, lr}
    3c2c:	756f6428 	strbvc	r6, [pc, #-1064]!	; 380c <_Min_Stack_Size+0x340c>
    3c30:	29656c62 	stmdbcs	r5!, {r1, r5, r6, sl, fp, sp, lr}^
    3c34:	39372e31 	ldmdbcc	r7!, {r0, r4, r5, r9, sl, fp, sp}
    3c38:	33393637 	teqcc	r9, #57671680	; 0x3700000
    3c3c:	38343331 	ldmdacc	r4!, {r0, r4, r5, r8, r9, ip, sp}
    3c40:	31333236 	teqcc	r3, r6, lsr r2
    3c44:	2b653735 	blcs	1951920 <_Min_Stack_Size+0x1951520>
    3c48:	4c383033 	ldcmi	0, cr3, [r8], #-204	; 0xffffff34
    3c4c:	5f5f0029 	svcpl	0x005f0029
    3c50:	4c42444c 	cfstrdmi	mvd4, [r2], {76}	; 0x4c
    3c54:	58414d5f 	stmdapl	r1, {r0, r1, r2, r3, r4, r6, r8, sl, fp, lr}^
    3c58:	5f30315f 	svcpl	0x0030315f
    3c5c:	5f505845 	svcpl	0x00505845
    3c60:	3033205f 	eorscc	r2, r3, pc, asr r0
    3c64:	32490038 	subcc	r0, r9, #56	; 0x38
    3c68:	52535f43 	subspl	r5, r3, #268	; 0x10c
    3c6c:	45475f32 	strbmi	r5, [r7, #-3890]	; 0xfffff0ce
    3c70:	4c41434e 	mcrrmi	3, 4, r4, r1, cr14
    3c74:	3249204c 	subcc	r2, r9, #76	; 0x4c
    3c78:	52535f43 	subspl	r5, r3, #268	; 0x10c
    3c7c:	45475f32 	strbmi	r5, [r7, #-3890]	; 0xfffff0ce
    3c80:	4c41434e 	mcrrmi	3, 4, r4, r1, cr14
    3c84:	734d5f4c 	movtvc	r5, #57164	; 0xdf4c
    3c88:	5f5f006b 	svcpl	0x005f006b
    3c8c:	5f544e49 	svcpl	0x00544e49
    3c90:	54534146 	ldrbpl	r4, [r3], #-326	; 0xfffffeba
    3c94:	545f3233 	ldrbpl	r3, [pc], #-563	; 3c9c <_Min_Stack_Size+0x389c>
    3c98:	5f455059 	svcpl	0x00455059
    3c9c:	6e69205f 	mcrvs	0, 3, r2, cr9, cr15, {2}
    3ca0:	54530074 	ldrbpl	r0, [r3], #-116	; 0xffffff8c
    3ca4:	4632334d 	ldrtmi	r3, [r2], -sp, asr #6
    3ca8:	43333031 	teqmi	r3, #49	; 0x31
    3cac:	20785436 	rsbscs	r5, r8, r6, lsr r4
    3cb0:	58450031 	stmdapl	r5, {r0, r4, r5}^
    3cb4:	20364954 	eorscs	r4, r6, r4, asr r9
    3cb8:	564e0036 			; <UNDEFINED> instruction: 0x564e0036
    3cbc:	495f4349 	ldmdbmi	pc, {r0, r3, r6, r8, r9, lr}^	; <UNPREDICTABLE>
    3cc0:	395f5152 	ldmdbcc	pc, {r1, r4, r6, r8, ip, lr}^	; <UNPREDICTABLE>
    3cc4:	5458455f 	ldrbpl	r4, [r8], #-1375	; 0xfffffaa1
    3cc8:	445f3349 	ldrbmi	r3, [pc], #-841	; 3cd0 <_Min_Stack_Size+0x38d0>
    3ccc:	62617369 	rsbvs	r7, r1, #-1543503871	; 0xa4000001
    3cd0:	2928656c 	stmdbcs	r8!, {r2, r3, r5, r6, r8, sl, sp, lr}
    3cd4:	564e2820 	strbpl	r2, [lr], -r0, lsr #16
    3cd8:	495f4349 	ldmdbmi	pc, {r0, r3, r6, r8, r9, lr}^	; <UNPREDICTABLE>
    3cdc:	30524543 	subscc	r4, r2, r3, asr #10
    3ce0:	203d7c20 	eorscs	r7, sp, r0, lsr #24
    3ce4:	393c3c31 	ldmdbcc	ip!, {r0, r4, r5, sl, fp, ip, sp}
    3ce8:	58450029 	stmdapl	r5, {r0, r3, r5}^
    3cec:	5f354954 	svcpl	0x00354954
    3cf0:	20515249 	subscs	r5, r1, r9, asr #4
    3cf4:	5f003332 	svcpl	0x00003332
    3cf8:	544c465f 	strbpl	r4, [ip], #-1631	; 0xfffff9a1
    3cfc:	4e494d5f 	mcrmi	13, 2, r4, cr9, cr15, {2}
    3d00:	5058455f 	subspl	r4, r8, pc, asr r5
    3d04:	28205f5f 	stmdacs	r0!, {r0, r1, r2, r3, r4, r6, r8, r9, sl, fp, ip, lr}
    3d08:	3532312d 	ldrcc	r3, [r2, #-301]!	; 0xfffffed3
    3d0c:	5f5f0029 	svcpl	0x005f0029
    3d10:	36544c46 	ldrbcc	r4, [r4], -r6, asr #24
    3d14:	41485f34 	cmpmi	r8, r4, lsr pc
    3d18:	55515f53 	ldrbpl	r5, [r1, #-3923]	; 0xfffff0ad
    3d1c:	5f544549 	svcpl	0x00544549
    3d20:	5f4e414e 	svcpl	0x004e414e
    3d24:	0031205f 	eorseq	r2, r1, pc, asr r0
    3d28:	5f44434c 	svcpl	0x0044434c
    3d2c:	505f3244 	subspl	r3, pc, r4, asr #4
    3d30:	47204e49 	strmi	r4, [r0, -r9, asr #28]!
    3d34:	5f4f4950 	svcpl	0x004f4950
    3d38:	5f4e4950 	svcpl	0x004e4950
    3d3c:	5f5f0032 	svcpl	0x005f0032
    3d40:	43415355 	movtmi	r5, #4949	; 0x1355
    3d44:	5f4d5543 	svcpl	0x004d5543
    3d48:	54494249 	strbpl	r4, [r9], #-585	; 0xfffffdb7
    3d4c:	38205f5f 	stmdacc	r0!, {r0, r1, r2, r3, r4, r6, r8, r9, sl, fp, ip, lr}
    3d50:	43324900 	teqmi	r2, #0, 18
    3d54:	3252435f 	subscc	r4, r2, #2080374785	; 0x7c000001
    3d58:	4554495f 	ldrbmi	r4, [r4, #-2399]	; 0xfffff6a1
    3d5c:	4e455456 	mcrmi	4, 2, r5, cr5, cr6, {2}
    3d60:	6b734d5f 	blvs	1cd72e4 <_Min_Stack_Size+0x1cd6ee4>
    3d64:	78302820 	ldmdavc	r0!, {r5, fp, sp}
    3d68:	204c5531 	subcs	r5, ip, r1, lsr r5
    3d6c:	49203c3c 	stmdbmi	r0!, {r2, r3, r4, r5, sl, fp, ip, sp}
    3d70:	435f4332 	cmpmi	pc, #-939524096	; 0xc8000000
    3d74:	495f3252 	ldmdbmi	pc, {r1, r4, r6, r9, ip, sp}^	; <UNPREDICTABLE>
    3d78:	54564554 	ldrbpl	r4, [r6], #-1364	; 0xfffffaac
    3d7c:	505f4e45 	subspl	r4, pc, r5, asr #28
    3d80:	0029736f 	eoreq	r7, r9, pc, ror #6
    3d84:	5f433249 	svcpl	0x00433249
    3d88:	5f325243 	svcpl	0x00325243
    3d8c:	56455449 	strbpl	r5, [r5], -r9, asr #8
    3d90:	204e4554 	subcs	r4, lr, r4, asr r5
    3d94:	5f433249 	svcpl	0x00433249
    3d98:	5f325243 	svcpl	0x00325243
    3d9c:	56455449 	strbpl	r5, [r5], -r9, asr #8
    3da0:	5f4e4554 	svcpl	0x004e4554
    3da4:	006b734d 	rsbeq	r7, fp, sp, asr #6
    3da8:	535f534f 	cmppl	pc, #1006632961	; 0x3c000001
    3dac:	6b636174 	blvs	18dc384 <_Min_Stack_Size+0x18dbf84>
    3db0:	7a69535f 	bvc	1a58b34 <_Min_Stack_Size+0x1a58734>
    3db4:	31352065 	teqcc	r5, r5, rrx
    3db8:	5f5f0032 	svcpl	0x005f0032
    3dbc:	36544c46 	ldrbcc	r4, [r4], -r6, asr #24
    3dc0:	41485f34 	cmpmi	r8, r4, lsr pc
    3dc4:	45445f53 	strbmi	r5, [r4, #-3923]	; 0xfffff0ad
    3dc8:	4d524f4e 	ldclmi	15, cr4, [r2, #-312]	; 0xfffffec8
    3dcc:	31205f5f 			; <UNDEFINED> instruction: 0x31205f5f
    3dd0:	465f5f00 	ldrbmi	r5, [pc], -r0, lsl #30
    3dd4:	445f544c 	ldrbmi	r5, [pc], #-1100	; 3ddc <_Min_Stack_Size+0x39dc>
    3dd8:	5f5f4749 	svcpl	0x005f4749
    3ddc:	5f003620 	svcpl	0x00003620
    3de0:	4341555f 	movtmi	r5, #5471	; 0x155f
    3de4:	5f4d5543 	svcpl	0x004d5543
    3de8:	49535045 	ldmdbmi	r3, {r0, r2, r6, ip, lr}^
    3dec:	5f4e4f4c 	svcpl	0x004e4f4c
    3df0:	7830205f 	ldmdavc	r0!, {r0, r1, r2, r3, r4, r6, sp}
    3df4:	312d5031 			; <UNDEFINED> instruction: 0x312d5031
    3df8:	004b5536 	subeq	r5, fp, r6, lsr r5
    3dfc:	31433249 	cmpcc	r3, r9, asr #4
    3e00:	5341425f 	movtpl	r4, #4703	; 0x125f
    3e04:	78302045 	ldmdavc	r0!, {r0, r2, r6, sp}
    3e08:	30303034 	eorscc	r3, r0, r4, lsr r0
    3e0c:	30303435 	eorscc	r3, r0, r5, lsr r4
    3e10:	49004c55 	stmdbmi	r0, {r0, r2, r4, r6, sl, fp, lr}
    3e14:	535f4332 	cmppl	pc, #-939524096	; 0xc8000000
    3e18:	415f3152 	cmpmi	pc, r2, asr r1	; <UNPREDICTABLE>
    3e1c:	5f524444 	svcpl	0x00524444
    3e20:	206b734d 	rsbcs	r7, fp, sp, asr #6
    3e24:	31783028 	cmncc	r8, r8, lsr #32
    3e28:	3c204c55 	stccc	12, cr4, [r0], #-340	; 0xfffffeac
    3e2c:	3249203c 	subcc	r2, r9, #60	; 0x3c
    3e30:	52535f43 	subspl	r5, r3, #268	; 0x10c
    3e34:	44415f31 	strbmi	r5, [r1], #-3889	; 0xfffff0cf
    3e38:	505f5244 	subspl	r5, pc, r4, asr #4
    3e3c:	0029736f 	eoreq	r7, r9, pc, ror #6
    3e40:	4c465f5f 	mcrrmi	15, 5, r5, r6, cr15
    3e44:	56455f54 			; <UNDEFINED> instruction: 0x56455f54
    3e48:	4d5f4c41 	ldclmi	12, cr4, [pc, #-260]	; 3d4c <_Min_Stack_Size+0x394c>
    3e4c:	4f485445 	svcmi	0x00485445
    3e50:	205f5f44 	subscs	r5, pc, r4, asr #30
    3e54:	5f5f0030 	svcpl	0x005f0030
    3e58:	41484353 	cmpmi	r8, r3, asr r3
    3e5c:	414d5f52 	cmpmi	sp, r2, asr pc
    3e60:	205f5f58 	subscs	r5, pc, r8, asr pc	; <UNPREDICTABLE>
    3e64:	66377830 			; <UNDEFINED> instruction: 0x66377830
    3e68:	44434c00 	strbmi	r4, [r3], #-3072	; 0xfffff400
    3e6c:	5349445f 	movtpl	r4, #37983	; 0x945f
    3e70:	59414c50 	stmdbpl	r1, {r4, r6, sl, fp, lr}^
    3e74:	5f4e4f5f 	svcpl	0x004e4f5f
    3e78:	45444e55 	strbmi	r4, [r4, #-3669]	; 0xfffff1ab
    3e7c:	4e494c52 	mcrmi	12, 2, r4, cr9, cr2, {2}
    3e80:	4e4f5f45 	cdpmi	15, 4, cr5, cr15, cr5, {2}
    3e84:	5255435f 	subspl	r4, r5, #2080374785	; 0x7c000001
    3e88:	5f524f53 	svcpl	0x00524f53
    3e8c:	30204e4f 	eorcc	r4, r0, pc, asr #28
    3e90:	00463078 	subeq	r3, r6, r8, ror r0
    3e94:	4e495f5f 	mcrmi	15, 2, r5, cr9, cr15, {2}
    3e98:	41465f54 	cmpmi	r6, r4, asr pc
    3e9c:	5f385453 	svcpl	0x00385453
    3ea0:	54444957 	strbpl	r4, [r4], #-2391	; 0xfffff6a9
    3ea4:	205f5f48 	subscs	r5, pc, r8, asr #30
    3ea8:	5f003233 	svcpl	0x00003233
    3eac:	4454535f 	ldrbmi	r5, [r4], #-863	; 0xfffffca1
    3eb0:	54555f43 	ldrbpl	r5, [r5], #-3907	; 0xfffff0bd
    3eb4:	36315f46 	ldrtcc	r5, [r1], -r6, asr #30
    3eb8:	31205f5f 			; <UNDEFINED> instruction: 0x31205f5f
    3ebc:	415f5f00 	cmpmi	pc, r0, lsl #30
    3ec0:	465f4d52 			; <UNDEFINED> instruction: 0x465f4d52
    3ec4:	55544145 	ldrbpl	r4, [r4, #-325]	; 0xfffffebb
    3ec8:	4c5f4552 	cfldr64mi	mvdx4, [pc], {82}	; 0x52
    3ecc:	58455244 	stmdapl	r5, {r2, r6, r9, ip, lr}^
    3ed0:	43435200 	movtmi	r5, #12800	; 0x3200
    3ed4:	4950475f 	ldmdbmi	r0, {r0, r1, r2, r3, r4, r6, r8, r9, sl, lr}^
    3ed8:	435f414f 	cmpmi	pc, #-1073741805	; 0xc0000013
    3edc:	455f4b4c 	ldrbmi	r4, [pc, #-2892]	; 3398 <_Min_Stack_Size+0x2f98>
    3ee0:	2029284e 	eorcs	r2, r9, lr, asr #16
    3ee4:	5f544553 	svcpl	0x00544553
    3ee8:	28544942 	ldmdacs	r4, {r1, r6, r8, fp, lr}^
    3eec:	2d434352 	stclcs	3, cr4, [r3, #-328]	; 0xfffffeb8
    3ef0:	4250413e 	subsmi	r4, r0, #-2147483633	; 0x8000000f
    3ef4:	524e4532 	subpl	r4, lr, #209715200	; 0xc800000
    3ef8:	0029322c 	eoreq	r3, r9, ip, lsr #4
    3efc:	51555f5f 	cmppl	r5, pc, asr pc
    3f00:	42465f51 	submi	r5, r6, #324	; 0x144
    3f04:	5f5f5449 	svcpl	0x005f5449
    3f08:	5f003820 	svcpl	0x00003820
    3f0c:	4e49575f 	mcrmi	7, 2, r5, cr9, cr15, {2}
    3f10:	59545f54 	ldmdbpl	r4, {r2, r4, r6, r8, r9, sl, fp, ip, lr}^
    3f14:	5f5f4550 	svcpl	0x005f4550
    3f18:	736e7520 	cmnvc	lr, #32, 10	; 0x8000000
    3f1c:	656e6769 	strbvs	r6, [lr, #-1897]!	; 0xfffff897
    3f20:	6e692064 	cdpvs	0, 6, cr2, cr9, cr4, {3}
    3f24:	5f5f0074 	svcpl	0x005f0074
    3f28:	5f4d5241 	svcpl	0x004d5241
    3f2c:	36315046 	ldrtcc	r5, [r1], -r6, asr #32
    3f30:	4752415f 			; <UNDEFINED> instruction: 0x4752415f
    3f34:	5f5f0053 	svcpl	0x005f0053
    3f38:	5f434347 	svcpl	0x00434347
    3f3c:	5f434549 	svcpl	0x00434549
    3f40:	20393535 	eorscs	r3, r9, r5, lsr r5
    3f44:	58450030 	stmdapl	r5, {r4, r5}^
    3f48:	31314954 	teqcc	r1, r4, asr r9
    3f4c:	31314150 	teqcc	r1, r0, asr r1
    3f50:	58452820 	stmdapl	r5, {r5, fp, sp}^
    3f54:	4d5f4954 	vldrmi.16	s9, [pc, #-168]	; 3eb4 <_Min_Stack_Size+0x3ab4>	; <UNPREDICTABLE>
    3f58:	69707061 	ldmdbvs	r0!, {r0, r5, r6, ip, sp, lr}^
    3f5c:	745f676e 	ldrbvc	r6, [pc], #-1902	; 3f64 <_Min_Stack_Size+0x3b64>
    3f60:	58457b29 	stmdapl	r5, {r0, r3, r5, r8, r9, fp, ip, sp, lr}^
    3f64:	31314954 	teqcc	r1, r4, asr r9
    3f68:	5047202c 	subpl	r2, r7, ip, lsr #32
    3f6c:	2c414f49 	mcrrcs	15, 4, r4, r1, cr9
    3f70:	49504720 	ldmdbmi	r0, {r5, r8, r9, sl, lr}^
    3f74:	49505f4f 	ldmdbmi	r0, {r0, r1, r2, r3, r6, r8, r9, sl, fp, ip, lr}^
    3f78:	31315f4e 	teqcc	r1, lr, asr #30
    3f7c:	5845202c 	stmdapl	r5, {r2, r3, r5, sp}^
    3f80:	31314954 	teqcc	r1, r4, asr r9
    3f84:	5152495f 	cmppl	r2, pc, asr r9
    3f88:	5f5f007d 	svcpl	0x005f007d
    3f8c:	4152464c 	cmpmi	r2, ip, asr #12
    3f90:	4d5f5443 	cfldrdmi	mvd5, [pc, #-268]	; 3e8c <_Min_Stack_Size+0x3a8c>
    3f94:	5f5f5841 	svcpl	0x005f5841
    3f98:	37583020 	ldrbcc	r3, [r8, -r0, lsr #32]
    3f9c:	46464646 	strbmi	r4, [r6], -r6, asr #12
    3fa0:	50464646 	subpl	r4, r6, r6, asr #12
    3fa4:	4c31332d 	ldcmi	3, cr3, [r1], #-180	; 0xffffff4c
    3fa8:	5f5f0052 	svcpl	0x005f0052
    3fac:	455a4953 	ldrbmi	r4, [sl, #-2387]	; 0xfffff6ad
    3fb0:	505f464f 	subspl	r4, pc, pc, asr #12
    3fb4:	49445254 	stmdbmi	r4, {r2, r4, r6, r9, ip, lr}^
    3fb8:	545f4646 	ldrbpl	r4, [pc], #-1606	; 3fc0 <_Min_Stack_Size+0x3bc0>
    3fbc:	34205f5f 	strtcc	r5, [r0], #-3935	; 0xfffff0a1
    3fc0:	54584500 	ldrbpl	r4, [r8], #-1280	; 0xfffffb00
    3fc4:	20313149 	eorscs	r3, r1, r9, asr #2
    3fc8:	5f003131 	svcpl	0x00003131
    3fcc:	4454535f 	ldrbmi	r5, [r4], #-863	; 0xfffffca1
    3fd0:	205f5f43 	subscs	r5, pc, r3, asr #30
    3fd4:	5f5f0031 	svcpl	0x005f0031
    3fd8:	5f4d5241 	svcpl	0x004d5241
    3fdc:	54414546 	strbpl	r4, [r1], #-1350	; 0xfffffaba
    3fe0:	5f455255 	svcpl	0x00455255
    3fe4:	56494449 	strbpl	r4, [r9], -r9, asr #8
    3fe8:	5f003120 	svcpl	0x00003120
    3fec:	4f4c465f 	svcmi	0x004c465f
    3ff0:	575f5441 	ldrbpl	r5, [pc, -r1, asr #8]
    3ff4:	5f44524f 	svcpl	0x0044524f
    3ff8:	4544524f 	strbmi	r5, [r4, #-591]	; 0xfffffdb1
    3ffc:	205f5f52 	subscs	r5, pc, r2, asr pc	; <UNPREDICTABLE>
    4000:	524f5f5f 	subpl	r5, pc, #380	; 0x17c
    4004:	5f524544 	svcpl	0x00524544
    4008:	5454494c 	ldrbpl	r4, [r4], #-2380	; 0xfffff6b4
    400c:	455f454c 	ldrbmi	r4, [pc, #-1356]	; 3ac8 <_Min_Stack_Size+0x36c8>
    4010:	4149444e 	cmpmi	r9, lr, asr #8
    4014:	005f5f4e 	subseq	r5, pc, lr, asr #30
    4018:	4f495047 	svcmi	0x00495047
    401c:	28282045 	stmdacs	r8!, {r0, r2, r6, sp}
    4020:	4f495047 	svcmi	0x00495047
    4024:	2a20745f 	bcs	8211a8 <_Min_Stack_Size+0x820da8>
    4028:	49504729 	ldmdbmi	r0, {r0, r3, r5, r8, r9, sl, lr}^
    402c:	425f454f 	subsmi	r4, pc, #331350016	; 0x13c00000
    4030:	29455341 	stmdbcs	r5, {r0, r6, r8, r9, ip, lr}^
    4034:	20575200 	subscs	r5, r7, r0, lsl #4
    4038:	4f495047 	svcmi	0x00495047
    403c:	4e49505f 	mcrmi	0, 2, r5, cr9, cr15, {2}
    4040:	5f00395f 	svcpl	0x0000395f
    4044:	4e49555f 	mcrmi	5, 2, r5, cr9, cr15, {2}
    4048:	545f3854 	ldrbpl	r3, [pc], #-2132	; 4050 <_Min_Stack_Size+0x3c50>
    404c:	5f455059 	svcpl	0x00455059
    4050:	6e75205f 	mrcvs	0, 3, r2, cr5, cr15, {2}
    4054:	6e676973 			; <UNDEFINED> instruction: 0x6e676973
    4058:	63206465 			; <UNDEFINED> instruction: 0x63206465
    405c:	00726168 	rsbseq	r6, r2, r8, ror #2
    4060:	5f433249 	svcpl	0x00433249
    4064:	5f325253 	svcpl	0x00325253
    4068:	5f415254 	svcpl	0x00415254
    406c:	206b734d 	rsbcs	r7, fp, sp, asr #6
    4070:	31783028 	cmncc	r8, r8, lsr #32
    4074:	3c204c55 	stccc	12, cr4, [r0], #-340	; 0xfffffeac
    4078:	3249203c 	subcc	r2, r9, #60	; 0x3c
    407c:	52535f43 	subspl	r5, r3, #268	; 0x10c
    4080:	52545f32 	subspl	r5, r4, #50, 30	; 0xc8
    4084:	6f505f41 	svcvs	0x00505f41
    4088:	4e002973 			; <UNDEFINED> instruction: 0x4e002973
    408c:	5f434956 	svcpl	0x00434956
    4090:	52454349 	subpl	r4, r5, #603979777	; 0x24000001
    4094:	282a2032 	stmdacs	sl!, {r1, r4, r5, sp}
    4098:	616c6f76 	smcvs	50934	; 0xc6f6
    409c:	656c6974 	strbvs	r6, [ip, #-2420]!	; 0xfffff68c
    40a0:	6e697520 	cdpvs	5, 6, cr7, cr9, cr0, {1}
    40a4:	5f323374 	svcpl	0x00323374
    40a8:	292a2074 	stmdbcs	sl!, {r2, r4, r5, r6, sp}
    40ac:	49564e28 	ldmdbmi	r6, {r3, r5, r9, sl, fp, lr}^
    40b0:	41425f43 	cmpmi	r2, r3, asr #30
    40b4:	2b204553 	blcs	815608 <_Min_Stack_Size+0x815208>
    40b8:	38783020 	ldmdacc	r8!, {r5, ip, sp}^
    40bc:	5f002938 	svcpl	0x00002938
    40c0:	554e475f 	strbpl	r4, [lr, #-1887]	; 0xfffff8a1
    40c4:	49575f43 	ldmdbmi	r7, {r0, r1, r6, r8, r9, sl, fp, ip, lr}^
    40c8:	455f4544 	ldrbmi	r4, [pc, #-1348]	; 3b8c <_Min_Stack_Size+0x378c>
    40cc:	55434558 	strbpl	r4, [r3, #-1368]	; 0xfffffaa8
    40d0:	4e4f4954 			; <UNDEFINED> instruction: 0x4e4f4954
    40d4:	4148435f 	cmpmi	r8, pc, asr r3
    40d8:	54455352 	strbpl	r5, [r5], #-850	; 0xfffffcae
    40dc:	4d414e5f 	stclmi	14, cr4, [r1, #-380]	; 0xfffffe84
    40e0:	55222045 	strpl	r2, [r2, #-69]!	; 0xffffffbb
    40e4:	332d4654 			; <UNDEFINED> instruction: 0x332d4654
    40e8:	22454c32 	subcs	r4, r5, #12800	; 0x3200
    40ec:	535f5f00 	cmppl	pc, #0, 30
    40f0:	5f545248 	svcpl	0x00545248
    40f4:	54444957 	strbpl	r4, [r4], #-2391	; 0xfffff6a9
    40f8:	205f5f48 	subscs	r5, pc, r8, asr #30
    40fc:	4c003631 	stcmi	6, cr3, [r0], {49}	; 0x31
    4100:	445f4443 	ldrbmi	r4, [pc], #-1091	; 4108 <_Min_Stack_Size+0x3d08>
    4104:	45564952 	ldrbmi	r4, [r6, #-2386]	; 0xfffff6ae
    4108:	434c5f52 	movtmi	r5, #53074	; 0xcf52
    410c:	5f485f44 	svcpl	0x00485f44
    4110:	58450020 	stmdapl	r5, {r5}^
    4114:	34314954 	ldrtcc	r4, [r1], #-2388	; 0xfffff6ac
    4118:	34314250 	ldrtcc	r4, [r1], #-592	; 0xfffffdb0
    411c:	58452820 	stmdapl	r5, {r5, fp, sp}^
    4120:	4d5f4954 	vldrmi.16	s9, [pc, #-168]	; 4080 <_Min_Stack_Size+0x3c80>	; <UNPREDICTABLE>
    4124:	69707061 	ldmdbvs	r0!, {r0, r5, r6, ip, sp, lr}^
    4128:	745f676e 	ldrbvc	r6, [pc], #-1902	; 4130 <_Min_Stack_Size+0x3d30>
    412c:	58457b29 	stmdapl	r5, {r0, r3, r5, r8, r9, fp, ip, sp, lr}^
    4130:	34314954 	ldrtcc	r4, [r1], #-2388	; 0xfffff6ac
    4134:	5047202c 	subpl	r2, r7, ip, lsr #32
    4138:	2c424f49 	mcrrcs	15, 4, r4, r2, cr9
    413c:	49504720 	ldmdbmi	r0, {r5, r8, r9, sl, lr}^
    4140:	49505f4f 	ldmdbmi	r0, {r0, r1, r2, r3, r6, r8, r9, sl, fp, ip, lr}^
    4144:	34315f4e 	ldrtcc	r5, [r1], #-3918	; 0xfffff0b2
    4148:	5845202c 	stmdapl	r5, {r2, r3, r5, sp}^
    414c:	34314954 	ldrtcc	r4, [r1], #-2388	; 0xfffff6ac
    4150:	5152495f 	cmppl	r2, pc, asr r9
    4154:	5f5f007d 	svcpl	0x005f007d
    4158:	5f415355 	svcpl	0x00415355
    415c:	54494246 	strbpl	r4, [r9], #-582	; 0xfffffdba
    4160:	31205f5f 			; <UNDEFINED> instruction: 0x31205f5f
    4164:	5f5f0036 	svcpl	0x005f0036
    4168:	4c42444c 	cfstrdmi	mvd4, [r2], {76}	; 0x4c
    416c:	4e494d5f 	mcrmi	13, 2, r4, cr9, cr15, {2}
    4170:	5f30315f 	svcpl	0x0030315f
    4174:	5f505845 	svcpl	0x00505845
    4178:	2d28205f 	stccs	0, cr2, [r8, #-380]!	; 0xfffffe84
    417c:	29373033 	ldmdbcs	r7!, {r0, r1, r4, r5, ip, sp}
    4180:	43435200 	movtmi	r5, #12800	; 0x3200
    4184:	4950535f 	ldmdbmi	r0, {r0, r1, r2, r3, r4, r6, r8, r9, ip, lr}^
    4188:	45525f31 	ldrbmi	r5, [r2, #-3889]	; 0xfffff0cf
    418c:	28544553 	ldmdacs	r4, {r0, r1, r4, r6, r8, sl, lr}^
    4190:	52282029 	eorpl	r2, r8, #41	; 0x29
    4194:	3e2d4343 	cdpcc	3, 2, cr4, cr13, cr3, {2}
    4198:	32425041 	subcc	r5, r2, #65	; 0x41
    419c:	52545352 	subspl	r5, r4, #1207959553	; 0x48000001
    41a0:	203d7c20 	eorscs	r7, sp, r0, lsr #24
    41a4:	3c3c2031 	ldccc	0, cr2, [ip], #-196	; 0xffffff3c
    41a8:	29323120 	ldmdbcs	r2!, {r5, r8, ip, sp}
    41ac:	54584500 	ldrbpl	r4, [r8], #-1280	; 0xfffffb00
    41b0:	44503749 	ldrbmi	r3, [r0], #-1865	; 0xfffff8b7
    41b4:	45282037 	strmi	r2, [r8, #-55]!	; 0xffffffc9
    41b8:	5f495458 	svcpl	0x00495458
    41bc:	7070614d 	rsbsvc	r6, r0, sp, asr #2
    41c0:	5f676e69 	svcpl	0x00676e69
    41c4:	457b2974 	ldrbmi	r2, [fp, #-2420]!	; 0xfffff68c
    41c8:	37495458 	smlsldcc	r5, r9, r8, r4
    41cc:	5047202c 	subpl	r2, r7, ip, lsr #32
    41d0:	2c444f49 	mcrrcs	15, 4, r4, r4, cr9
    41d4:	49504720 	ldmdbmi	r0, {r5, r8, r9, sl, lr}^
    41d8:	49505f4f 	ldmdbmi	r0, {r0, r1, r2, r3, r6, r8, r9, sl, fp, ip, lr}^
    41dc:	2c375f4e 	ldccs	15, cr5, [r7], #-312	; 0xfffffec8
    41e0:	54584520 	ldrbpl	r4, [r8], #-1312	; 0xfffffae0
    41e4:	495f3749 	ldmdbmi	pc, {r0, r3, r6, r8, r9, sl, ip, sp}^	; <UNPREDICTABLE>
    41e8:	007d5152 	rsbseq	r5, sp, r2, asr r1
    41ec:	4c465f5f 	mcrrmi	15, 5, r5, r6, cr15
    41f0:	41485f54 	cmpmi	r8, r4, asr pc
    41f4:	55515f53 	ldrbpl	r5, [r1, #-3923]	; 0xfffff0ad
    41f8:	5f544549 	svcpl	0x00544549
    41fc:	5f4e414e 	svcpl	0x004e414e
    4200:	0031205f 	eorseq	r2, r1, pc, asr r0
    4204:	43475f5f 	movtmi	r5, #32607	; 0x7f5f
    4208:	54415f43 	strbpl	r5, [r1], #-3907	; 0xfffff0bd
    420c:	43494d4f 	movtmi	r4, #40271	; 0x9d4f
    4210:	4148435f 	cmpmi	r8, pc, asr r3
    4214:	4f4c5f52 	svcmi	0x004c5f52
    4218:	465f4b43 	ldrbmi	r4, [pc], -r3, asr #22
    421c:	20454552 	subcs	r4, r5, r2, asr r5
    4220:	61540032 	cmpvs	r4, r2, lsr r0
    4224:	5f416b73 	svcpl	0x00416b73
    4228:	63617453 	cmnvs	r1, #1392508928	; 0x53000000
    422c:	69535f6b 	ldmdbvs	r3, {r0, r1, r3, r5, r6, r8, r9, sl, fp, ip, lr}^
    4230:	3120657a 			; <UNDEFINED> instruction: 0x3120657a
    4234:	45003030 	strmi	r3, [r0, #-48]	; 0xffffffd0
    4238:	31495458 	cmpcc	r9, r8, asr r4
    423c:	35312035 	ldrcc	r2, [r1, #-53]!	; 0xffffffcb
    4240:	49504700 	ldmdbmi	r0, {r8, r9, sl, lr}^
    4244:	49505f4f 	ldmdbmi	r0, {r0, r1, r2, r3, r6, r8, r9, sl, fp, ip, lr}^
    4248:	34315f4e 	ldrtcc	r5, [r1], #-3918	; 0xfffff0b2
    424c:	75282820 	strvc	r2, [r8, #-2080]!	; 0xfffff7e0
    4250:	31746e69 	cmncc	r4, r9, ror #28
    4254:	29745f36 	ldmdbcs	r4!, {r1, r2, r4, r5, r8, r9, sl, fp, ip, lr}^
    4258:	30347830 	eorscc	r7, r4, r0, lsr r8
    425c:	00293030 	eoreq	r3, r9, r0, lsr r0
    4260:	464c5f5f 			; <UNDEFINED> instruction: 0x464c5f5f
    4264:	54434152 	strbpl	r4, [r3], #-338	; 0xfffffeae
    4268:	5350455f 	cmppl	r0, #398458880	; 0x17c00000
    426c:	4e4f4c49 	cdpmi	12, 4, cr4, cr15, cr9, {2}
    4270:	30205f5f 	eorcc	r5, r0, pc, asr pc
    4274:	2d503178 	ldfcse	f3, [r0, #-480]	; 0xfffffe20
    4278:	524c3133 	subpl	r3, ip, #-1073741812	; 0xc000000c
    427c:	73655f00 	cmnvc	r5, #0, 30
    4280:	6b636174 	blvs	18dc858 <_Min_Stack_Size+0x18dc458>
    4284:	415f5f00 	cmpmi	pc, r0, lsl #30
    4288:	535f4d52 	cmppl	pc, #5248	; 0x1480
    428c:	4f455a49 	svcmi	0x00455a49
    4290:	494d5f46 	stmdbmi	sp, {r1, r2, r6, r8, r9, sl, fp, ip, lr}^
    4294:	414d494e 	cmpmi	sp, lr, asr #18
    4298:	4e455f4c 	cdpmi	15, 4, cr5, cr5, cr12, {2}
    429c:	31204d55 			; <UNDEFINED> instruction: 0x31204d55
    42a0:	43324900 	teqmi	r2, #0, 18
    42a4:	3152435f 	cmpcc	r2, pc, asr r3
    42a8:	424d535f 	submi	r5, sp, #2080374785	; 0x7c000001
    42ac:	45505954 	ldrbmi	r5, [r0, #-2388]	; 0xfffff6ac
    42b0:	736f505f 	cmnvc	pc, #95	; 0x5f
    42b4:	55332820 	ldrpl	r2, [r3, #-2080]!	; 0xfffff7e0
    42b8:	5f5f0029 	svcpl	0x005f0029
    42bc:	33544c46 	cmpcc	r4, #17920	; 0x4600
    42c0:	4e5f5832 	mrcmi	8, 2, r5, cr15, cr2, {1}
    42c4:	5f4d524f 	svcpl	0x004d524f
    42c8:	5f58414d 	svcpl	0x0058414d
    42cc:	2e31205f 	mrccs	0, 1, r2, cr1, cr15, {2}
    42d0:	36373937 			; <UNDEFINED> instruction: 0x36373937
    42d4:	33313339 	teqcc	r1, #-469762048	; 0xe4000000
    42d8:	32363834 	eorscc	r3, r6, #52, 16	; 0x340000
    42dc:	37353133 			; <UNDEFINED> instruction: 0x37353133
    42e0:	30332b65 	eorscc	r2, r3, r5, ror #22
    42e4:	32334638 	eorscc	r4, r3, #56, 12	; 0x3800000
    42e8:	5f5f0078 	svcpl	0x005f0078
    42ec:	5f6d7261 	svcpl	0x006d7261
    42f0:	0031205f 	eorseq	r2, r1, pc, asr r0
    42f4:	5f434352 	svcpl	0x00434352
    42f8:	52415355 	subpl	r5, r1, #1409286145	; 0x54000001
    42fc:	435f3254 	cmpmi	pc, #84, 4	; 0x40000005
    4300:	445f4b4c 	ldrbmi	r4, [pc], #-2892	; 4308 <_Min_Stack_Size+0x3f08>
    4304:	20292849 	eorcs	r2, r9, r9, asr #16
    4308:	41454c43 	cmpmi	r5, r3, asr #24
    430c:	49425f52 	stmdbmi	r2, {r1, r4, r6, r8, r9, sl, fp, ip, lr}^
    4310:	43522854 	cmpmi	r2, #84, 16	; 0x540000
    4314:	413e2d43 	teqmi	lr, r3, asr #26
    4318:	45314250 	ldrmi	r4, [r1, #-592]!	; 0xfffffdb0
    431c:	312c524e 			; <UNDEFINED> instruction: 0x312c524e
    4320:	45002937 	strmi	r2, [r0, #-2359]	; 0xfffff6c9
    4324:	32495458 	subcc	r5, r9, #88, 8	; 0x58000000
    4328:	20324450 	eorscs	r4, r2, r0, asr r4
    432c:	54584528 	ldrbpl	r4, [r8], #-1320	; 0xfffffad8
    4330:	614d5f49 	cmpvs	sp, r9, asr #30
    4334:	6e697070 	mcrvs	0, 3, r7, cr9, cr0, {3}
    4338:	29745f67 	ldmdbcs	r4!, {r0, r1, r2, r5, r6, r8, r9, sl, fp, ip, lr}^
    433c:	5458457b 	ldrbpl	r4, [r8], #-1403	; 0xfffffa85
    4340:	202c3249 	eorcs	r3, ip, r9, asr #4
    4344:	4f495047 	svcmi	0x00495047
    4348:	47202c44 	strmi	r2, [r0, -r4, asr #24]!
    434c:	5f4f4950 	svcpl	0x004f4950
    4350:	5f4e4950 	svcpl	0x004e4950
    4354:	45202c32 	strmi	r2, [r0, #-3122]!	; 0xfffff3ce
    4358:	32495458 	subcc	r5, r9, #88, 8	; 0x58000000
    435c:	5152495f 	cmppl	r2, pc, asr r9
    4360:	5f5f007d 	svcpl	0x005f007d
    4364:	33544c46 	cmpcc	r4, #17920	; 0x4600
    4368:	494d5f32 	stmdbmi	sp, {r1, r4, r5, r8, r9, sl, fp, ip, lr}^
    436c:	30315f4e 	eorscc	r5, r1, lr, asr #30
    4370:	5058455f 	subspl	r4, r8, pc, asr r5
    4374:	28205f5f 	stmdacs	r0!, {r0, r1, r2, r3, r4, r6, r8, r9, sl, fp, ip, lr}
    4378:	2937332d 	ldmdbcs	r7!, {r0, r2, r3, r5, r8, r9, ip, sp}
    437c:	43324900 	teqmi	r2, #0, 18
    4380:	3152535f 	cmpcc	r2, pc, asr r3
    4384:	424d535f 	submi	r5, sp, #2080374785	; 0x7c000001
    4388:	52454c41 	subpl	r4, r5, #16640	; 0x4100
    438c:	734d5f54 	movtvc	r5, #57172	; 0xdf54
    4390:	3028206b 	eorcc	r2, r8, fp, rrx
    4394:	4c553178 	ldfmie	f3, [r5], {120}	; 0x78
    4398:	203c3c20 	eorscs	r3, ip, r0, lsr #24
    439c:	5f433249 	svcpl	0x00433249
    43a0:	5f315253 	svcpl	0x00315253
    43a4:	41424d53 	cmpmi	r2, r3, asr sp
    43a8:	5452454c 	ldrbpl	r4, [r2], #-1356	; 0xfffffab4
    43ac:	736f505f 	cmnvc	pc, #95	; 0x5f
    43b0:	58450029 	stmdapl	r5, {r0, r3, r5}^
    43b4:	33314954 	teqcc	r1, #84, 18	; 0x150000
    43b8:	33314250 	teqcc	r1, #80, 4
    43bc:	58452820 	stmdapl	r5, {r5, fp, sp}^
    43c0:	4d5f4954 	vldrmi.16	s9, [pc, #-168]	; 4320 <_Min_Stack_Size+0x3f20>	; <UNPREDICTABLE>
    43c4:	69707061 	ldmdbvs	r0!, {r0, r5, r6, ip, sp, lr}^
    43c8:	745f676e 	ldrbvc	r6, [pc], #-1902	; 43d0 <_Min_Stack_Size+0x3fd0>
    43cc:	58457b29 	stmdapl	r5, {r0, r3, r5, r8, r9, fp, ip, sp, lr}^
    43d0:	33314954 	teqcc	r1, #84, 18	; 0x150000
    43d4:	5047202c 	subpl	r2, r7, ip, lsr #32
    43d8:	2c424f49 	mcrrcs	15, 4, r4, r2, cr9
    43dc:	49504720 	ldmdbmi	r0, {r5, r8, r9, sl, lr}^
    43e0:	49505f4f 	ldmdbmi	r0, {r0, r1, r2, r3, r6, r8, r9, sl, fp, ip, lr}^
    43e4:	33315f4e 	teqcc	r1, #312	; 0x138
    43e8:	5845202c 	stmdapl	r5, {r2, r3, r5, sp}^
    43ec:	33314954 	teqcc	r1, #84, 18	; 0x150000
    43f0:	5152495f 	cmppl	r2, pc, asr r9
    43f4:	3249007d 	subcc	r0, r9, #125	; 0x7d
    43f8:	52535f43 	subspl	r5, r3, #268	; 0x10c
    43fc:	55425f32 	strbpl	r5, [r2, #-3890]	; 0xfffff0ce
    4400:	49205953 	stmdbmi	r0!, {r0, r1, r4, r6, r8, fp, ip, lr}
    4404:	535f4332 	cmppl	pc, #-939524096	; 0xc8000000
    4408:	425f3252 	subsmi	r3, pc, #536870917	; 0x20000005
    440c:	5f595355 	svcpl	0x00595355
    4410:	006b734d 	rsbeq	r7, fp, sp, asr #6
    4414:	52415f5f 	subpl	r5, r1, #380	; 0x17c
    4418:	50465f4d 	subpl	r5, r6, sp, asr #30
    441c:	465f3631 			; <UNDEFINED> instruction: 0x465f3631
    4420:	414d524f 	cmpmi	sp, pc, asr #4
    4424:	4c415f54 	mcrrmi	15, 5, r5, r1, cr4
    4428:	4e524554 	mrcmi	5, 2, r4, cr2, cr4, {2}
    442c:	56495441 	strbpl	r5, [r9], -r1, asr #8
    4430:	32490045 	subcc	r0, r9, #69	; 0x45
    4434:	52535f43 	subspl	r5, r3, #268	; 0x10c
    4438:	52415f31 	subpl	r5, r1, #49, 30	; 0xc4
    443c:	49204f4c 	stmdbmi	r0!, {r2, r3, r6, r8, r9, sl, fp, lr}
    4440:	535f4332 	cmppl	pc, #-939524096	; 0xc8000000
    4444:	415f3152 	cmpmi	pc, r2, asr r1	; <UNPREDICTABLE>
    4448:	5f4f4c52 	svcpl	0x004f4c52
    444c:	006b734d 	rsbeq	r7, fp, sp, asr #6
    4450:	52415355 	subpl	r5, r1, #1409286145	; 0x54000001
    4454:	28203354 	stmdacs	r0!, {r2, r4, r6, r8, r9, ip, sp}
    4458:	41535528 	cmpmi	r3, r8, lsr #10
    445c:	745f5452 	ldrbvc	r5, [pc], #-1106	; 4464 <_Min_Stack_Size+0x4064>
    4460:	55292a20 	strpl	r2, [r9, #-2592]!	; 0xfffff5e0
    4464:	54524153 	ldrbpl	r4, [r2], #-339	; 0xfffffead
    4468:	41425f33 	cmpmi	r2, r3, lsr pc
    446c:	00294553 	eoreq	r4, r9, r3, asr r5
    4470:	5f545649 	svcpl	0x00545649
    4474:	5f515249 	svcpl	0x00515249
    4478:	626d754e 	rsbvs	r7, sp, #327155712	; 0x13800000
    447c:	5f007265 	svcpl	0x00007265
    4480:	4749425f 	smlsldmi	r4, r9, pc, r2	; <UNPREDICTABLE>
    4484:	54534547 	ldrbpl	r4, [r3], #-1351	; 0xfffffab9
    4488:	494c415f 	stmdbmi	ip, {r0, r1, r2, r3, r4, r6, r8, lr}^
    448c:	454d4e47 	strbmi	r4, [sp, #-3655]	; 0xfffff1b9
    4490:	5f5f544e 	svcpl	0x005f544e
    4494:	49003820 	stmdbmi	r0, {r5, fp, ip, sp}
    4498:	535f4332 	cmppl	pc, #-939524096	; 0xc8000000
    449c:	535f3152 	cmppl	pc, #-2147483628	; 0x80000014
    44a0:	4c41424d 	sfmmi	f4, 2, [r1], {77}	; 0x4d
    44a4:	20545245 	subscs	r5, r4, r5, asr #4
    44a8:	5f433249 	svcpl	0x00433249
    44ac:	5f315253 	svcpl	0x00315253
    44b0:	41424d53 	cmpmi	r2, r3, asr sp
    44b4:	5452454c 	ldrbpl	r4, [r2], #-1356	; 0xfffffab4
    44b8:	6b734d5f 	blvs	1cd7a3c <_Min_Stack_Size+0x1cd763c>
    44bc:	545f5f00 	ldrbpl	r5, [pc], #-3840	; 44c4 <_Min_Stack_Size+0x40c4>
    44c0:	42495f41 	submi	r5, r9, #260	; 0x104
    44c4:	5f5f5449 	svcpl	0x005f5449
    44c8:	00343620 	eorseq	r3, r4, r0, lsr #12
    44cc:	4f495047 	svcmi	0x00495047
    44d0:	41425f44 	cmpmi	r2, r4, asr #30
    44d4:	30204553 	eorcc	r4, r0, r3, asr r5
    44d8:	30303478 	eorscc	r3, r0, r8, ror r4
    44dc:	30343131 	eorscc	r3, r4, r1, lsr r1
    44e0:	004c5530 	subeq	r5, ip, r0, lsr r5
    44e4:	334d5453 	movtcc	r5, #54355	; 0xd453
    44e8:	00312032 	eorseq	r2, r1, r2, lsr r0
    44ec:	5f433249 	svcpl	0x00433249
    44f0:	5f325253 	svcpl	0x00325253
    44f4:	204c534d 	subcs	r5, ip, sp, asr #6
    44f8:	5f433249 	svcpl	0x00433249
    44fc:	5f325253 	svcpl	0x00325253
    4500:	5f4c534d 	svcpl	0x004c534d
    4504:	006b734d 	rsbeq	r7, fp, sp, asr #6
    4508:	49545845 	ldmdbmi	r4, {r0, r2, r6, fp, ip, lr}^
    450c:	00342034 	eorseq	r2, r4, r4, lsr r0
    4510:	52415f5f 	subpl	r5, r1, #380	; 0x17c
    4514:	45465f4d 	strbmi	r5, [r6, #-3917]	; 0xfffff0b3
    4518:	52555441 	subspl	r5, r5, #1090519040	; 0x41000000
    451c:	52515f45 	subspl	r5, r1, #276	; 0x114
    4520:	00584d44 	subseq	r4, r8, r4, asr #26
    4524:	52415f5f 	subpl	r5, r1, #380	; 0x17c
    4528:	52415f4d 	subpl	r5, r1, #308	; 0x134
    452c:	495f4843 	ldmdbmi	pc, {r0, r1, r6, fp, lr}^	; <UNPREDICTABLE>
    4530:	545f4153 	ldrbpl	r4, [pc], #-339	; 4538 <_Min_Stack_Size+0x4138>
    4534:	424d5548 	submi	r5, sp, #72, 10	; 0x12000000
    4538:	5f003220 	svcpl	0x00003220
    453c:	4e4f4c5f 	mcrmi	12, 2, r4, cr15, cr15, {2}
    4540:	4f4c5f47 	svcmi	0x004c5f47
    4544:	4d5f474e 	ldclmi	7, cr4, [pc, #-312]	; 4414 <_Min_Stack_Size+0x4014>
    4548:	5f5f5841 	svcpl	0x005f5841
    454c:	37783020 	ldrbcc	r3, [r8, -r0, lsr #32]!
    4550:	66666666 	strbtvs	r6, [r6], -r6, ror #12
    4554:	66666666 	strbtvs	r6, [r6], -r6, ror #12
    4558:	66666666 	strbtvs	r6, [r6], -r6, ror #12
    455c:	4c666666 	stclmi	6, cr6, [r6], #-408	; 0xfffffe68
    4560:	5f5f004c 	svcpl	0x005f004c
    4564:	544e4957 	strbpl	r4, [lr], #-2391	; 0xfffff6a9
    4568:	4449575f 	strbmi	r5, [r9], #-1887	; 0xfffff8a1
    456c:	5f5f4854 	svcpl	0x005f4854
    4570:	00323320 	eorseq	r3, r2, r0, lsr #6
    4574:	31495053 	qdaddcc	r5, r3, r9
    4578:	5152495f 	cmppl	r2, pc, asr r9
    457c:	00353320 	eorseq	r3, r5, r0, lsr #6
    4580:	49545845 	ldmdbmi	r4, {r0, r2, r6, fp, ip, lr}^
    4584:	39415039 	stmdbcc	r1, {r0, r3, r4, r5, ip, lr}^
    4588:	58452820 	stmdapl	r5, {r5, fp, sp}^
    458c:	4d5f4954 	vldrmi.16	s9, [pc, #-168]	; 44ec <_Min_Stack_Size+0x40ec>	; <UNPREDICTABLE>
    4590:	69707061 	ldmdbvs	r0!, {r0, r5, r6, ip, sp, lr}^
    4594:	745f676e 	ldrbvc	r6, [pc], #-1902	; 459c <_Min_Stack_Size+0x419c>
    4598:	58457b29 	stmdapl	r5, {r0, r3, r5, r8, r9, fp, ip, sp, lr}^
    459c:	2c394954 			; <UNDEFINED> instruction: 0x2c394954
    45a0:	49504720 	ldmdbmi	r0, {r5, r8, r9, sl, lr}^
    45a4:	202c414f 	eorcs	r4, ip, pc, asr #2
    45a8:	4f495047 	svcmi	0x00495047
    45ac:	4e49505f 	mcrmi	0, 2, r5, cr9, cr15, {2}
    45b0:	202c395f 	eorcs	r3, ip, pc, asr r9
    45b4:	49545845 	ldmdbmi	r4, {r0, r2, r6, fp, ip, lr}^
    45b8:	52495f39 	subpl	r5, r9, #57, 30	; 0xe4
    45bc:	49007d51 	stmdbmi	r0, {r0, r4, r6, r8, sl, fp, ip, sp, lr}
    45c0:	535f4332 	cmppl	pc, #-939524096	; 0xc8000000
    45c4:	525f3152 	subspl	r3, pc, #-2147483628	; 0x80000014
    45c8:	5f454e58 	svcpl	0x00454e58
    45cc:	20736f50 	rsbscs	r6, r3, r0, asr pc
    45d0:	29553628 	ldmdbcs	r5, {r3, r5, r9, sl, ip, sp}^
    45d4:	555f5f00 	ldrbpl	r5, [pc, #-3840]	; 36dc <_Min_Stack_Size+0x32dc>
    45d8:	43415246 	movtmi	r5, #4678	; 0x1246
    45dc:	42495f54 	submi	r5, r9, #84, 30	; 0x150
    45e0:	5f5f5449 	svcpl	0x005f5449
    45e4:	5f003020 	svcpl	0x00003020
    45e8:	4d52415f 	ldfmie	f4, [r2, #-380]	; 0xfffffe84
    45ec:	4232335f 	eorsmi	r3, r2, #2080374785	; 0x7c000001
    45f0:	535f5449 	cmppl	pc, #1224736768	; 0x49000000
    45f4:	45544154 	ldrbmi	r4, [r4, #-340]	; 0xfffffeac
    45f8:	52003120 	andpl	r3, r0, #32, 2
    45fc:	555f4343 	ldrbpl	r4, [pc, #-835]	; 42c1 <_Min_Stack_Size+0x3ec1>
    4600:	54524153 	ldrbpl	r4, [r2], #-339	; 0xfffffead
    4604:	4c435f32 	mcrrmi	15, 3, r5, r3, cr2
    4608:	4e455f4b 	cdpmi	15, 4, cr5, cr5, cr11, {2}
    460c:	53202928 			; <UNDEFINED> instruction: 0x53202928
    4610:	425f5445 	subsmi	r5, pc, #1157627904	; 0x45000000
    4614:	52285449 	eorpl	r5, r8, #1224736768	; 0x49000000
    4618:	3e2d4343 	cdpcc	3, 2, cr4, cr13, cr3, {2}
    461c:	31425041 	cmpcc	r2, r1, asr #32
    4620:	2c524e45 	mrrccs	14, 4, r4, r2, cr5
    4624:	00293731 	eoreq	r3, r9, r1, lsr r7
    4628:	4e495f5f 	mcrmi	15, 2, r5, cr9, cr15, {2}
    462c:	435f3854 	cmpmi	pc, #84, 16	; 0x540000
    4630:	20296328 	eorcs	r6, r9, r8, lsr #6
    4634:	5f5f0063 	svcpl	0x005f0063
    4638:	4152464c 	cmpmi	r2, ip, asr #12
    463c:	495f5443 	ldmdbmi	pc, {r0, r1, r6, sl, ip, lr}^	; <UNPREDICTABLE>
    4640:	5f544942 	svcpl	0x00544942
    4644:	0030205f 	eorseq	r2, r0, pc, asr r0
    4648:	31433249 	cmpcc	r3, r9, asr #4
    464c:	49282820 	stmdbmi	r8!, {r5, fp, sp}
    4650:	745f4332 	ldrbvc	r4, [pc], #-818	; 4658 <_Min_Stack_Size+0x4258>
    4654:	49292a20 	stmdbmi	r9!, {r5, r9, fp, sp}
    4658:	5f314332 	svcpl	0x00314332
    465c:	45534142 	ldrbmi	r4, [r3, #-322]	; 0xfffffebe
    4660:	77730029 	ldrbvc	r0, [r3, -r9, lsr #32]!
    4664:	68637469 	stmdavs	r3!, {r0, r3, r5, r6, sl, ip, sp, lr}^
    4668:	5550435f 	ldrbpl	r4, [r0, #-863]	; 0xfffffca1
    466c:	6363415f 	cmnvs	r3, #-1073741801	; 0xc0000017
    4670:	4c737365 	ldclmi	3, cr7, [r3], #-404	; 0xfffffe6c
    4674:	6c657665 	stclvs	6, cr7, [r5], #-404	; 0xfffffe6c
    4678:	445f5f00 	ldrbmi	r5, [pc], #-3840	; 4680 <_Min_Stack_Size+0x4280>
    467c:	4d5f4c42 	ldclmi	12, cr4, [pc, #-264]	; 457c <_Min_Stack_Size+0x417c>
    4680:	455f4e49 	ldrbmi	r4, [pc, #-3657]	; 383f <_Min_Stack_Size+0x343f>
    4684:	5f5f5058 	svcpl	0x005f5058
    4688:	312d2820 			; <UNDEFINED> instruction: 0x312d2820
    468c:	29313230 	ldmdbcs	r1!, {r4, r5, r9, ip, sp}
    4690:	43324900 	teqmi	r2, #0, 18
    4694:	3252535f 	subscc	r5, r2, #2080374785	; 0x7c000001
    4698:	424d535f 	submi	r5, sp, #2080374785	; 0x7c000001
    469c:	41464544 	cmpmi	r6, r4, asr #10
    46a0:	5f544c55 	svcpl	0x00544c55
    46a4:	20736f50 	rsbscs	r6, r3, r0, asr pc
    46a8:	29553528 	ldmdbcs	r5, {r3, r5, r8, sl, ip, sp}^
    46ac:	54584500 	ldrbpl	r4, [r8], #-1280	; 0xfffffb00
    46b0:	42503549 	subsmi	r3, r0, #306184192	; 0x12400000
    46b4:	45282035 	strmi	r2, [r8, #-53]!	; 0xffffffcb
    46b8:	5f495458 	svcpl	0x00495458
    46bc:	7070614d 	rsbsvc	r6, r0, sp, asr #2
    46c0:	5f676e69 	svcpl	0x00676e69
    46c4:	457b2974 	ldrbmi	r2, [fp, #-2420]!	; 0xfffff68c
    46c8:	35495458 	strbcc	r5, [r9, #-1112]	; 0xfffffba8
    46cc:	5047202c 	subpl	r2, r7, ip, lsr #32
    46d0:	2c424f49 	mcrrcs	15, 4, r4, r2, cr9
    46d4:	49504720 	ldmdbmi	r0, {r5, r8, r9, sl, lr}^
    46d8:	49505f4f 	ldmdbmi	r0, {r0, r1, r2, r3, r6, r8, r9, sl, fp, ip, lr}^
    46dc:	2c355f4e 	ldccs	15, cr5, [r5], #-312	; 0xfffffec8
    46e0:	54584520 	ldrbpl	r4, [r8], #-1312	; 0xfffffae0
    46e4:	495f3549 	ldmdbmi	pc, {r0, r3, r6, r8, sl, ip, sp}^	; <UNPREDICTABLE>
    46e8:	007d5152 	rsbseq	r5, sp, r2, asr r1
    46ec:	49545845 	ldmdbmi	r4, {r0, r2, r6, fp, ip, lr}^
    46f0:	41503231 	cmpmi	r0, r1, lsr r2
    46f4:	28203231 	stmdacs	r0!, {r0, r4, r5, r9, ip, sp}
    46f8:	49545845 	ldmdbmi	r4, {r0, r2, r6, fp, ip, lr}^
    46fc:	70614d5f 	rsbvc	r4, r1, pc, asr sp
    4700:	676e6970 			; <UNDEFINED> instruction: 0x676e6970
    4704:	7b29745f 	blvc	a61888 <_Min_Stack_Size+0xa61488>
    4708:	49545845 	ldmdbmi	r4, {r0, r2, r6, fp, ip, lr}^
    470c:	202c3231 	eorcs	r3, ip, r1, lsr r2
    4710:	4f495047 	svcmi	0x00495047
    4714:	47202c41 	strmi	r2, [r0, -r1, asr #24]!
    4718:	5f4f4950 	svcpl	0x004f4950
    471c:	5f4e4950 	svcpl	0x004e4950
    4720:	202c3231 	eorcs	r3, ip, r1, lsr r2
    4724:	49545845 	ldmdbmi	r4, {r0, r2, r6, fp, ip, lr}^
    4728:	495f3231 	ldmdbmi	pc, {r0, r4, r5, r9, ip, sp}^	; <UNPREDICTABLE>
    472c:	007d5152 	rsbseq	r5, sp, r2, asr r1
    4730:	5f433249 	svcpl	0x00433249
    4734:	5f315243 	svcpl	0x00315243
    4738:	504f5453 	subpl	r5, pc, r3, asr r4	; <UNPREDICTABLE>
    473c:	736f505f 	cmnvc	pc, #95	; 0x5f
    4740:	55392820 	ldrpl	r2, [r9, #-2080]!	; 0xfffff7e0
    4744:	5f5f0029 	svcpl	0x005f0029
    4748:	33544c46 	cmpcc	r4, #17920	; 0x4600
    474c:	49445f32 	stmdbmi	r4, {r1, r4, r5, r8, r9, sl, fp, ip, lr}^
    4750:	205f5f47 	subscs	r5, pc, r7, asr #30
    4754:	43520036 	cmpmi	r2, #54	; 0x36
    4758:	50535f43 	subspl	r5, r3, r3, asr #30
    475c:	435f3149 	cmpmi	pc, #1073741842	; 0x40000012
    4760:	455f4b4c 	ldrbmi	r4, [pc, #-2892]	; 3c1c <_Min_Stack_Size+0x381c>
    4764:	2029284e 	eorcs	r2, r9, lr, asr #16
    4768:	5f544553 	svcpl	0x00544553
    476c:	28544942 	ldmdacs	r4, {r1, r6, r8, fp, lr}^
    4770:	2d434352 	stclcs	3, cr4, [r3, #-328]	; 0xfffffeb8
    4774:	4250413e 	subsmi	r4, r0, #-2147483633	; 0x8000000f
    4778:	524e4532 	subpl	r4, lr, #209715200	; 0xc800000
    477c:	2932312c 	ldmdbcs	r2!, {r2, r3, r5, r8, ip, sp}
    4780:	49564e00 	ldmdbmi	r6, {r9, sl, fp, lr}^
    4784:	52495f43 	subpl	r5, r9, #268	; 0x10c
    4788:	5f333351 	svcpl	0x00333351
    478c:	32433249 	subcc	r3, r3, #-1879048188	; 0x90000004
    4790:	5f56455f 	svcpl	0x0056455f
    4794:	61736944 	cmnvs	r3, r4, asr #18
    4798:	28656c62 	stmdacs	r5!, {r1, r5, r6, sl, fp, sp, lr}^
    479c:	4e282029 	cdpmi	0, 2, cr2, cr8, cr9, {1}
    47a0:	5f434956 	svcpl	0x00434956
    47a4:	52454349 	subpl	r4, r5, #603979777	; 0x24000001
    47a8:	3d7c2031 	ldclcc	0, cr2, [ip, #-196]!	; 0xffffff3c
    47ac:	3c3c3120 	ldfccs	f3, [ip], #-128	; 0xffffff80
    47b0:	32492028 	subcc	r2, r9, #40	; 0x28
    47b4:	455f3243 	ldrbmi	r3, [pc, #-579]	; 4579 <_Min_Stack_Size+0x4179>
    47b8:	52495f56 	subpl	r5, r9, #344	; 0x158
    47bc:	202d2051 	eorcs	r2, sp, r1, asr r0
    47c0:	29203233 	stmdbcs	r0!, {r0, r1, r4, r5, r9, ip, sp}
    47c4:	5f5f0029 	svcpl	0x005f0029
    47c8:	4c42444c 	cfstrdmi	mvd4, [r2], {76}	; 0x4c
    47cc:	5341485f 	movtpl	r4, #6239	; 0x185f
    47d0:	4e45445f 	mcrmi	4, 2, r4, cr5, cr15, {2}
    47d4:	5f4d524f 	svcpl	0x004d524f
    47d8:	0031205f 	eorseq	r2, r1, pc, asr r0
    47dc:	4349564e 	movtmi	r5, #38478	; 0x964e
    47e0:	5152495f 	cmppl	r2, pc, asr r9
    47e4:	495f3433 	ldmdbmi	pc, {r0, r1, r4, r5, sl, ip, sp}^	; <UNPREDICTABLE>
    47e8:	5f324332 	svcpl	0x00324332
    47ec:	455f5245 	ldrbmi	r5, [pc, #-581]	; 45af <_Min_Stack_Size+0x41af>
    47f0:	6c62616e 	stfvse	f6, [r2], #-440	; 0xfffffe48
    47f4:	20292865 	eorcs	r2, r9, r5, ror #16
    47f8:	49564e28 	ldmdbmi	r6, {r3, r5, r9, sl, fp, lr}^
    47fc:	53495f43 	movtpl	r5, #40771	; 0x9f43
    4800:	20315245 	eorscs	r5, r1, r5, asr #4
    4804:	31203d7c 			; <UNDEFINED> instruction: 0x31203d7c
    4808:	20283c3c 	eorcs	r3, r8, ip, lsr ip
    480c:	32433249 	subcc	r3, r3, #-1879048188	; 0x90000004
    4810:	5f52455f 	svcpl	0x0052455f
    4814:	20515249 	subscs	r5, r1, r9, asr #4
    4818:	3233202d 	eorscc	r2, r3, #45	; 0x2d
    481c:	00292920 	eoreq	r2, r9, r0, lsr #18
    4820:	4349564e 	movtmi	r5, #38478	; 0x964e
    4824:	5152495f 	cmppl	r2, pc, asr r9
    4828:	535f3533 	cmppl	pc, #213909504	; 0xcc00000
    482c:	5f314950 	svcpl	0x00314950
    4830:	61736944 	cmnvs	r3, r4, asr #18
    4834:	28656c62 	stmdacs	r5!, {r1, r5, r6, sl, fp, sp, lr}^
    4838:	4e282029 	cdpmi	0, 2, cr2, cr8, cr9, {1}
    483c:	5f434956 	svcpl	0x00434956
    4840:	52454349 	subpl	r4, r5, #603979777	; 0x24000001
    4844:	3d7c2031 	ldclcc	0, cr2, [ip, #-196]!	; 0xffffff3c
    4848:	3c3c3120 	ldfccs	f3, [ip], #-128	; 0xffffff80
    484c:	49505328 	ldmdbmi	r0, {r3, r5, r8, r9, ip, lr}^
    4850:	52495f31 	subpl	r5, r9, #49, 30	; 0xc4
    4854:	202d2051 	eorcs	r2, sp, r1, asr r0
    4858:	29293233 	stmdbcs	r9!, {r0, r1, r4, r5, r9, ip, sp}
    485c:	43324900 	teqmi	r2, #0, 18
    4860:	3252535f 	subscc	r5, r2, #2080374785	; 0x7c000001
    4864:	424d535f 	submi	r5, sp, #2080374785	; 0x7c000001
    4868:	41464544 	cmpmi	r6, r4, asr #10
    486c:	5f544c55 	svcpl	0x00544c55
    4870:	206b734d 	rsbcs	r7, fp, sp, asr #6
    4874:	31783028 	cmncc	r8, r8, lsr #32
    4878:	3c204c55 	stccc	12, cr4, [r0], #-340	; 0xfffffeac
    487c:	3249203c 	subcc	r2, r9, #60	; 0x3c
    4880:	52535f43 	subspl	r5, r3, #268	; 0x10c
    4884:	4d535f32 	ldclmi	15, cr5, [r3, #-200]	; 0xffffff38
    4888:	46454442 	strbmi	r4, [r5], -r2, asr #8
    488c:	544c5541 	strbpl	r5, [ip], #-1345	; 0xfffffabf
    4890:	736f505f 	cmnvc	pc, #95	; 0x5f
    4894:	32490029 	subcc	r0, r9, #41	; 0x29
    4898:	52435f43 	subpl	r5, r3, #268	; 0x10c
    489c:	54495f32 	strbpl	r5, [r9], #-3890	; 0xfffff0ce
    48a0:	45465542 	strbmi	r5, [r6, #-1346]	; 0xfffffabe
    48a4:	734d5f4e 	movtvc	r5, #57166	; 0xdf4e
    48a8:	3028206b 	eorcc	r2, r8, fp, rrx
    48ac:	4c553178 	ldfmie	f3, [r5], {120}	; 0x78
    48b0:	203c3c20 	eorscs	r3, ip, r0, lsr #24
    48b4:	5f433249 	svcpl	0x00433249
    48b8:	5f325243 	svcpl	0x00325243
    48bc:	55425449 	strbpl	r5, [r2, #-1097]	; 0xfffffbb7
    48c0:	5f4e4546 	svcpl	0x004e4546
    48c4:	29736f50 	ldmdbcs	r3!, {r4, r6, r8, r9, sl, fp, sp, lr}^
    48c8:	42504100 	subsmi	r4, r0, #0, 2
    48cc:	54535231 	ldrbpl	r5, [r3], #-561	; 0xfffffdcf
    48d0:	5f5f0052 	svcpl	0x005f0052
    48d4:	55434341 	strbpl	r4, [r3, #-833]	; 0xfffffcbf
    48d8:	494d5f4d 	stmdbmi	sp, {r0, r2, r3, r6, r8, r9, sl, fp, ip, lr}^
    48dc:	205f5f4e 	subscs	r5, pc, lr, asr #30
    48e0:	58302d28 	ldmdapl	r0!, {r3, r5, r8, sl, fp, sp}
    48e4:	35315031 	ldrcc	r5, [r1, #-49]!	; 0xffffffcf
    48e8:	58302d4b 	ldmdapl	r0!, {r0, r1, r3, r6, r8, sl, fp, sp}
    48ec:	35315031 	ldrcc	r5, [r1, #-49]!	; 0xffffffcf
    48f0:	4900294b 	stmdbmi	r0, {r0, r1, r3, r6, r8, fp, sp}
    48f4:	435f4332 	cmpmi	pc, #-939524096	; 0xc8000000
    48f8:	535f3152 	cmppl	pc, #-2147483628	; 0x80000014
    48fc:	54524154 	ldrbpl	r4, [r2], #-340	; 0xfffffeac
    4900:	6b734d5f 	blvs	1cd7e84 <_Min_Stack_Size+0x1cd7a84>
    4904:	78302820 	ldmdavc	r0!, {r5, fp, sp}
    4908:	204c5531 	subcs	r5, ip, r1, lsr r5
    490c:	49203c3c 	stmdbmi	r0!, {r2, r3, r4, r5, sl, fp, ip, sp}
    4910:	435f4332 	cmpmi	pc, #-939524096	; 0xc8000000
    4914:	535f3152 	cmppl	pc, #-2147483628	; 0x80000014
    4918:	54524154 	ldrbpl	r4, [r2], #-340	; 0xfffffeac
    491c:	736f505f 	cmnvc	pc, #95	; 0x5f
    4920:	5f5f0029 	svcpl	0x005f0029
    4924:	5f4d5241 	svcpl	0x004d5241
    4928:	54414546 	strbpl	r4, [r1], #-1350	; 0xfffffaba
    492c:	5f455255 	svcpl	0x00455255
    4930:	50595243 	subspl	r5, r9, r3, asr #4
    4934:	41004f54 	tstmi	r0, r4, asr pc
    4938:	45314250 	ldrmi	r4, [r1, #-592]!	; 0xfffffdb0
    493c:	5300524e 	movwpl	r5, #590	; 0x24e
    4940:	20314950 	eorscs	r4, r1, r0, asr r9
    4944:	50532828 	subspl	r2, r3, r8, lsr #16
    4948:	20745f49 	rsbscs	r5, r4, r9, asr #30
    494c:	5053292a 	subspl	r2, r3, sl, lsr #18
    4950:	425f3149 	subsmi	r3, pc, #1073741842	; 0x40000012
    4954:	29455341 	stmdbcs	r5, {r0, r6, r8, r9, ip, lr}^
    4958:	44434c00 	strbmi	r4, [r3], #-3072	; 0xfffff400
    495c:	544e455f 	strbpl	r4, [lr], #-1375	; 0xfffffaa1
    4960:	4d5f5952 	vldrmi.16	s11, [pc, #-164]	; 48c4 <_Min_Stack_Size+0x44c4>	; <UNPREDICTABLE>
    4964:	5f45444f 	svcpl	0x0045444f
    4968:	5f434544 	svcpl	0x00434544
    496c:	46494853 			; <UNDEFINED> instruction: 0x46494853
    4970:	464f5f54 			; <UNDEFINED> instruction: 0x464f5f54
    4974:	78302046 	ldmdavc	r0!, {r1, r2, r6, sp}
    4978:	45003430 	strmi	r3, [r0, #-1072]	; 0xfffffbd0
    497c:	36495458 			; <UNDEFINED> instruction: 0x36495458
    4980:	20364150 	eorscs	r4, r6, r0, asr r1
    4984:	54584528 	ldrbpl	r4, [r8], #-1320	; 0xfffffad8
    4988:	614d5f49 	cmpvs	sp, r9, asr #30
    498c:	6e697070 	mcrvs	0, 3, r7, cr9, cr0, {3}
    4990:	29745f67 	ldmdbcs	r4!, {r0, r1, r2, r5, r6, r8, r9, sl, fp, ip, lr}^
    4994:	5458457b 	ldrbpl	r4, [r8], #-1403	; 0xfffffa85
    4998:	202c3649 	eorcs	r3, ip, r9, asr #12
    499c:	4f495047 	svcmi	0x00495047
    49a0:	47202c41 	strmi	r2, [r0, -r1, asr #24]!
    49a4:	5f4f4950 	svcpl	0x004f4950
    49a8:	5f4e4950 	svcpl	0x004e4950
    49ac:	45202c36 	strmi	r2, [r0, #-3126]!	; 0xfffff3ca
    49b0:	36495458 			; <UNDEFINED> instruction: 0x36495458
    49b4:	5152495f 	cmppl	r2, pc, asr r9
    49b8:	3249007d 	subcc	r0, r9, #125	; 0x7d
    49bc:	52435f43 	subpl	r5, r3, #268	; 0x10c
    49c0:	57535f31 	smmlarpl	r3, r1, pc, r5	; <UNPREDICTABLE>
    49c4:	5f545352 	svcpl	0x00545352
    49c8:	20736f50 	rsbscs	r6, r3, r0, asr pc
    49cc:	55353128 	ldrpl	r3, [r5, #-296]!	; 0xfffffed8
    49d0:	5f5f0029 	svcpl	0x005f0029
    49d4:	544e4955 	strbpl	r4, [lr], #-2389	; 0xfffff6ab
    49d8:	41454c5f 	cmpmi	r5, pc, asr ip
    49dc:	34365453 	ldrtcc	r5, [r6], #-1107	; 0xfffffbad
    49e0:	58414d5f 	stmdapl	r1, {r0, r1, r2, r3, r4, r6, r8, sl, fp, lr}^
    49e4:	30205f5f 	eorcc	r5, r0, pc, asr pc
    49e8:	66666678 			; <UNDEFINED> instruction: 0x66666678
    49ec:	66666666 	strbtvs	r6, [r6], -r6, ror #12
    49f0:	66666666 	strbtvs	r6, [r6], -r6, ror #12
    49f4:	66666666 	strbtvs	r6, [r6], -r6, ror #12
    49f8:	4c4c5566 	cfstr64mi	mvdx5, [ip], {102}	; 0x66
    49fc:	465f5f00 	ldrbmi	r5, [pc], -r0, lsl #30
    4a00:	54434152 	strbpl	r4, [r3], #-338	; 0xfffffeae
    4a04:	4942495f 	stmdbmi	r2, {r0, r1, r2, r3, r4, r6, r8, fp, lr}^
    4a08:	205f5f54 	subscs	r5, pc, r4, asr pc	; <UNPREDICTABLE>
    4a0c:	5f5f0030 	svcpl	0x005f0030
    4a10:	36544c46 	ldrbcc	r4, [r4], -r6, asr #24
    4a14:	53495f34 	movtpl	r5, #40756	; 0x9f34
    4a18:	4345495f 	movtmi	r4, #22879	; 0x595f
    4a1c:	3530365f 	ldrcc	r3, [r0, #-1631]!	; 0xfffff9a1
    4a20:	5f5f3935 	svcpl	0x005f3935
    4a24:	49003220 	stmdbmi	r0, {r5, r9, ip, sp}
    4a28:	535f4332 	cmppl	pc, #-939524096	; 0xc8000000
    4a2c:	4f5f3152 	svcmi	0x005f3152
    4a30:	49205256 	stmdbmi	r0!, {r1, r2, r4, r6, r9, ip, lr}
    4a34:	535f4332 	cmppl	pc, #-939524096	; 0xc8000000
    4a38:	4f5f3152 	svcmi	0x005f3152
    4a3c:	4d5f5256 	lfmmi	f5, 2, [pc, #-344]	; 48ec <_Min_Stack_Size+0x44ec>
    4a40:	5f006b73 	svcpl	0x00006b73
    4a44:	44524f5f 	ldrbmi	r4, [r2], #-3935	; 0xfffff0a1
    4a48:	4c5f5245 	lfmmi	f5, 2, [pc], {69}	; 0x45
    4a4c:	4c545449 	cfldrdmi	mvd5, [r4], {73}	; 0x49
    4a50:	4e455f45 	cdpmi	15, 4, cr5, cr5, cr5, {2}
    4a54:	4e414944 	vmlsmi.f16	s9, s2, s8	; <UNPREDICTABLE>
    4a58:	31205f5f 			; <UNDEFINED> instruction: 0x31205f5f
    4a5c:	00343332 	eorseq	r3, r4, r2, lsr r3
    4a60:	4c465f5f 	mcrrmi	15, 5, r5, r6, cr15
    4a64:	4f4e5f54 	svcmi	0x004e5f54
    4a68:	4d5f4d52 	ldclmi	13, cr4, [pc, #-328]	; 4928 <_Min_Stack_Size+0x4528>
    4a6c:	5f5f5841 	svcpl	0x005f5841
    4a70:	342e3320 	strtcc	r3, [lr], #-800	; 0xfffffce0
    4a74:	32383230 	eorscc	r3, r8, #48, 4
    4a78:	36363433 			; <UNDEFINED> instruction: 0x36363433
    4a7c:	32353833 	eorscc	r3, r5, #3342336	; 0x330000
    4a80:	65363838 	ldrvs	r3, [r6, #-2104]!	; 0xfffff7c8
    4a84:	4638332b 	ldrtmi	r3, [r8], -fp, lsr #6
    4a88:	44434c00 	strbmi	r4, [r3], #-3072	; 0xfffff400
    4a8c:	454c435f 	strbmi	r4, [ip, #-863]	; 0xfffffca1
    4a90:	30205241 	eorcc	r5, r0, r1, asr #4
    4a94:	00313058 	eorseq	r3, r1, r8, asr r0
    4a98:	4c465f5f 	mcrrmi	15, 5, r5, r6, cr15
    4a9c:	494d5f54 	stmdbmi	sp, {r2, r4, r6, r8, r9, sl, fp, ip, lr}^
    4aa0:	30315f4e 	eorscc	r5, r1, lr, asr #30
    4aa4:	5058455f 	subspl	r4, r8, pc, asr r5
    4aa8:	28205f5f 	stmdacs	r0!, {r0, r1, r2, r3, r4, r6, r8, r9, sl, fp, ip, lr}
    4aac:	2937332d 	ldmdbcs	r7!, {r0, r2, r3, r5, r8, r9, ip, sp}
    4ab0:	555f5f00 	ldrbpl	r5, [pc, #-3840]	; 3bb8 <_Min_Stack_Size+0x37b8>
    4ab4:	4343414c 	movtmi	r4, #12620	; 0x314c
    4ab8:	495f4d55 	ldmdbmi	pc, {r0, r2, r4, r6, r8, sl, fp, lr}^	; <UNPREDICTABLE>
    4abc:	5f544942 	svcpl	0x00544942
    4ac0:	3233205f 	eorscc	r2, r3, #95	; 0x5f
    4ac4:	54584500 	ldrbpl	r4, [r8], #-1280	; 0xfffffb00
    4ac8:	42503249 	subsmi	r3, r0, #-1879048188	; 0x90000004
    4acc:	45282032 	strmi	r2, [r8, #-50]!	; 0xffffffce
    4ad0:	5f495458 	svcpl	0x00495458
    4ad4:	7070614d 	rsbsvc	r6, r0, sp, asr #2
    4ad8:	5f676e69 	svcpl	0x00676e69
    4adc:	457b2974 	ldrbmi	r2, [fp, #-2420]!	; 0xfffff68c
    4ae0:	32495458 	subcc	r5, r9, #88, 8	; 0x58000000
    4ae4:	5047202c 	subpl	r2, r7, ip, lsr #32
    4ae8:	2c424f49 	mcrrcs	15, 4, r4, r2, cr9
    4aec:	49504720 	ldmdbmi	r0, {r5, r8, r9, sl, lr}^
    4af0:	49505f4f 	ldmdbmi	r0, {r0, r1, r2, r3, r6, r8, r9, sl, fp, ip, lr}^
    4af4:	2c325f4e 	ldccs	15, cr5, [r2], #-312	; 0xfffffec8
    4af8:	54584520 	ldrbpl	r4, [r8], #-1312	; 0xfffffae0
    4afc:	495f3249 	ldmdbmi	pc, {r0, r3, r6, r9, ip, sp}^	; <UNPREDICTABLE>
    4b00:	007d5152 	rsbseq	r5, sp, r2, asr r1
    4b04:	48535f5f 	ldmdami	r3, {r0, r1, r2, r3, r4, r6, r8, r9, sl, fp, ip, lr}^
    4b08:	4d5f5452 	cfldrdmi	mvd5, [pc, #-328]	; 49c8 <_Min_Stack_Size+0x45c8>
    4b0c:	5f5f5841 	svcpl	0x005f5841
    4b10:	37783020 	ldrbcc	r3, [r8, -r0, lsr #32]!
    4b14:	00666666 	rsbeq	r6, r6, r6, ror #12
    4b18:	444c5f5f 	strbmi	r5, [ip], #-3935	; 0xfffff0a1
    4b1c:	495f4c42 	ldmdbmi	pc, {r1, r6, sl, fp, lr}^	; <UNPREDICTABLE>
    4b20:	45495f53 	strbmi	r5, [r9, #-3923]	; 0xfffff0ad
    4b24:	30365f43 	eorscc	r5, r6, r3, asr #30
    4b28:	5f393535 	svcpl	0x00393535
    4b2c:	0032205f 	eorseq	r2, r2, pc, asr r0
    4b30:	4c555f5f 	mrrcmi	15, 5, r5, r5, cr15	; <UNPREDICTABLE>
    4b34:	4343414c 	movtmi	r4, #12620	; 0x314c
    4b38:	455f4d55 	ldrbmi	r4, [pc, #-3413]	; 3deb <_Min_Stack_Size+0x39eb>
    4b3c:	4c495350 	mcrrmi	3, 5, r5, r9, cr0
    4b40:	5f5f4e4f 	svcpl	0x005f4e4f
    4b44:	31783020 	cmncc	r8, r0, lsr #32
    4b48:	32332d50 	eorscc	r2, r3, #80, 26	; 0x1400
    4b4c:	4b4c4c55 	blmi	1317ca8 <_Min_Stack_Size+0x13178a8>
    4b50:	415f5f00 	cmpmi	pc, r0, lsl #30
    4b54:	5f534350 	svcpl	0x00534350
    4b58:	5f5f3233 	svcpl	0x005f3233
    4b5c:	5f003120 	svcpl	0x00003120
    4b60:	5f51445f 	svcpl	0x0051445f
    4b64:	54494246 	strbpl	r4, [r9], #-582	; 0xfffffdba
    4b68:	36205f5f 	qsaxcc	r5, r0, pc	; <UNPREDICTABLE>
    4b6c:	5f5f0033 	svcpl	0x005f0033
    4b70:	43434153 	movtmi	r4, #12627	; 0x3153
    4b74:	495f4d55 	ldmdbmi	pc, {r0, r2, r4, r6, r8, sl, fp, lr}^	; <UNPREDICTABLE>
    4b78:	5f544942 	svcpl	0x00544942
    4b7c:	0038205f 	eorseq	r2, r8, pc, asr r0
    4b80:	48555f5f 	ldmdami	r5, {r0, r1, r2, r3, r4, r6, r8, r9, sl, fp, ip, lr}^
    4b84:	42495f51 	submi	r5, r9, #324	; 0x144
    4b88:	5f5f5449 	svcpl	0x005f5449
    4b8c:	47003020 	strmi	r3, [r0, -r0, lsr #32]
    4b90:	424f4950 	submi	r4, pc, #80, 18	; 0x140000
    4b94:	47282820 	strmi	r2, [r8, -r0, lsr #16]!
    4b98:	5f4f4950 	svcpl	0x004f4950
    4b9c:	292a2074 	stmdbcs	sl!, {r2, r4, r5, r6, sp}
    4ba0:	4f495047 	svcmi	0x00495047
    4ba4:	41425f42 	cmpmi	r2, r2, asr #30
    4ba8:	00294553 	eoreq	r4, r9, r3, asr r5
    4bac:	4f495047 	svcmi	0x00495047
    4bb0:	4e49505f 	mcrmi	0, 2, r5, cr9, cr15, {2}
    4bb4:	2820355f 	stmdacs	r0!, {r0, r1, r2, r3, r4, r6, r8, sl, ip, sp}
    4bb8:	6e697528 	cdpvs	5, 6, cr7, cr9, cr8, {1}
    4bbc:	5f363174 	svcpl	0x00363174
    4bc0:	78302974 	ldmdavc	r0!, {r2, r4, r5, r6, r8, fp, sp}
    4bc4:	30323030 	eorscc	r3, r2, r0, lsr r0
    4bc8:	5f5f0029 	svcpl	0x005f0029
    4bcc:	5f434347 	svcpl	0x00434347
    4bd0:	45564148 	ldrbmi	r4, [r6, #-328]	; 0xfffffeb8
    4bd4:	4e59535f 	mrcmi	3, 2, r5, cr9, cr15, {2}
    4bd8:	4f435f43 	svcmi	0x00435f43
    4bdc:	5241504d 	subpl	r5, r1, #77	; 0x4d
    4be0:	4e415f45 	cdpmi	15, 4, cr5, cr1, cr5, {2}
    4be4:	57535f44 	ldrbpl	r5, [r3, -r4, asr #30]
    4be8:	345f5041 	ldrbcc	r5, [pc], #-65	; 4bf0 <_Min_Stack_Size+0x47f0>
    4bec:	5f003120 	svcpl	0x00003120
    4bf0:	544e495f 	strbpl	r4, [lr], #-2399	; 0xfffff6a1
    4bf4:	5341465f 	movtpl	r4, #5727	; 0x165f
    4bf8:	5f363154 	svcpl	0x00363154
    4bfc:	45505954 	ldrbmi	r5, [r0, #-2388]	; 0xfffff6ac
    4c00:	69205f5f 	stmdbvs	r0!, {r0, r1, r2, r3, r4, r6, r8, r9, sl, fp, ip, lr}
    4c04:	5200746e 	andpl	r7, r0, #1845493760	; 0x6e000000
    4c08:	495f4343 	ldmdbmi	pc, {r0, r1, r6, r8, r9, lr}^	; <UNPREDICTABLE>
    4c0c:	5f314332 	svcpl	0x00314332
    4c10:	5f4b4c43 	svcpl	0x004b4c43
    4c14:	29284e45 	stmdbcs	r8!, {r0, r2, r6, r9, sl, fp, lr}
    4c18:	43522820 	cmpmi	r2, #32, 16	; 0x200000
    4c1c:	413e2d43 	teqmi	lr, r3, asr #26
    4c20:	45314250 	ldrmi	r4, [r1, #-592]!	; 0xfffffdb0
    4c24:	7c20524e 	sfmvc	f5, 4, [r0], #-312	; 0xfffffec8
    4c28:	3c31203d 	ldccc	0, cr2, [r1], #-244	; 0xffffff0c
    4c2c:	2931323c 	ldmdbcs	r1!, {r2, r3, r4, r5, r9, ip, sp}
    4c30:	535f5f00 	cmppl	pc, #0, 30
    4c34:	55434341 	strbpl	r4, [r3, #-833]	; 0xfffffcbf
    4c38:	494d5f4d 	stmdbmi	sp, {r0, r2, r3, r6, r8, r9, sl, fp, ip, lr}^
    4c3c:	205f5f4e 	subscs	r5, pc, lr, asr #30
    4c40:	58302d28 	ldmdapl	r0!, {r3, r5, r8, sl, fp, sp}
    4c44:	48375031 	ldmdami	r7!, {r0, r4, r5, ip, lr}
    4c48:	58302d4b 	ldmdapl	r0!, {r0, r1, r3, r6, r8, sl, fp, sp}
    4c4c:	48375031 	ldmdami	r7!, {r0, r4, r5, ip, lr}
    4c50:	5f00294b 	svcpl	0x0000294b
    4c54:	464c555f 			; <UNDEFINED> instruction: 0x464c555f
    4c58:	54434152 	strbpl	r4, [r3], #-338	; 0xfffffeae
    4c5c:	58414d5f 	stmdapl	r1, {r0, r1, r2, r3, r4, r6, r8, sl, fp, lr}^
    4c60:	30205f5f 	eorcc	r5, r0, pc, asr pc
    4c64:	46464658 			; <UNDEFINED> instruction: 0x46464658
    4c68:	46464646 	strbmi	r4, [r6], -r6, asr #12
    4c6c:	332d5046 			; <UNDEFINED> instruction: 0x332d5046
    4c70:	524c5532 	subpl	r5, ip, #209715200	; 0xc800000
    4c74:	555f5f00 	ldrbpl	r5, [pc, #-3840]	; 3d7c <_Min_Stack_Size+0x397c>
    4c78:	5f544e49 	svcpl	0x00544e49
    4c7c:	5341454c 	movtpl	r4, #5452	; 0x154c
    4c80:	5f363154 	svcpl	0x00363154
    4c84:	45505954 	ldrbmi	r5, [r0, #-2388]	; 0xfffff6ac
    4c88:	73205f5f 			; <UNDEFINED> instruction: 0x73205f5f
    4c8c:	74726f68 	ldrbtvc	r6, [r2], #-3944	; 0xfffff098
    4c90:	736e7520 	cmnvc	lr, #32, 10	; 0x8000000
    4c94:	656e6769 	strbvs	r6, [lr, #-1897]!	; 0xfffff897
    4c98:	6e692064 	cdpvs	0, 6, cr2, cr9, cr4, {3}
    4c9c:	434c0074 	movtmi	r0, #49268	; 0xc074
    4ca0:	4e455f44 	cdpmi	15, 4, cr5, cr5, cr4, {2}
    4ca4:	5f595254 	svcpl	0x00595254
    4ca8:	45444f4d 	strbmi	r4, [r4, #-3917]	; 0xfffff0b3
    4cac:	434e495f 	movtmi	r4, #59743	; 0xe95f
    4cb0:	4948535f 	stmdbmi	r8, {r0, r1, r2, r3, r4, r6, r8, r9, ip, lr}^
    4cb4:	4f5f5446 	svcmi	0x005f5446
    4cb8:	7830204e 	ldmdavc	r0!, {r1, r2, r3, r6, sp}
    4cbc:	5f003730 	svcpl	0x00003730
    4cc0:	4d52415f 	ldfmie	f4, [r2, #-380]	; 0xfffffe84
    4cc4:	4145465f 	cmpmi	r5, pc, asr r6
    4cc8:	45525554 	ldrbmi	r5, [r2, #-1364]	; 0xfffffaac
    4ccc:	414d465f 	cmpmi	sp, pc, asr r6
    4cd0:	4c5f5f00 	mrrcmi	15, 0, r5, pc, cr0	; <UNPREDICTABLE>
    4cd4:	55434341 	strbpl	r4, [r3, #-833]	; 0xfffffcbf
    4cd8:	414d5f4d 	cmpmi	sp, sp, asr #30
    4cdc:	205f5f58 	subscs	r5, pc, r8, asr pc	; <UNPREDICTABLE>
    4ce0:	46375830 			; <UNDEFINED> instruction: 0x46375830
    4ce4:	46464646 	strbmi	r4, [r6], -r6, asr #12
    4ce8:	46464646 	strbmi	r4, [r6], -r6, asr #12
    4cec:	46464646 	strbmi	r4, [r6], -r6, asr #12
    4cf0:	2d504646 	ldclcs	6, cr4, [r0, #-280]	; 0xfffffee8
    4cf4:	4b4c3133 	blmi	13111c8 <_Min_Stack_Size+0x1310dc8>
    4cf8:	435f5f00 	cmpmi	pc, #0, 30
    4cfc:	31524148 	cmpcc	r2, r8, asr #2
    4d00:	59545f36 	ldmdbpl	r4, {r1, r2, r4, r5, r8, r9, sl, fp, ip, lr}^
    4d04:	5f5f4550 	svcpl	0x005f4550
    4d08:	6f687320 	svcvs	0x00687320
    4d0c:	75207472 	strvc	r7, [r0, #-1138]!	; 0xfffffb8e
    4d10:	6769736e 	strbvs	r7, [r9, -lr, ror #6]!
    4d14:	2064656e 	rsbcs	r6, r4, lr, ror #10
    4d18:	00746e69 	rsbseq	r6, r4, r9, ror #28
    4d1c:	4f495047 	svcmi	0x00495047
    4d20:	4e49505f 	mcrmi	0, 2, r5, cr9, cr15, {2}
    4d24:	2820365f 	stmdacs	r0!, {r0, r1, r2, r3, r4, r6, r9, sl, ip, sp}
    4d28:	6e697528 	cdpvs	5, 6, cr7, cr9, cr8, {1}
    4d2c:	5f363174 	svcpl	0x00363174
    4d30:	78302974 	ldmdavc	r0!, {r2, r4, r5, r6, r8, fp, sp}
    4d34:	30343030 	eorscc	r3, r4, r0, lsr r0
    4d38:	5f5f0029 	svcpl	0x005f0029
    4d3c:	33544c46 	cmpcc	r4, #17920	; 0x4600
    4d40:	445f5832 	ldrbmi	r5, [pc], #-2098	; 4d48 <_Min_Stack_Size+0x4948>
    4d44:	5f5f4749 	svcpl	0x005f4749
    4d48:	00353120 	eorseq	r3, r5, r0, lsr #2
    4d4c:	5f433249 	svcpl	0x00433249
    4d50:	5f315243 	svcpl	0x00315243
    4d54:	53525753 	cmppl	r2, #21757952	; 0x14c0000
    4d58:	32492054 	subcc	r2, r9, #84	; 0x54
    4d5c:	52435f43 	subpl	r5, r3, #268	; 0x10c
    4d60:	57535f31 	smmlarpl	r3, r1, pc, r5	; <UNPREDICTABLE>
    4d64:	5f545352 	svcpl	0x00545352
    4d68:	006b734d 	rsbeq	r7, fp, sp, asr #6
    4d6c:	5f515249 	svcpl	0x00515249
    4d70:	5f004e45 	svcpl	0x00004e45
    4d74:	5154555f 	cmppl	r4, pc, asr r5
    4d78:	4942465f 	stmdbmi	r2, {r0, r1, r2, r3, r4, r6, r9, sl, lr}^
    4d7c:	205f5f54 	subscs	r5, pc, r4, asr pc	; <UNPREDICTABLE>
    4d80:	00383231 	eorseq	r3, r8, r1, lsr r2
    4d84:	5f433249 	svcpl	0x00433249
    4d88:	5f315243 	svcpl	0x00315243
    4d8c:	54534f4e 	ldrbpl	r4, [r3], #-3918	; 0xfffff0b2
    4d90:	43544552 	cmpmi	r4, #343932928	; 0x14800000
    4d94:	734d5f48 	movtvc	r5, #57160	; 0xdf48
    4d98:	3028206b 	eorcc	r2, r8, fp, rrx
    4d9c:	4c553178 	ldfmie	f3, [r5], {120}	; 0x78
    4da0:	203c3c20 	eorscs	r3, ip, r0, lsr #24
    4da4:	5f433249 	svcpl	0x00433249
    4da8:	5f315243 	svcpl	0x00315243
    4dac:	54534f4e 	ldrbpl	r4, [r3], #-3918	; 0xfffff0b2
    4db0:	43544552 	cmpmi	r4, #343932928	; 0x14800000
    4db4:	6f505f48 	svcvs	0x00505f48
    4db8:	49002973 	stmdbmi	r0, {r0, r1, r4, r5, r6, r8, fp, sp}
    4dbc:	435f4332 	cmpmi	pc, #-939524096	; 0xc8000000
    4dc0:	455f3152 	ldrbmi	r3, [pc, #-338]	; 4c76 <_Min_Stack_Size+0x4876>
    4dc4:	5f43474e 	svcpl	0x0043474e
    4dc8:	206b734d 	rsbcs	r7, fp, sp, asr #6
    4dcc:	31783028 	cmncc	r8, r8, lsr #32
    4dd0:	3c204c55 	stccc	12, cr4, [r0], #-340	; 0xfffffeac
    4dd4:	3249203c 	subcc	r2, r9, #60	; 0x3c
    4dd8:	52435f43 	subpl	r5, r3, #268	; 0x10c
    4ddc:	4e455f31 	mcrmi	15, 2, r5, cr5, cr1, {1}
    4de0:	505f4347 	subspl	r4, pc, r7, asr #6
    4de4:	0029736f 	eoreq	r7, r9, pc, ror #6
    4de8:	5f433249 	svcpl	0x00433249
    4dec:	5f315253 	svcpl	0x00315253
    4df0:	454e5852 	strbmi	r5, [lr, #-2130]	; 0xfffff7ae
    4df4:	6b734d5f 	blvs	1cd8378 <_Min_Stack_Size+0x1cd7f78>
    4df8:	78302820 	ldmdavc	r0!, {r5, fp, sp}
    4dfc:	204c5531 	subcs	r5, ip, r1, lsr r5
    4e00:	49203c3c 	stmdbmi	r0!, {r2, r3, r4, r5, sl, fp, ip, sp}
    4e04:	535f4332 	cmppl	pc, #-939524096	; 0xc8000000
    4e08:	525f3152 	subspl	r3, pc, #-2147483628	; 0x80000014
    4e0c:	5f454e58 	svcpl	0x00454e58
    4e10:	29736f50 	ldmdbcs	r3!, {r4, r6, r8, r9, sl, fp, sp, lr}^
    4e14:	465f5f00 	ldrbmi	r5, [pc], -r0, lsl #30
    4e18:	54494e49 	strbpl	r4, [r9], #-3657	; 0xfffff1b7
    4e1c:	414d5f45 	cmpmi	sp, r5, asr #30
    4e20:	4f5f4854 	svcmi	0x005f4854
    4e24:	5f594c4e 	svcpl	0x00594c4e
    4e28:	0030205f 	eorseq	r2, r0, pc, asr r0
    4e2c:	4e495f5f 	mcrmi	15, 2, r5, cr9, cr15, {2}
    4e30:	41465f54 	cmpmi	r6, r4, asr pc
    4e34:	36315453 			; <UNDEFINED> instruction: 0x36315453
    4e38:	58414d5f 	stmdapl	r1, {r0, r1, r2, r3, r4, r6, r8, sl, fp, lr}^
    4e3c:	30205f5f 	eorcc	r5, r0, pc, asr pc
    4e40:	66663778 			; <UNDEFINED> instruction: 0x66663778
    4e44:	66666666 	strbtvs	r6, [r6], -r6, ror #12
    4e48:	32490066 	subcc	r0, r9, #102	; 0x66
    4e4c:	52535f43 	subspl	r5, r3, #268	; 0x10c
    4e50:	4d535f32 	ldclmi	15, cr5, [r3, #-200]	; 0xffffff38
    4e54:	534f4842 	movtpl	r4, #63554	; 0xf842
    4e58:	6f505f54 	svcvs	0x00505f54
    4e5c:	36282073 			; <UNDEFINED> instruction: 0x36282073
    4e60:	5f002955 	svcpl	0x00002955
    4e64:	464c4c5f 			; <UNDEFINED> instruction: 0x464c4c5f
    4e68:	54434152 	strbpl	r4, [r3], #-338	; 0xfffffeae
    4e6c:	4942465f 	stmdbmi	r2, {r0, r1, r2, r3, r4, r6, r9, sl, lr}^
    4e70:	205f5f54 	subscs	r5, pc, r4, asr pc	; <UNPREDICTABLE>
    4e74:	4c003336 	stcmi	3, cr3, [r0], {54}	; 0x36
    4e78:	445f4443 	ldrbmi	r4, [pc], #-1091	; 4e80 <_Min_Stack_Size+0x4a80>
    4e7c:	4c505349 	mrrcmi	3, 4, r5, r0, cr9
    4e80:	535f5941 	cmppl	pc, #1064960	; 0x104000
    4e84:	54464948 	strbpl	r4, [r6], #-2376	; 0xfffff6b8
    4e88:	46454c5f 			; <UNDEFINED> instruction: 0x46454c5f
    4e8c:	78302054 	ldmdavc	r0!, {r2, r4, r6, sp}
    4e90:	49003831 	stmdbmi	r0, {r0, r4, r5, fp, ip, sp}
    4e94:	435f4332 	cmpmi	pc, #-939524096	; 0xc8000000
    4e98:	455f3152 	ldrbmi	r3, [pc, #-338]	; 4d4e <_Min_Stack_Size+0x494e>
    4e9c:	5052414e 	subspl	r4, r2, lr, asr #2
    4ea0:	43324920 	teqmi	r2, #32, 18	; 0x80000
    4ea4:	3152435f 	cmpcc	r2, pc, asr r3
    4ea8:	414e455f 	cmpmi	lr, pc, asr r5
    4eac:	4d5f5052 	ldclmi	0, cr5, [pc, #-328]	; 4d6c <_Min_Stack_Size+0x496c>
    4eb0:	47006b73 	smlsdxmi	r0, r3, fp, r6
    4eb4:	5f4f4950 	svcpl	0x004f4950
    4eb8:	004e4950 	subeq	r4, lr, r0, asr r9
    4ebc:	5f433249 	svcpl	0x00433249
    4ec0:	5f315243 	svcpl	0x00315243
    4ec4:	54424d53 	strbpl	r4, [r2], #-3411	; 0xfffff2ad
    4ec8:	20455059 	subcs	r5, r5, r9, asr r0
    4ecc:	5f433249 	svcpl	0x00433249
    4ed0:	5f315243 	svcpl	0x00315243
    4ed4:	54424d53 	strbpl	r4, [r2], #-3411	; 0xfffff2ad
    4ed8:	5f455059 	svcpl	0x00455059
    4edc:	006b734d 	rsbeq	r7, fp, sp, asr #6
    4ee0:	4c555f5f 	mrrcmi	15, 5, r5, r5, cr15	; <UNPREDICTABLE>
    4ee4:	55434341 	strbpl	r4, [r3, #-833]	; 0xfffffcbf
    4ee8:	414d5f4d 	cmpmi	sp, sp, asr #30
    4eec:	205f5f58 	subscs	r5, pc, r8, asr pc	; <UNPREDICTABLE>
    4ef0:	46465830 			; <UNDEFINED> instruction: 0x46465830
    4ef4:	46464646 	strbmi	r4, [r6], -r6, asr #12
    4ef8:	46464646 	strbmi	r4, [r6], -r6, asr #12
    4efc:	46464646 	strbmi	r4, [r6], -r6, asr #12
    4f00:	2d504646 	ldclcs	6, cr4, [r0, #-280]	; 0xfffffee8
    4f04:	4c553233 	lfmmi	f3, 2, [r5], {51}	; 0x33
    4f08:	5845004b 	stmdapl	r5, {r0, r1, r3, r6}^
    4f0c:	35314954 	ldrcc	r4, [r1, #-2388]!	; 0xfffff6ac
    4f10:	5152495f 	cmppl	r2, pc, asr r9
    4f14:	00303420 	eorseq	r3, r0, r0, lsr #8
    4f18:	5f433249 	svcpl	0x00433249
    4f1c:	5f315243 	svcpl	0x00315243
    4f20:	505f4550 	subspl	r4, pc, r0, asr r5	; <UNPREDICTABLE>
    4f24:	2820736f 	stmdacs	r0!, {r0, r1, r2, r3, r5, r6, r8, r9, ip, sp, lr}
    4f28:	00295530 	eoreq	r5, r9, r0, lsr r5
    4f2c:	4c555f5f 	mrrcmi	15, 5, r5, r5, cr15	; <UNPREDICTABLE>
    4f30:	43415246 	movtmi	r5, #4678	; 0x1246
    4f34:	494d5f54 	stmdbmi	sp, {r2, r4, r6, r8, r9, sl, fp, ip, lr}^
    4f38:	205f5f4e 	subscs	r5, pc, lr, asr #30
    4f3c:	55302e30 	ldrpl	r2, [r0, #-3632]!	; 0xfffff1d0
    4f40:	4900524c 	stmdbmi	r0, {r2, r3, r6, r9, ip, lr}
    4f44:	435f4332 	cmpmi	pc, #-939524096	; 0xc8000000
    4f48:	455f3152 	ldrbmi	r3, [pc, #-338]	; 4dfe <_Min_Stack_Size+0x49fe>
    4f4c:	4345504e 	movtmi	r5, #20558	; 0x504e
    4f50:	736f505f 	cmnvc	pc, #95	; 0x5f
    4f54:	55352820 	ldrpl	r2, [r5, #-2080]!	; 0xfffff7e0
    4f58:	564e0029 	strbpl	r0, [lr], -r9, lsr #32
    4f5c:	495f4349 	ldmdbmi	pc, {r0, r3, r6, r8, r9, lr}^	; <UNPREDICTABLE>
    4f60:	345f5152 	ldrbcc	r5, [pc], #-338	; 4f68 <_Min_Stack_Size+0x4b68>
    4f64:	58455f30 	stmdapl	r5, {r4, r5, r8, r9, sl, fp, ip, lr}^
    4f68:	30314954 	eorscc	r4, r1, r4, asr r9
    4f6c:	5f35315f 	svcpl	0x0035315f
    4f70:	62616e45 	rsbvs	r6, r1, #1104	; 0x450
    4f74:	2928656c 	stmdbcs	r8!, {r2, r3, r5, r6, r8, sl, sp, lr}
    4f78:	564e2820 	strbpl	r2, [lr], -r0, lsr #16
    4f7c:	495f4349 	ldmdbmi	pc, {r0, r3, r6, r8, r9, lr}^	; <UNPREDICTABLE>
    4f80:	31524553 	cmpcc	r2, r3, asr r5
    4f84:	203d7c20 	eorscs	r7, sp, r0, lsr #24
    4f88:	383c3c31 	ldmdacc	ip!, {r0, r4, r5, sl, fp, ip, sp}
    4f8c:	5f5f0029 	svcpl	0x005f0029
    4f90:	5f4d5241 	svcpl	0x004d5241
    4f94:	36314642 	ldrtcc	r4, [r1], -r2, asr #12
    4f98:	524f465f 	subpl	r4, pc, #99614720	; 0x5f00000
    4f9c:	5f54414d 	svcpl	0x0054414d
    4fa0:	45544c41 	ldrbmi	r4, [r4, #-3137]	; 0xfffff3bf
    4fa4:	54414e52 	strbpl	r4, [r1], #-3666	; 0xfffff1ae
    4fa8:	00455649 	subeq	r5, r5, r9, asr #12
    4fac:	4e495f5f 	mcrmi	15, 2, r5, cr9, cr15, {2}
    4fb0:	5f323354 	svcpl	0x00323354
    4fb4:	45505954 	ldrbmi	r5, [r0, #-2388]	; 0xfffff6ac
    4fb8:	6c205f5f 	stcvs	15, cr5, [r0], #-380	; 0xfffffe84
    4fbc:	20676e6f 	rsbcs	r6, r7, pc, ror #28
    4fc0:	00746e69 	rsbseq	r6, r4, r9, ror #28
    4fc4:	5f433249 	svcpl	0x00433249
    4fc8:	5f315253 	svcpl	0x00315253
    4fcc:	31444441 	cmpcc	r4, r1, asr #8
    4fd0:	32492030 	subcc	r2, r9, #48	; 0x30
    4fd4:	52535f43 	subspl	r5, r3, #268	; 0x10c
    4fd8:	44415f31 	strbmi	r5, [r1], #-3889	; 0xfffff0cf
    4fdc:	5f303144 	svcpl	0x00303144
    4fe0:	006b734d 	rsbeq	r7, fp, sp, asr #6
    4fe4:	47474f54 	smlsldmi	r4, r7, r4, pc	; <UNPREDICTABLE>
    4fe8:	425f454c 	subsmi	r4, pc, #76, 10	; 0x13000000
    4fec:	52285449 	eorpl	r5, r8, #1224736768	; 0x49000000
    4ff0:	422c6765 	eormi	r6, ip, #26476544	; 0x1940000
    4ff4:	20297469 	eorcs	r7, r9, r9, ror #8
    4ff8:	67655228 	strbvs	r5, [r5, -r8, lsr #4]!
    4ffc:	203d5e20 	eorscs	r5, sp, r0, lsr #28
    5000:	3c203128 	stfccs	f3, [r0], #-160	; 0xffffff60
    5004:	6942203c 	stmdbvs	r2, {r2, r3, r4, r5, sp}^
    5008:	00292974 	eoreq	r2, r9, r4, ror r9
    500c:	6e69614d 	powvsem	f6, f1, #5.0
    5010:	00734f5f 	rsbseq	r4, r3, pc, asr pc
    5014:	49545845 	ldmdbmi	r4, {r0, r2, r6, fp, ip, lr}^
    5018:	42503231 	subsmi	r3, r0, #268435459	; 0x10000003
    501c:	28203231 	stmdacs	r0!, {r0, r4, r5, r9, ip, sp}
    5020:	49545845 	ldmdbmi	r4, {r0, r2, r6, fp, ip, lr}^
    5024:	70614d5f 	rsbvc	r4, r1, pc, asr sp
    5028:	676e6970 			; <UNDEFINED> instruction: 0x676e6970
    502c:	7b29745f 	blvc	a621b0 <_Min_Stack_Size+0xa61db0>
    5030:	49545845 	ldmdbmi	r4, {r0, r2, r6, fp, ip, lr}^
    5034:	202c3231 	eorcs	r3, ip, r1, lsr r2
    5038:	4f495047 	svcmi	0x00495047
    503c:	47202c42 	strmi	r2, [r0, -r2, asr #24]!
    5040:	5f4f4950 	svcpl	0x004f4950
    5044:	5f4e4950 	svcpl	0x004e4950
    5048:	202c3231 	eorcs	r3, ip, r1, lsr r2
    504c:	49545845 	ldmdbmi	r4, {r0, r2, r6, fp, ip, lr}^
    5050:	495f3231 	ldmdbmi	pc, {r0, r4, r5, r9, ip, sp}^	; <UNPREDICTABLE>
    5054:	007d5152 	rsbseq	r5, sp, r2, asr r1
    5058:	5f544553 	svcpl	0x00544553
    505c:	28544942 	ldmdacs	r4, {r1, r6, r8, fp, lr}^
    5060:	2c676552 	cfstr64cs	mvdx6, [r7], #-328	; 0xfffffeb8
    5064:	29746942 	ldmdbcs	r4!, {r1, r6, r8, fp, sp, lr}^
    5068:	65522820 	ldrbvs	r2, [r2, #-2080]	; 0xfffff7e0
    506c:	3d7c2067 	ldclcc	0, cr2, [ip, #-412]!	; 0xfffffe64
    5070:	20312820 	eorscs	r2, r1, r0, lsr #16
    5074:	42203c3c 	eormi	r3, r0, #60, 24	; 0x3c00
    5078:	29297469 	stmdbcs	r9!, {r0, r3, r5, r6, sl, ip, sp, lr}
    507c:	43324900 	teqmi	r2, #0, 18
    5080:	3152535f 	cmpcc	r2, pc, asr r3
    5084:	4558545f 	ldrbmi	r5, [r8, #-1119]	; 0xfffffba1
    5088:	43324920 	teqmi	r2, #32, 18	; 0x80000
    508c:	3152535f 	cmpcc	r2, pc, asr r3
    5090:	4558545f 	ldrbmi	r5, [r8, #-1119]	; 0xfffffba1
    5094:	6b734d5f 	blvs	1cd8618 <_Min_Stack_Size+0x1cd8218>
    5098:	555f5f00 	ldrbpl	r5, [pc, #-3840]	; 41a0 <_Min_Stack_Size+0x3da0>
    509c:	495f5154 	ldmdbmi	pc, {r2, r4, r6, r8, ip, lr}^	; <UNPREDICTABLE>
    50a0:	5f544942 	svcpl	0x00544942
    50a4:	0030205f 	eorseq	r2, r0, pc, asr r0
    50a8:	49545845 	ldmdbmi	r4, {r0, r2, r6, fp, ip, lr}^
    50ac:	00322032 	eorseq	r2, r2, r2, lsr r0
    50b0:	41535f5f 	cmpmi	r3, pc, asr pc
    50b4:	4942465f 	stmdbmi	r2, {r0, r1, r2, r3, r4, r6, r9, sl, lr}^
    50b8:	205f5f54 	subscs	r5, pc, r4, asr pc	; <UNPREDICTABLE>
    50bc:	45003531 	strmi	r3, [r0, #-1329]	; 0xfffffacf
    50c0:	31495458 	cmpcc	r9, r8, asr r4
    50c4:	31425035 	cmpcc	r2, r5, lsr r0
    50c8:	45282035 	strmi	r2, [r8, #-53]!	; 0xffffffcb
    50cc:	5f495458 	svcpl	0x00495458
    50d0:	7070614d 	rsbsvc	r6, r0, sp, asr #2
    50d4:	5f676e69 	svcpl	0x00676e69
    50d8:	457b2974 	ldrbmi	r2, [fp, #-2420]!	; 0xfffff68c
    50dc:	31495458 	cmpcc	r9, r8, asr r4
    50e0:	47202c35 			; <UNDEFINED> instruction: 0x47202c35
    50e4:	424f4950 	submi	r4, pc, #80, 18	; 0x140000
    50e8:	5047202c 	subpl	r2, r7, ip, lsr #32
    50ec:	505f4f49 	subspl	r4, pc, r9, asr #30
    50f0:	315f4e49 	cmpcc	pc, r9, asr #28
    50f4:	45202c35 	strmi	r2, [r0, #-3125]!	; 0xfffff3cb
    50f8:	31495458 	cmpcc	r9, r8, asr r4
    50fc:	52495f35 	subpl	r5, r9, #53, 30	; 0xd4
    5100:	5f007d51 	svcpl	0x00007d51
    5104:	544c465f 	strbpl	r4, [ip], #-1631	; 0xfffff9a1
    5108:	5f583233 	svcpl	0x00583233
    510c:	5f58414d 	svcpl	0x0058414d
    5110:	2e31205f 	mrccs	0, 1, r2, cr1, cr15, {2}
    5114:	36373937 			; <UNDEFINED> instruction: 0x36373937
    5118:	33313339 	teqcc	r1, #-469762048	; 0xe4000000
    511c:	32363834 	eorscc	r3, r6, #52, 16	; 0x340000
    5120:	37353133 			; <UNDEFINED> instruction: 0x37353133
    5124:	30332b65 	eorscc	r2, r3, r5, ror #22
    5128:	32334638 	eorscc	r4, r3, #56, 12	; 0x3800000
    512c:	564e0078 			; <UNDEFINED> instruction: 0x564e0078
    5130:	495f4349 	ldmdbmi	pc, {r0, r3, r6, r8, r9, lr}^	; <UNPREDICTABLE>
    5134:	395f5152 	ldmdbcc	pc, {r1, r4, r6, r8, ip, lr}^	; <UNPREDICTABLE>
    5138:	5458455f 	ldrbpl	r4, [r8], #-1375	; 0xfffffaa1
    513c:	455f3349 	ldrbmi	r3, [pc, #-841]	; 4dfb <_Min_Stack_Size+0x49fb>
    5140:	6c62616e 	stfvse	f6, [r2], #-440	; 0xfffffe48
    5144:	20292865 	eorcs	r2, r9, r5, ror #16
    5148:	49564e28 	ldmdbmi	r6, {r3, r5, r9, sl, fp, lr}^
    514c:	53495f43 	movtpl	r5, #40771	; 0x9f43
    5150:	20305245 	eorscs	r5, r0, r5, asr #4
    5154:	31203d7c 			; <UNDEFINED> instruction: 0x31203d7c
    5158:	29393c3c 	ldmdbcs	r9!, {r2, r3, r4, r5, sl, fp, ip, sp}
    515c:	43435200 	movtmi	r5, #12800	; 0x3200
    5160:	4153555f 	cmpmi	r3, pc, asr r5
    5164:	5f315452 	svcpl	0x00315452
    5168:	45534552 	ldrbmi	r4, [r3, #-1362]	; 0xfffffaae
    516c:	20292854 	eorcs	r2, r9, r4, asr r8
    5170:	43435228 	movtmi	r5, #12840	; 0x3228
    5174:	50413e2d 	subpl	r3, r1, sp, lsr #28
    5178:	53523242 	cmppl	r2, #536870916	; 0x20000004
    517c:	7c205254 	sfmvc	f5, 4, [r0], #-336	; 0xfffffeb0
    5180:	2031203d 	eorscs	r2, r1, sp, lsr r0
    5184:	31203c3c 			; <UNDEFINED> instruction: 0x31203c3c
    5188:	5f002934 	svcpl	0x00002934
    518c:	544c465f 	strbpl	r4, [ip], #-1631	; 0xfffff9a1
    5190:	4d5f3233 	lfmmi	f3, 2, [pc, #-204]	; 50cc <_Min_Stack_Size+0x4ccc>
    5194:	5f5f4e49 	svcpl	0x005f4e49
    5198:	312e3120 			; <UNDEFINED> instruction: 0x312e3120
    519c:	39343537 	ldmdbcc	r4!, {r0, r1, r2, r4, r5, r8, sl, ip, sp}
    51a0:	30353334 	eorscc	r3, r5, r4, lsr r3
    51a4:	32323238 	eorscc	r3, r2, #56, 4	; 0x80000003
    51a8:	65353738 	ldrvs	r3, [r5, #-1848]!	; 0xfffff8c8
    51ac:	4638332d 	ldrtmi	r3, [r8], -sp, lsr #6
    51b0:	45003233 	strmi	r3, [r0, #-563]	; 0xfffffdcd
    51b4:	5f495458 	svcpl	0x00495458
    51b8:	67697254 			; <UNDEFINED> instruction: 0x67697254
    51bc:	5f726567 	svcpl	0x00726567
    51c0:	49534952 	ldmdbmi	r3, {r1, r4, r6, r8, fp, lr}^
    51c4:	615f474e 	cmpvs	pc, lr, asr #14
    51c8:	465f646e 	ldrbmi	r6, [pc], -lr, ror #8
    51cc:	494c4c41 	stmdbmi	ip, {r0, r6, sl, fp, lr}^
    51d0:	3220474e 	eorcc	r4, r0, #20447232	; 0x1380000
    51d4:	465f5f00 	ldrbmi	r5, [pc], -r0, lsl #30
    51d8:	495f544c 	ldmdbmi	pc, {r2, r3, r6, sl, ip, lr}^	; <UNPREDICTABLE>
    51dc:	45495f53 	strbmi	r5, [r9, #-3923]	; 0xfffff0ad
    51e0:	30365f43 	eorscc	r5, r6, r3, asr #30
    51e4:	5f393535 	svcpl	0x00393535
    51e8:	0032205f 	eorseq	r2, r2, pc, asr r0
    51ec:	48545f5f 	ldmdami	r4, {r0, r1, r2, r3, r4, r6, r8, r9, sl, fp, ip, lr}^
    51f0:	45424d55 	strbmi	r4, [r2, #-3413]	; 0xfffff2ab
    51f4:	205f5f4c 	subscs	r5, pc, ip, asr #30
    51f8:	32490031 	subcc	r0, r9, #49	; 0x31
    51fc:	52535f43 	subspl	r5, r3, #268	; 0x10c
    5200:	46415f31 			; <UNDEFINED> instruction: 0x46415f31
    5204:	6b734d5f 	blvs	1cd8788 <_Min_Stack_Size+0x1cd8388>
    5208:	78302820 	ldmdavc	r0!, {r5, fp, sp}
    520c:	204c5531 	subcs	r5, ip, r1, lsr r5
    5210:	49203c3c 	stmdbmi	r0!, {r2, r3, r4, r5, sl, fp, ip, sp}
    5214:	535f4332 	cmppl	pc, #-939524096	; 0xc8000000
    5218:	415f3152 	cmpmi	pc, r2, asr r1	; <UNPREDICTABLE>
    521c:	6f505f46 	svcvs	0x00505f46
    5220:	49002973 	stmdbmi	r0, {r0, r1, r4, r5, r6, r8, fp, sp}
    5224:	535f4332 	cmppl	pc, #-939524096	; 0xc8000000
    5228:	415f3152 	cmpmi	pc, r2, asr r1	; <UNPREDICTABLE>
    522c:	6f505f46 	svcvs	0x00505f46
    5230:	31282073 			; <UNDEFINED> instruction: 0x31282073
    5234:	00295530 	eoreq	r5, r9, r0, lsr r5
    5238:	51515f5f 	cmppl	r1, pc, asr pc
    523c:	4942495f 	stmdbmi	r2, {r0, r1, r2, r3, r4, r6, r8, fp, lr}^
    5240:	205f5f54 	subscs	r5, pc, r4, asr pc	; <UNPREDICTABLE>
    5244:	32490030 	subcc	r0, r9, #48	; 0x30
    5248:	52535f43 	subspl	r5, r3, #268	; 0x10c
    524c:	4d535f31 	ldclmi	15, cr5, [r3, #-196]	; 0xffffff3c
    5250:	454c4142 	strbmi	r4, [ip, #-322]	; 0xfffffebe
    5254:	505f5452 	subspl	r5, pc, r2, asr r4	; <UNPREDICTABLE>
    5258:	2820736f 	stmdacs	r0!, {r0, r1, r2, r3, r5, r6, r8, r9, ip, sp, lr}
    525c:	29553531 	ldmdbcs	r5, {r0, r4, r5, r8, sl, ip, sp}^
    5260:	43324900 	teqmi	r2, #0, 18
    5264:	3252435f 	subscc	r4, r2, #2080374785	; 0x7c000001
    5268:	53414c5f 	movtpl	r4, #7263	; 0x1c5f
    526c:	6f505f54 	svcvs	0x00505f54
    5270:	31282073 			; <UNDEFINED> instruction: 0x31282073
    5274:	00295532 	eoreq	r5, r9, r2, lsr r5
    5278:	49545845 	ldmdbmi	r4, {r0, r2, r6, fp, ip, lr}^
    527c:	43503531 	cmpmi	r0, #205520896	; 0xc400000
    5280:	28203531 	stmdacs	r0!, {r0, r4, r5, r8, sl, ip, sp}
    5284:	49545845 	ldmdbmi	r4, {r0, r2, r6, fp, ip, lr}^
    5288:	70614d5f 	rsbvc	r4, r1, pc, asr sp
    528c:	676e6970 			; <UNDEFINED> instruction: 0x676e6970
    5290:	7b29745f 	blvc	a62414 <_Min_Stack_Size+0xa62014>
    5294:	49545845 	ldmdbmi	r4, {r0, r2, r6, fp, ip, lr}^
    5298:	202c3531 	eorcs	r3, ip, r1, lsr r5
    529c:	4f495047 	svcmi	0x00495047
    52a0:	47202c43 	strmi	r2, [r0, -r3, asr #24]!
    52a4:	5f4f4950 	svcpl	0x004f4950
    52a8:	5f4e4950 	svcpl	0x004e4950
    52ac:	202c3531 	eorcs	r3, ip, r1, lsr r5
    52b0:	49545845 	ldmdbmi	r4, {r0, r2, r6, fp, ip, lr}^
    52b4:	495f3531 	ldmdbmi	pc, {r0, r4, r5, r8, sl, ip, sp}^	; <UNPREDICTABLE>
    52b8:	007d5152 	rsbseq	r5, sp, r2, asr r1
    52bc:	4c4c5f5f 	mcrrmi	15, 5, r5, ip, cr15
    52c0:	55434341 	strbpl	r4, [r3, #-833]	; 0xfffffcbf
    52c4:	42465f4d 	submi	r5, r6, #308	; 0x134
    52c8:	5f5f5449 	svcpl	0x005f5449
    52cc:	00313320 	eorseq	r3, r1, r0, lsr #6
    52d0:	4349564e 	movtmi	r5, #38478	; 0x964e
    52d4:	5152495f 	cmppl	r2, pc, asr r9
    52d8:	5f33325f 	svcpl	0x0033325f
    52dc:	49545845 	ldmdbmi	r4, {r0, r2, r6, fp, ip, lr}^
    52e0:	5f395f35 	svcpl	0x00395f35
    52e4:	61736944 	cmnvs	r3, r4, asr #18
    52e8:	28656c62 	stmdacs	r5!, {r1, r5, r6, sl, fp, sp, lr}^
    52ec:	4e282029 	cdpmi	0, 2, cr2, cr8, cr9, {1}
    52f0:	5f434956 	svcpl	0x00434956
    52f4:	52454349 	subpl	r4, r5, #603979777	; 0x24000001
    52f8:	3d7c2030 	ldclcc	0, cr2, [ip, #-192]!	; 0xffffff40
    52fc:	3c3c3120 	ldfccs	f3, [ip], #-128	; 0xffffff80
    5300:	00293332 	eoreq	r3, r9, r2, lsr r3
    5304:	49555f5f 	ldmdbmi	r5, {r0, r1, r2, r3, r4, r6, r8, r9, sl, fp, ip, lr}^
    5308:	414d544e 	cmpmi	sp, lr, asr #8
    530c:	59545f58 	ldmdbpl	r4, {r3, r4, r6, r8, r9, sl, fp, ip, lr}^
    5310:	5f5f4550 	svcpl	0x005f4550
    5314:	6e6f6c20 	cdpvs	12, 6, cr6, cr15, cr0, {1}
    5318:	6f6c2067 	svcvs	0x006c2067
    531c:	7520676e 	strvc	r6, [r0, #-1902]!	; 0xfffff892
    5320:	6769736e 	strbvs	r7, [r9, -lr, ror #6]!
    5324:	2064656e 	rsbcs	r6, r4, lr, ror #10
    5328:	00746e69 	rsbseq	r6, r4, r9, ror #28
    532c:	4c465f5f 	mcrrmi	15, 5, r5, r6, cr15
    5330:	58323354 	ldmdapl	r2!, {r2, r4, r6, r8, r9, ip, sp}
    5334:	4e494d5f 	mcrmi	13, 2, r4, cr9, cr15, {2}
    5338:	5f30315f 	svcpl	0x0030315f
    533c:	5f505845 	svcpl	0x00505845
    5340:	2d28205f 	stccs	0, cr2, [r8, #-380]!	; 0xfffffe84
    5344:	29373033 	ldmdbcs	r7!, {r0, r1, r4, r5, ip, sp}
    5348:	54584500 	ldrbpl	r4, [r8], #-1280	; 0xfffffb00
    534c:	50343149 	eorspl	r3, r4, r9, asr #2
    5350:	20343143 	eorscs	r3, r4, r3, asr #2
    5354:	54584528 	ldrbpl	r4, [r8], #-1320	; 0xfffffad8
    5358:	614d5f49 	cmpvs	sp, r9, asr #30
    535c:	6e697070 	mcrvs	0, 3, r7, cr9, cr0, {3}
    5360:	29745f67 	ldmdbcs	r4!, {r0, r1, r2, r5, r6, r8, r9, sl, fp, ip, lr}^
    5364:	5458457b 	ldrbpl	r4, [r8], #-1403	; 0xfffffa85
    5368:	2c343149 	ldfcss	f3, [r4], #-292	; 0xfffffedc
    536c:	49504720 	ldmdbmi	r0, {r5, r8, r9, sl, lr}^
    5370:	202c434f 	eorcs	r4, ip, pc, asr #6
    5374:	4f495047 	svcmi	0x00495047
    5378:	4e49505f 	mcrmi	0, 2, r5, cr9, cr15, {2}
    537c:	2c34315f 	ldfcss	f3, [r4], #-380	; 0xfffffe84
    5380:	54584520 	ldrbpl	r4, [r8], #-1312	; 0xfffffae0
    5384:	5f343149 	svcpl	0x00343149
    5388:	7d515249 	lfmvc	f5, 2, [r1, #-292]	; 0xfffffedc
    538c:	555f5f00 	ldrbpl	r5, [pc, #-3840]	; 4494 <_Min_Stack_Size+0x4094>
    5390:	495f5153 	ldmdbmi	pc, {r0, r1, r4, r6, r8, ip, lr}^	; <UNPREDICTABLE>
    5394:	5f544942 	svcpl	0x00544942
    5398:	0030205f 	eorseq	r2, r0, pc, asr r0
    539c:	4e475f5f 	mcrmi	15, 2, r5, cr7, cr15, {2}
    53a0:	4d5f4355 	ldclmi	3, cr4, [pc, #-340]	; 5254 <_Min_Stack_Size+0x4e54>
    53a4:	524f4e49 	subpl	r4, pc, #1168	; 0x490
    53a8:	33205f5f 			; <UNDEFINED> instruction: 0x33205f5f
    53ac:	555f5f00 	ldrbpl	r5, [pc, #-3840]	; 44b4 <_Min_Stack_Size+0x40b4>
    53b0:	5f544e49 	svcpl	0x00544e49
    53b4:	5341454c 	movtpl	r4, #5452	; 0x154c
    53b8:	5f323354 	svcpl	0x00323354
    53bc:	45505954 	ldrbmi	r5, [r0, #-2388]	; 0xfffff6ac
    53c0:	6c205f5f 	stcvs	15, cr5, [r0], #-380	; 0xfffffe84
    53c4:	20676e6f 	rsbcs	r6, r7, pc, ror #28
    53c8:	69736e75 	ldmdbvs	r3!, {r0, r2, r4, r5, r6, r9, sl, fp, sp, lr}^
    53cc:	64656e67 	strbtvs	r6, [r5], #-3687	; 0xfffff199
    53d0:	746e6920 	strbtvc	r6, [lr], #-2336	; 0xfffff6e0
    53d4:	415f5f00 	cmpmi	pc, r0, lsl #30
    53d8:	465f4d52 			; <UNDEFINED> instruction: 0x465f4d52
    53dc:	55544145 	ldrbpl	r4, [r4, #-325]	; 0xfffffebb
    53e0:	4e5f4552 	mrcmi	5, 2, r4, cr15, cr2, {2}
    53e4:	52454d55 	subpl	r4, r5, #5440	; 0x1540
    53e8:	4d5f4349 	ldclmi	3, cr4, [pc, #-292]	; 52cc <_Min_Stack_Size+0x4ecc>
    53ec:	494d5841 	stmdbmi	sp, {r0, r6, fp, ip, lr}^
    53f0:	5f5f004e 	svcpl	0x005f004e
    53f4:	4d544e49 	ldclmi	14, cr4, [r4, #-292]	; 0xfffffedc
    53f8:	545f5841 	ldrbpl	r5, [pc], #-2113	; 5400 <_Min_Stack_Size+0x5000>
    53fc:	5f455059 	svcpl	0x00455059
    5400:	6f6c205f 	svcvs	0x006c205f
    5404:	6c20676e 	stcvs	7, cr6, [r0], #-440	; 0xfffffe48
    5408:	20676e6f 	rsbcs	r6, r7, pc, ror #28
    540c:	00746e69 	rsbseq	r6, r4, r9, ror #28
    5410:	43475f5f 	movtmi	r5, #32607	; 0x7f5f
    5414:	54415f43 	strbpl	r5, [r1], #-3907	; 0xfffff0bd
    5418:	43494d4f 	movtmi	r4, #40271	; 0x9d4f
    541c:	544e495f 	strbpl	r4, [lr], #-2399	; 0xfffff6a1
    5420:	434f4c5f 	movtmi	r4, #64607	; 0xfc5f
    5424:	52465f4b 	subpl	r5, r6, #300	; 0x12c
    5428:	32204545 	eorcc	r4, r0, #289406976	; 0x11400000
    542c:	54584500 	ldrbpl	r4, [r8], #-1280	; 0xfffffb00
    5430:	50353149 	eorspl	r3, r5, r9, asr #2
    5434:	20353144 	eorscs	r3, r5, r4, asr #2
    5438:	54584528 	ldrbpl	r4, [r8], #-1320	; 0xfffffad8
    543c:	614d5f49 	cmpvs	sp, r9, asr #30
    5440:	6e697070 	mcrvs	0, 3, r7, cr9, cr0, {3}
    5444:	29745f67 	ldmdbcs	r4!, {r0, r1, r2, r5, r6, r8, r9, sl, fp, ip, lr}^
    5448:	5458457b 	ldrbpl	r4, [r8], #-1403	; 0xfffffa85
    544c:	2c353149 	ldfcss	f3, [r5], #-292	; 0xfffffedc
    5450:	49504720 	ldmdbmi	r0, {r5, r8, r9, sl, lr}^
    5454:	202c444f 	eorcs	r4, ip, pc, asr #8
    5458:	4f495047 	svcmi	0x00495047
    545c:	4e49505f 	mcrmi	0, 2, r5, cr9, cr15, {2}
    5460:	2c35315f 	ldfcss	f3, [r5], #-380	; 0xfffffe84
    5464:	54584520 	ldrbpl	r4, [r8], #-1312	; 0xfffffae0
    5468:	5f353149 	svcpl	0x00353149
    546c:	7d515249 	lfmvc	f5, 2, [r1, #-292]	; 0xfffffedc
    5470:	5f534f00 	svcpl	0x00534f00
    5474:	656e6547 	strbvs	r6, [lr, #-1351]!	; 0xfffffab9
    5478:	65746172 	ldrbvs	r6, [r4, #-370]!	; 0xfffffe8e
    547c:	6378455f 	cmnvs	r8, #398458880	; 0x17c00000
    5480:	69747065 	ldmdbvs	r4!, {r0, r2, r5, r6, ip, sp, lr}^
    5484:	495f6e6f 	ldmdbmi	pc, {r0, r1, r2, r3, r5, r6, r9, sl, fp, sp, lr}^	; <UNPREDICTABLE>
    5488:	7272656e 	rsbsvc	r6, r2, #461373440	; 0x1b800000
    548c:	20747075 	rsbscs	r7, r4, r5, ror r0
    5490:	73615f5f 	cmnvc	r1, #380	; 0x17c
    5494:	5322286d 			; <UNDEFINED> instruction: 0x5322286d
    5498:	23204356 			; <UNDEFINED> instruction: 0x23204356
    549c:	22337830 	eorscs	r7, r3, #48, 16	; 0x300000
    54a0:	50470029 	subpl	r0, r7, r9, lsr #32
    54a4:	5f424f49 	svcpl	0x00424f49
    54a8:	45534142 	ldrbmi	r4, [r3, #-322]	; 0xfffffebe
    54ac:	34783020 	ldrbtcc	r3, [r8], #-32	; 0xffffffe0
    54b0:	30313030 	eorscc	r3, r1, r0, lsr r0
    54b4:	55303043 	ldrpl	r3, [r0, #-67]!	; 0xffffffbd
    54b8:	5f5f004c 	svcpl	0x005f004c
    54bc:	5f4d5241 	svcpl	0x004d5241
    54c0:	54414546 	strbpl	r4, [r1], #-1350	; 0xfffffaba
    54c4:	5f455255 	svcpl	0x00455255
    54c8:	36315046 	ldrtcc	r5, [r1], -r6, asr #32
    54cc:	4143535f 	cmpmi	r3, pc, asr r3
    54d0:	5f52414c 	svcpl	0x0052414c
    54d4:	54495241 	strbpl	r5, [r9], #-577	; 0xfffffdbf
    54d8:	54454d48 	strbpl	r4, [r5], #-3400	; 0xfffff2b8
    54dc:	5f004349 	svcpl	0x00004349
    54e0:	4153555f 	cmpmi	r3, pc, asr r5
    54e4:	4d554343 	ldclmi	3, cr4, [r5, #-268]	; 0xfffffef4
    54e8:	5350455f 	cmppl	r0, #398458880	; 0x17c00000
    54ec:	4e4f4c49 	cdpmi	12, 4, cr4, cr15, cr9, {2}
    54f0:	30205f5f 	eorcc	r5, r0, pc, asr pc
    54f4:	2d503178 	ldfcse	f3, [r0, #-480]	; 0xfffffe20
    54f8:	4b485538 	blmi	121a9e0 <_Min_Stack_Size+0x121a5e0>
    54fc:	445f5f00 	ldrbmi	r5, [pc], #-3840	; 5504 <_Min_Stack_Size+0x5104>
    5500:	485f4c42 	ldmdami	pc, {r1, r6, sl, fp, lr}^	; <UNPREDICTABLE>
    5504:	515f5341 	cmppl	pc, r1, asr #6
    5508:	54454955 	strbpl	r4, [r5], #-2389	; 0xfffff6ab
    550c:	4e414e5f 	mcrmi	14, 2, r4, cr1, cr15, {2}
    5510:	31205f5f 			; <UNDEFINED> instruction: 0x31205f5f
    5514:	414c5000 	mrsmi	r5, (UNDEF: 76)
    5518:	524f4654 	subpl	r4, pc, #84, 12	; 0x5400000
    551c:	59545f4d 	ldmdbpl	r4, {r0, r2, r3, r6, r8, r9, sl, fp, ip, lr}^
    5520:	5f534550 	svcpl	0x00534550
    5524:	00205f48 	eoreq	r5, r0, r8, asr #30
    5528:	4c465f5f 	mcrrmi	15, 5, r5, r6, cr15
    552c:	5f343654 	svcpl	0x00343654
    5530:	5f534148 	svcpl	0x00534148
    5534:	49464e49 	stmdbmi	r6, {r0, r3, r6, r9, sl, fp, lr}^
    5538:	5954494e 	ldmdbpl	r4, {r1, r2, r3, r6, r8, fp, lr}^
    553c:	31205f5f 			; <UNDEFINED> instruction: 0x31205f5f
    5540:	4c5f5f00 	mrrcmi	15, 0, r5, pc, cr0	; <UNPREDICTABLE>
    5544:	4152464c 	cmpmi	r2, ip, asr #12
    5548:	4d5f5443 	cfldrdmi	mvd5, [pc, #-268]	; 5444 <_Min_Stack_Size+0x5044>
    554c:	5f5f5841 	svcpl	0x005f5841
    5550:	37583020 	ldrbcc	r3, [r8, -r0, lsr #32]
    5554:	46464646 	strbmi	r4, [r6], -r6, asr #12
    5558:	46464646 	strbmi	r4, [r6], -r6, asr #12
    555c:	46464646 	strbmi	r4, [r6], -r6, asr #12
    5560:	50464646 	subpl	r4, r6, r6, asr #12
    5564:	4c33362d 	ldcmi	6, cr3, [r3], #-180	; 0xffffff4c
    5568:	4500524c 	strmi	r5, [r0, #-588]	; 0xfffffdb4
    556c:	31495458 	cmpcc	r9, r8, asr r4
    5570:	31415034 	cmpcc	r1, r4, lsr r0
    5574:	45282034 	strmi	r2, [r8, #-52]!	; 0xffffffcc
    5578:	5f495458 	svcpl	0x00495458
    557c:	7070614d 	rsbsvc	r6, r0, sp, asr #2
    5580:	5f676e69 	svcpl	0x00676e69
    5584:	457b2974 	ldrbmi	r2, [fp, #-2420]!	; 0xfffff68c
    5588:	31495458 	cmpcc	r9, r8, asr r4
    558c:	47202c34 			; <UNDEFINED> instruction: 0x47202c34
    5590:	414f4950 	cmpmi	pc, r0, asr r9	; <UNPREDICTABLE>
    5594:	5047202c 	subpl	r2, r7, ip, lsr #32
    5598:	505f4f49 	subspl	r4, pc, r9, asr #30
    559c:	315f4e49 	cmpcc	pc, r9, asr #28
    55a0:	45202c34 	strmi	r2, [r0, #-3124]!	; 0xfffff3cc
    55a4:	31495458 	cmpcc	r9, r8, asr r4
    55a8:	52495f34 	subpl	r5, r9, #52, 30	; 0xd0
    55ac:	41007d51 	tstmi	r0, r1, asr sp
    55b0:	5f314250 	svcpl	0x00314250
    55b4:	5f535542 	svcpl	0x00535542
    55b8:	45534142 	ldrbmi	r4, [r3, #-322]	; 0xfffffebe
    55bc:	45502820 	ldrbmi	r2, [r0, #-2080]	; 0xfffff7e0
    55c0:	48504952 	ldmdami	r0, {r1, r4, r6, r8, fp, lr}^
    55c4:	4c415245 	sfmmi	f5, 2, [r1], {69}	; 0x45
    55c8:	41425f53 	cmpmi	r2, r3, asr pc
    55cc:	00294553 	eoreq	r4, r9, r3, asr r5
    55d0:	4349564e 	movtmi	r5, #38478	; 0x964e
    55d4:	5152495f 	cmppl	r2, pc, asr r9
    55d8:	555f3733 	ldrbpl	r3, [pc, #-1843]	; 4ead <_Min_Stack_Size+0x4aad>
    55dc:	54524153 	ldrbpl	r4, [r2], #-339	; 0xfffffead
    55e0:	69445f31 	stmdbvs	r4, {r0, r4, r5, r8, r9, sl, fp, ip, lr}^
    55e4:	6c626173 	stfvse	f6, [r2], #-460	; 0xfffffe34
    55e8:	20292865 	eorcs	r2, r9, r5, ror #16
    55ec:	49564e28 	ldmdbmi	r6, {r3, r5, r9, sl, fp, lr}^
    55f0:	43495f43 	movtmi	r5, #40771	; 0x9f43
    55f4:	20315245 	eorscs	r5, r1, r5, asr #4
    55f8:	31203d7c 			; <UNDEFINED> instruction: 0x31203d7c
    55fc:	55283c3c 	strpl	r3, [r8, #-3132]!	; 0xfffff3c4
    5600:	54524153 	ldrbpl	r4, [r2], #-339	; 0xfffffead
    5604:	52495f31 	subpl	r5, r9, #49, 30	; 0xc4
    5608:	202d2051 	eorcs	r2, sp, r1, asr r0
    560c:	29293233 	stmdbcs	r9!, {r0, r1, r4, r5, r9, ip, sp}
    5610:	535f5f00 	cmppl	pc, #0, 30
    5614:	55434341 	strbpl	r4, [r3, #-833]	; 0xfffffcbf
    5618:	414d5f4d 	cmpmi	sp, sp, asr #30
    561c:	205f5f58 	subscs	r5, pc, r8, asr pc	; <UNPREDICTABLE>
    5620:	46375830 			; <UNDEFINED> instruction: 0x46375830
    5624:	2d504646 	ldclcs	6, cr4, [r0, #-280]	; 0xfffffee8
    5628:	004b4837 	subeq	r4, fp, r7, lsr r8
    562c:	31495053 	qdaddcc	r5, r3, r9
    5630:	5341425f 	movtpl	r4, #4703	; 0x125f
    5634:	78302045 	ldmdavc	r0!, {r0, r2, r6, sp}
    5638:	31303034 	teqcc	r0, r4, lsr r0
    563c:	30303033 	eorscc	r3, r0, r3, lsr r0
    5640:	45004c55 	strmi	r4, [r0, #-3157]	; 0xfffff3ab
    5644:	38495458 	stmdacc	r9, {r3, r4, r6, sl, ip, lr}^
    5648:	5152495f 	cmppl	r2, pc, asr r9
    564c:	00333220 	eorseq	r3, r3, r0, lsr #4
    5650:	49555f5f 	ldmdbmi	r5, {r0, r1, r2, r3, r4, r6, r8, r9, sl, fp, ip, lr}^
    5654:	5450544e 	ldrbpl	r5, [r0], #-1102	; 0xfffffbb2
    5658:	59545f52 	ldmdbpl	r4, {r1, r4, r6, r8, r9, sl, fp, ip, lr}^
    565c:	5f5f4550 	svcpl	0x005f4550
    5660:	736e7520 	cmnvc	lr, #32, 10	; 0x8000000
    5664:	656e6769 	strbvs	r6, [lr, #-1897]!	; 0xfffff897
    5668:	6e692064 	cdpvs	0, 6, cr2, cr9, cr4, {3}
    566c:	58450074 	stmdapl	r5, {r2, r4, r5, r6}^
    5670:	50354954 	eorspl	r4, r5, r4, asr r9
    5674:	28203544 	stmdacs	r0!, {r2, r6, r8, sl, ip, sp}
    5678:	49545845 	ldmdbmi	r4, {r0, r2, r6, fp, ip, lr}^
    567c:	70614d5f 	rsbvc	r4, r1, pc, asr sp
    5680:	676e6970 			; <UNDEFINED> instruction: 0x676e6970
    5684:	7b29745f 	blvc	a62808 <_Min_Stack_Size+0xa62408>
    5688:	49545845 	ldmdbmi	r4, {r0, r2, r6, fp, ip, lr}^
    568c:	47202c35 			; <UNDEFINED> instruction: 0x47202c35
    5690:	444f4950 	strbmi	r4, [pc], #-2384	; 5698 <_Min_Stack_Size+0x5298>
    5694:	5047202c 	subpl	r2, r7, ip, lsr #32
    5698:	505f4f49 	subspl	r4, pc, r9, asr #30
    569c:	355f4e49 	ldrbcc	r4, [pc, #-3657]	; 485b <_Min_Stack_Size+0x445b>
    56a0:	5845202c 	stmdapl	r5, {r2, r3, r5, sp}^
    56a4:	5f354954 	svcpl	0x00354954
    56a8:	7d515249 	lfmvc	f5, 2, [r1, #-292]	; 0xfffffedc
    56ac:	43324900 	teqmi	r2, #0, 18
    56b0:	3152535f 	cmpcc	r2, pc, asr r3
    56b4:	52564f5f 	subspl	r4, r6, #380	; 0x17c
    56b8:	736f505f 	cmnvc	pc, #95	; 0x5f
    56bc:	31312820 	teqcc	r1, r0, lsr #16
    56c0:	5f002955 	svcpl	0x00002955
    56c4:	4745525f 	smlsldmi	r5, r5, pc, r2	; <UNPREDICTABLE>
    56c8:	45545349 	ldrbmi	r5, [r4, #-841]	; 0xfffffcb7
    56cc:	52505f52 	subspl	r5, r0, #328	; 0x148
    56d0:	58494645 	stmdapl	r9, {r0, r2, r6, r9, sl, lr}^
    56d4:	00205f5f 	eoreq	r5, r0, pc, asr pc
    56d8:	4c465f5f 	mcrrmi	15, 5, r5, r6, cr15
    56dc:	5f323354 	svcpl	0x00323354
    56e0:	5f58414d 	svcpl	0x0058414d
    56e4:	2e33205f 	mrccs	0, 1, r2, cr3, cr15, {2}
    56e8:	38323034 	ldmdacc	r2!, {r2, r4, r5, ip, sp}
    56ec:	36343332 			; <UNDEFINED> instruction: 0x36343332
    56f0:	35383336 	ldrcc	r3, [r8, #-822]!	; 0xfffffcca
    56f4:	36383832 			; <UNDEFINED> instruction: 0x36383832
    56f8:	38332b65 	ldmdacc	r3!, {r0, r2, r5, r6, r8, r9, fp, sp}
    56fc:	00323346 	eorseq	r3, r2, r6, asr #6
    5700:	42445f5f 	submi	r5, r4, #380	; 0x17c
    5704:	49445f4c 	stmdbmi	r4, {r2, r3, r6, r8, r9, sl, fp, ip, lr}^
    5708:	205f5f47 	subscs	r5, pc, r7, asr #30
    570c:	5f003531 	svcpl	0x00003531
    5710:	464c555f 			; <UNDEFINED> instruction: 0x464c555f
    5714:	54434152 	strbpl	r4, [r3], #-338	; 0xfffffeae
    5718:	5350455f 	cmppl	r0, #398458880	; 0x17c00000
    571c:	4e4f4c49 	cdpmi	12, 4, cr4, cr15, cr9, {2}
    5720:	30205f5f 	eorcc	r5, r0, pc, asr pc
    5724:	2d503178 	ldfcse	f3, [r0, #-480]	; 0xfffffe20
    5728:	4c553233 	lfmmi	f3, 2, [r5], {51}	; 0x33
    572c:	5f5f0052 	svcpl	0x005f0052
    5730:	455a4953 	ldrbmi	r4, [sl, #-2387]	; 0xfffff6ad
    5734:	535f464f 	cmppl	pc, #82837504	; 0x4f00000
    5738:	5f455a49 	svcpl	0x00455a49
    573c:	205f5f54 	subscs	r5, pc, r4, asr pc	; <UNPREDICTABLE>
    5740:	58450034 	stmdapl	r5, {r2, r4, r5}^
    5744:	435f4954 	cmpmi	pc, #84, 18	; 0x150000
    5748:	45004746 	strmi	r4, [r0, #-1862]	; 0xfffff8ba
    574c:	30495458 	subcc	r5, r9, r8, asr r4
    5750:	5152495f 	cmppl	r2, pc, asr r9
    5754:	5f003620 	svcpl	0x00003620
    5758:	544e495f 	strbpl	r4, [lr], #-2399	; 0xfffff6a1
    575c:	435f3436 	cmpmi	pc, #905969664	; 0x36000000
    5760:	20296328 	eorcs	r6, r9, r8, lsr #6
    5764:	23232063 			; <UNDEFINED> instruction: 0x23232063
    5768:	004c4c20 	subeq	r4, ip, r0, lsr #24
    576c:	4f495047 	svcmi	0x00495047
    5770:	4e49505f 	mcrmi	0, 2, r5, cr9, cr15, {2}
    5774:	2820315f 	stmdacs	r0!, {r0, r1, r2, r3, r4, r6, r8, ip, sp}
    5778:	6e697528 	cdpvs	5, 6, cr7, cr9, cr8, {1}
    577c:	5f363174 	svcpl	0x00363174
    5780:	78302974 	ldmdavc	r0!, {r2, r4, r5, r6, r8, fp, sp}
    5784:	32303030 	eorscc	r3, r0, #48	; 0x30
    5788:	58450029 	stmdapl	r5, {r0, r3, r5}^
    578c:	33314954 	teqcc	r1, #84, 18	; 0x150000
    5790:	33314450 	teqcc	r1, #80, 8	; 0x50000000
    5794:	58452820 	stmdapl	r5, {r5, fp, sp}^
    5798:	4d5f4954 	vldrmi.16	s9, [pc, #-168]	; 56f8 <_Min_Stack_Size+0x52f8>	; <UNPREDICTABLE>
    579c:	69707061 	ldmdbvs	r0!, {r0, r5, r6, ip, sp, lr}^
    57a0:	745f676e 	ldrbvc	r6, [pc], #-1902	; 57a8 <_Min_Stack_Size+0x53a8>
    57a4:	58457b29 	stmdapl	r5, {r0, r3, r5, r8, r9, fp, ip, sp, lr}^
    57a8:	33314954 	teqcc	r1, #84, 18	; 0x150000
    57ac:	5047202c 	subpl	r2, r7, ip, lsr #32
    57b0:	2c444f49 	mcrrcs	15, 4, r4, r4, cr9
    57b4:	49504720 	ldmdbmi	r0, {r5, r8, r9, sl, lr}^
    57b8:	49505f4f 	ldmdbmi	r0, {r0, r1, r2, r3, r6, r8, r9, sl, fp, ip, lr}^
    57bc:	33315f4e 	teqcc	r1, #312	; 0x138
    57c0:	5845202c 	stmdapl	r5, {r2, r3, r5, sp}^
    57c4:	33314954 	teqcc	r1, #84, 18	; 0x150000
    57c8:	5152495f 	cmppl	r2, pc, asr r9
    57cc:	5047007d 	subpl	r0, r7, sp, ror r0
    57d0:	20414f49 	subcs	r4, r1, r9, asr #30
    57d4:	50472828 	subpl	r2, r7, r8, lsr #16
    57d8:	745f4f49 	ldrbvc	r4, [pc], #-3913	; 57e0 <_Min_Stack_Size+0x53e0>
    57dc:	47292a20 	strmi	r2, [r9, -r0, lsr #20]!
    57e0:	414f4950 	cmpmi	pc, r0, asr r9	; <UNPREDICTABLE>
    57e4:	5341425f 	movtpl	r4, #4703	; 0x125f
    57e8:	52002945 	andpl	r2, r0, #1130496	; 0x114000
    57ec:	28204343 	stmdacs	r0!, {r0, r1, r6, r8, r9, lr}
    57f0:	43435228 	movtmi	r5, #12840	; 0x3228
    57f4:	2a20745f 	bcs	822978 <_Min_Stack_Size+0x822578>
    57f8:	43435229 	movtmi	r5, #12841	; 0x3229
    57fc:	5341425f 	movtpl	r4, #4703	; 0x125f
    5800:	47002945 	strmi	r2, [r0, -r5, asr #18]
    5804:	5f4f4950 	svcpl	0x004f4950
    5808:	45444f4d 	strbmi	r4, [r4, #-3917]	; 0xfffff0b3
    580c:	504e495f 	subpl	r4, lr, pc, asr r9
    5810:	415f5455 	cmpmi	pc, r5, asr r4	; <UNPREDICTABLE>
    5814:	78302046 	ldmdavc	r0!, {r1, r2, r6, sp}
    5818:	30303030 	eorscc	r3, r0, r0, lsr r0
    581c:	38303030 	ldmdacc	r0!, {r4, r5, ip, sp}
    5820:	5f5f0055 	svcpl	0x005f0055
    5824:	4c42444c 	cfstrdmi	mvd4, [r2], {76}	; 0x4c
    5828:	4e494d5f 	mcrmi	13, 2, r4, cr9, cr15, {2}
    582c:	32205f5f 	eorcc	r5, r0, #380	; 0x17c
    5830:	3532322e 	ldrcc	r3, [r2, #-558]!	; 0xfffffdd2
    5834:	38333730 	ldmdacc	r3!, {r4, r5, r8, r9, sl, ip, sp}
    5838:	30353835 	eorscc	r3, r5, r5, lsr r8
    583c:	31303237 	teqcc	r0, r7, lsr r2
    5840:	332d6534 			; <UNDEFINED> instruction: 0x332d6534
    5844:	004c3830 	subeq	r3, ip, r0, lsr r8
    5848:	52415f5f 	subpl	r5, r1, #380	; 0x17c
    584c:	45465f4d 	strbmi	r5, [r6, #-3917]	; 0xfffff0b3
    5850:	52555441 	subspl	r5, r5, #1090519040	; 0x41000000
    5854:	44435f45 	strbmi	r5, [r3], #-3909	; 0xfffff0bb
    5858:	5f5f0045 	svcpl	0x005f0045
    585c:	55434341 	strbpl	r4, [r3, #-833]	; 0xfffffcbf
    5860:	42495f4d 	submi	r5, r9, #308	; 0x134
    5864:	5f5f5449 	svcpl	0x005f5449
    5868:	00363120 	eorseq	r3, r6, r0, lsr #2
    586c:	5f433249 	svcpl	0x00433249
    5870:	5f315253 	svcpl	0x00315253
    5874:	52444441 	subpl	r4, r4, #1090519040	; 0x41000000
    5878:	736f505f 	cmnvc	pc, #95	; 0x5f
    587c:	55312820 	ldrpl	r2, [r1, #-2080]!	; 0xfffff7e0
    5880:	50470029 	subpl	r0, r7, r9, lsr #32
    5884:	4d5f4f49 	ldclmi	15, cr4, [pc, #-292]	; 5768 <_Min_Stack_Size+0x5368>
    5888:	5f45444f 	svcpl	0x0045444f
    588c:	5054554f 	subspl	r5, r4, pc, asr #10
    5890:	415f5455 	cmpmi	pc, r5, asr r4	; <UNPREDICTABLE>
    5894:	444f5f46 	strbmi	r5, [pc], #-3910	; 589c <_Min_Stack_Size+0x549c>
    5898:	30783020 	rsbscc	r3, r8, r0, lsr #32
    589c:	30303030 	eorscc	r3, r0, r0, lsr r0
    58a0:	55373030 	ldrpl	r3, [r7, #-48]!	; 0xffffffd0
    58a4:	43324900 	teqmi	r2, #0, 18
    58a8:	52455f32 	subpl	r5, r5, #50, 30	; 0xc8
    58ac:	5152495f 	cmppl	r2, pc, asr r9
    58b0:	00343320 	eorseq	r3, r4, r0, lsr #6
    58b4:	49545845 	ldmdbmi	r4, {r0, r2, r6, fp, ip, lr}^
    58b8:	38445038 	stmdacc	r4, {r3, r4, r5, ip, lr}^
    58bc:	58452820 	stmdapl	r5, {r5, fp, sp}^
    58c0:	4d5f4954 	vldrmi.16	s9, [pc, #-168]	; 5820 <_Min_Stack_Size+0x5420>	; <UNPREDICTABLE>
    58c4:	69707061 	ldmdbvs	r0!, {r0, r5, r6, ip, sp, lr}^
    58c8:	745f676e 	ldrbvc	r6, [pc], #-1902	; 58d0 <_Min_Stack_Size+0x54d0>
    58cc:	58457b29 	stmdapl	r5, {r0, r3, r5, r8, r9, fp, ip, sp, lr}^
    58d0:	2c384954 			; <UNDEFINED> instruction: 0x2c384954
    58d4:	49504720 	ldmdbmi	r0, {r5, r8, r9, sl, lr}^
    58d8:	202c444f 	eorcs	r4, ip, pc, asr #8
    58dc:	4f495047 	svcmi	0x00495047
    58e0:	4e49505f 	mcrmi	0, 2, r5, cr9, cr15, {2}
    58e4:	202c385f 	eorcs	r3, ip, pc, asr r8
    58e8:	49545845 	ldmdbmi	r4, {r0, r2, r6, fp, ip, lr}^
    58ec:	52495f38 	subpl	r5, r9, #56, 30	; 0xe0
    58f0:	45007d51 	strmi	r7, [r0, #-3409]	; 0xfffff2af
    58f4:	31495458 	cmpcc	r9, r8, asr r4
    58f8:	52495f32 	subpl	r5, r9, #50, 30	; 0xc8
    58fc:	30342051 	eorscc	r2, r4, r1, asr r0
    5900:	555f5f00 	ldrbpl	r5, [pc, #-3840]	; 4a08 <_Min_Stack_Size+0x4608>
    5904:	31544e49 	cmpcc	r4, r9, asr #28
    5908:	28435f36 	stmdacs	r3, {r1, r2, r4, r5, r8, r9, sl, fp, ip, lr}^
    590c:	63202963 			; <UNDEFINED> instruction: 0x63202963
    5910:	555f5f00 	ldrbpl	r5, [pc, #-3840]	; 4a18 <_Min_Stack_Size+0x4618>
    5914:	495f4144 	ldmdbmi	pc, {r2, r6, r8, lr}^	; <UNPREDICTABLE>
    5918:	5f544942 	svcpl	0x00544942
    591c:	3233205f 	eorscc	r2, r3, #95	; 0x5f
    5920:	4e5f5f00 	cdpmi	15, 5, cr5, cr15, cr0, {0}
    5924:	4e495f4f 	cdpmi	15, 4, cr5, cr9, cr15, {2}
    5928:	454e494c 	strbmi	r4, [lr, #-2380]	; 0xfffff6b4
    592c:	31205f5f 			; <UNDEFINED> instruction: 0x31205f5f
    5930:	43324900 	teqmi	r2, #0, 18
    5934:	3152535f 	cmpcc	r2, pc, asr r3
    5938:	5f42535f 	svcpl	0x0042535f
    593c:	20736f50 	rsbscs	r6, r3, r0, asr pc
    5940:	29553028 	ldmdbcs	r5, {r3, r5, ip, sp}^
    5944:	415f5f00 	cmpmi	pc, r0, lsl #30
    5948:	494d4f54 	stmdbmi	sp, {r2, r4, r6, r8, r9, sl, fp, lr}^
    594c:	45525f43 	ldrbmi	r5, [r2, #-3907]	; 0xfffff0bd
    5950:	4558414c 	ldrbmi	r4, [r8, #-332]	; 0xfffffeb4
    5954:	00302044 	eorseq	r2, r0, r4, asr #32
    5958:	52415f5f 	subpl	r5, r1, #380	; 0x17c
    595c:	45465f4d 	strbmi	r5, [r6, #-3917]	; 0xfffff0b3
    5960:	52555441 	subspl	r5, r5, #1090519040	; 0x41000000
    5964:	4f435f45 	svcmi	0x00435f45
    5968:	434f5250 	movtmi	r5, #62032	; 0xf250
    596c:	55504300 	ldrbpl	r4, [r0, #-768]	; 0xfffffd00
    5970:	6363415f 	cmnvs	r3, #-1073741801	; 0xc0000017
    5974:	4c737365 	ldclmi	3, cr7, [r3], #-404	; 0xfffffe6c
    5978:	6c657665 	stclvs	6, cr7, [r5], #-404	; 0xfffffe6c
    597c:	5f00745f 	svcpl	0x0000745f
    5980:	4c42445f 	cfstrdmi	mvd4, [r2], {95}	; 0x5f
    5984:	5341485f 	movtpl	r4, #6239	; 0x185f
    5988:	464e495f 			; <UNDEFINED> instruction: 0x464e495f
    598c:	54494e49 	strbpl	r4, [r9], #-3657	; 0xfffff1b7
    5990:	205f5f59 	subscs	r5, pc, r9, asr pc	; <UNPREDICTABLE>
    5994:	5f5f0031 	svcpl	0x005f0031
    5998:	5f474953 	svcpl	0x00474953
    599c:	4d4f5441 	cfstrdmi	mvd5, [pc, #-260]	; 58a0 <_Min_Stack_Size+0x54a0>
    59a0:	4d5f4349 	ldclmi	3, cr4, [pc, #-292]	; 5884 <_Min_Stack_Size+0x5484>
    59a4:	5f5f5841 	svcpl	0x005f5841
    59a8:	37783020 	ldrbcc	r3, [r8, -r0, lsr #32]!
    59ac:	66666666 	strbtvs	r6, [r6], -r6, ror #12
    59b0:	00666666 	rsbeq	r6, r6, r6, ror #12
    59b4:	4c465f5f 	mcrrmi	15, 5, r5, r6, cr15
    59b8:	5f343654 	svcpl	0x00343654
    59bc:	544e414d 	strbpl	r4, [lr], #-333	; 0xfffffeb3
    59c0:	4749445f 	smlsldmi	r4, r9, pc, r4	; <UNPREDICTABLE>
    59c4:	35205f5f 	strcc	r5, [r0, #-3935]!	; 0xfffff0a1
    59c8:	32490033 	subcc	r0, r9, #51	; 0x33
    59cc:	52535f43 	subspl	r5, r3, #268	; 0x10c
    59d0:	45505f31 	ldrbmi	r5, [r0, #-3889]	; 0xfffff0cf
    59d4:	52524543 	subspl	r4, r2, #281018368	; 0x10c00000
    59d8:	6b734d5f 	blvs	1cd8f5c <_Min_Stack_Size+0x1cd8b5c>
    59dc:	78302820 	ldmdavc	r0!, {r5, fp, sp}
    59e0:	204c5531 	subcs	r5, ip, r1, lsr r5
    59e4:	49203c3c 	stmdbmi	r0!, {r2, r3, r4, r5, sl, fp, ip, sp}
    59e8:	535f4332 	cmppl	pc, #-939524096	; 0xc8000000
    59ec:	505f3152 	subspl	r3, pc, r2, asr r1	; <UNPREDICTABLE>
    59f0:	52454345 	subpl	r4, r5, #335544321	; 0x14000001
    59f4:	6f505f52 	svcvs	0x00505f52
    59f8:	45002973 	strmi	r2, [r0, #-2419]	; 0xfffff68d
    59fc:	39495458 	stmdbcc	r9, {r3, r4, r6, sl, ip, lr}^
    5a00:	6c61635f 	stclvs	3, cr6, [r1], #-380	; 0xfffffe84
    5a04:	6361626c 	cmnvs	r1, #108, 4	; 0xc0000006
    5a08:	3249006b 	subcc	r0, r9, #107	; 0x6b
    5a0c:	52435f43 	subpl	r5, r3, #268	; 0x10c
    5a10:	54495f32 	strbpl	r5, [r9], #-3890	; 0xfffff0ce
    5a14:	45525245 	ldrbmi	r5, [r2, #-581]	; 0xfffffdbb
    5a18:	3249204e 	subcc	r2, r9, #78	; 0x4e
    5a1c:	52435f43 	subpl	r5, r3, #268	; 0x10c
    5a20:	54495f32 	strbpl	r5, [r9], #-3890	; 0xfffff0ce
    5a24:	45525245 	ldrbmi	r5, [r2, #-581]	; 0xfffffdbb
    5a28:	734d5f4e 	movtvc	r5, #57166	; 0xdf4e
    5a2c:	5845006b 	stmdapl	r5, {r0, r1, r3, r5, r6}^
    5a30:	5f374954 	svcpl	0x00374954
    5a34:	20515249 	subscs	r5, r1, r9, asr #4
    5a38:	4c003332 	stcmi	3, cr3, [r0], {50}	; 0x32
    5a3c:	445f4443 	ldrbmi	r4, [pc], #-1091	; 5a44 <_Min_Stack_Size+0x5644>
    5a40:	4d415244 	sfmmi	f5, 2, [r1, #-272]	; 0xfffffef0
    5a44:	4154535f 	cmpmi	r4, pc, asr r3
    5a48:	30205452 	eorcc	r5, r0, r2, asr r4
    5a4c:	00303878 	eorseq	r3, r0, r8, ror r8
    5a50:	49545845 	ldmdbmi	r4, {r0, r2, r6, fp, ip, lr}^
    5a54:	70614d5f 	rsbvc	r4, r1, pc, asr sp
    5a58:	676e6970 			; <UNDEFINED> instruction: 0x676e6970
    5a5c:	4c00745f 	cfstrsmi	mvf7, [r0], {95}	; 0x5f
    5a60:	445f4443 	ldrbmi	r4, [pc], #-1091	; 5a68 <_Min_Stack_Size+0x5668>
    5a64:	4c505349 	mrrcmi	3, 4, r5, r0, cr9
    5a68:	4f5f5941 	svcmi	0x005f5941
    5a6c:	435f4646 	cmpmi	pc, #73400320	; 0x4600000
    5a70:	4f535255 	svcmi	0x00535255
    5a74:	464f5f52 			; <UNDEFINED> instruction: 0x464f5f52
    5a78:	78302046 	ldmdavc	r0!, {r1, r2, r6, sp}
    5a7c:	5f003830 	svcpl	0x00003830
    5a80:	4553555f 	ldrbmi	r5, [r3, #-1375]	; 0xfffffaa1
    5a84:	4e495f53 	mcrmi	15, 2, r5, cr9, cr3, {2}
    5a88:	49465449 	stmdbmi	r6, {r0, r3, r6, sl, ip, lr}^
    5a8c:	5f5f494e 	svcpl	0x005f494e
    5a90:	55003120 	strpl	r3, [r0, #-288]	; 0xfffffee0
    5a94:	54524153 	ldrbpl	r4, [r2], #-339	; 0xfffffead
    5a98:	28282031 	stmdacs	r8!, {r0, r4, r5, sp}
    5a9c:	52415355 	subpl	r5, r1, #1409286145	; 0x54000001
    5aa0:	20745f54 	rsbscs	r5, r4, r4, asr pc
    5aa4:	5355292a 	cmppl	r5, #688128	; 0xa8000
    5aa8:	31545241 	cmpcc	r4, r1, asr #4
    5aac:	5341425f 	movtpl	r4, #4703	; 0x125f
    5ab0:	49002945 	stmdbmi	r0, {r0, r2, r6, r8, fp, sp}
    5ab4:	535f4332 	cmppl	pc, #-939524096	; 0xc8000000
    5ab8:	525f3152 	subspl	r3, pc, #-2147483628	; 0x80000014
    5abc:	20454e58 	subcs	r4, r5, r8, asr lr
    5ac0:	5f433249 	svcpl	0x00433249
    5ac4:	5f315253 	svcpl	0x00315253
    5ac8:	454e5852 	strbmi	r5, [lr, #-2130]	; 0xfffff7ae
    5acc:	6b734d5f 	blvs	1cd9050 <_Min_Stack_Size+0x1cd8c50>
    5ad0:	49564e00 	ldmdbmi	r6, {r9, sl, fp, lr}^
    5ad4:	52495f43 	subpl	r5, r9, #268	; 0x10c
    5ad8:	5f385f51 	svcpl	0x00385f51
    5adc:	49545845 	ldmdbmi	r4, {r0, r2, r6, fp, ip, lr}^
    5ae0:	69445f32 	stmdbvs	r4, {r1, r4, r5, r8, r9, sl, fp, ip, lr}^
    5ae4:	6c626173 	stfvse	f6, [r2], #-460	; 0xfffffe34
    5ae8:	20292865 	eorcs	r2, r9, r5, ror #16
    5aec:	49564e28 	ldmdbmi	r6, {r3, r5, r9, sl, fp, lr}^
    5af0:	43495f43 	movtmi	r5, #40771	; 0x9f43
    5af4:	20305245 	eorscs	r5, r0, r5, asr #4
    5af8:	31203d7c 			; <UNDEFINED> instruction: 0x31203d7c
    5afc:	29383c3c 	ldmdbcs	r8!, {r2, r3, r4, r5, sl, fp, ip, sp}
    5b00:	445f5f00 	ldrbmi	r5, [pc], #-3840	; 5b08 <_Min_Stack_Size+0x5708>
    5b04:	445f4c42 	ldrbmi	r4, [pc], #-3138	; 5b0c <_Min_Stack_Size+0x570c>
    5b08:	4d494345 	stclmi	3, cr4, [r9, #-276]	; 0xfffffeec
    5b0c:	445f4c41 	ldrbmi	r4, [pc], #-3137	; 5b14 <_Min_Stack_Size+0x5714>
    5b10:	5f5f4749 	svcpl	0x005f4749
    5b14:	00373120 	eorseq	r3, r7, r0, lsr #2
    5b18:	5f433249 	svcpl	0x00433249
    5b1c:	5f325253 	svcpl	0x00325253
    5b20:	4c415544 	cfstr64mi	mvdx5, [r1], {68}	; 0x44
    5b24:	734d5f46 	movtvc	r5, #57158	; 0xdf46
    5b28:	3028206b 	eorcc	r2, r8, fp, rrx
    5b2c:	4c553178 	ldfmie	f3, [r5], {120}	; 0x78
    5b30:	203c3c20 	eorscs	r3, ip, r0, lsr #24
    5b34:	5f433249 	svcpl	0x00433249
    5b38:	5f325253 	svcpl	0x00325253
    5b3c:	4c415544 	cfstr64mi	mvdx5, [r1], {68}	; 0x44
    5b40:	6f505f46 	svcvs	0x00505f46
    5b44:	49002973 	stmdbmi	r0, {r0, r1, r4, r5, r6, r8, fp, sp}
    5b48:	435f4332 	cmpmi	pc, #-939524096	; 0xc8000000
    5b4c:	455f3152 	ldrbmi	r3, [pc, #-338]	; 5a02 <_Min_Stack_Size+0x5602>
    5b50:	4345504e 	movtmi	r5, #20558	; 0x504e
    5b54:	43324920 	teqmi	r2, #32, 18	; 0x80000
    5b58:	3152435f 	cmpcc	r2, pc, asr r3
    5b5c:	504e455f 	subpl	r4, lr, pc, asr r5
    5b60:	4d5f4345 	ldclmi	3, cr4, [pc, #-276]	; 5a54 <_Min_Stack_Size+0x5654>
    5b64:	5f006b73 	svcpl	0x00006b73
    5b68:	414c555f 	cmpmi	ip, pc, asr r5
    5b6c:	4d554343 	ldclmi	3, cr4, [r5, #-268]	; 0xfffffef4
    5b70:	4942465f 	stmdbmi	r2, {r0, r1, r2, r3, r4, r6, r9, sl, lr}^
    5b74:	205f5f54 	subscs	r5, pc, r4, asr pc	; <UNPREDICTABLE>
    5b78:	47003233 	smladxmi	r0, r3, r2, r3
    5b7c:	444f4950 	strbmi	r4, [pc], #-2384	; 5b84 <_Min_Stack_Size+0x5784>
    5b80:	47282820 	strmi	r2, [r8, -r0, lsr #16]!
    5b84:	5f4f4950 	svcpl	0x004f4950
    5b88:	292a2074 	stmdbcs	sl!, {r2, r4, r5, r6, sp}
    5b8c:	4f495047 	svcmi	0x00495047
    5b90:	41425f44 	cmpmi	r2, r4, asr #30
    5b94:	00294553 	eoreq	r4, r9, r3, asr r5
    5b98:	5f433249 	svcpl	0x00433249
    5b9c:	5f325253 	svcpl	0x00325253
    5ba0:	44424d53 	strbmi	r4, [r2], #-3411	; 0xfffff2ad
    5ba4:	55414645 	strbpl	r4, [r1, #-1605]	; 0xfffff9bb
    5ba8:	4920544c 	stmdbmi	r0!, {r2, r3, r6, sl, ip, lr}
    5bac:	535f4332 	cmppl	pc, #-939524096	; 0xc8000000
    5bb0:	535f3252 	cmppl	pc, #536870917	; 0x20000005
    5bb4:	4544424d 	strbmi	r4, [r4, #-589]	; 0xfffffdb3
    5bb8:	4c554146 	ldfmie	f4, [r5], {70}	; 0x46
    5bbc:	734d5f54 	movtvc	r5, #57172	; 0xdf54
    5bc0:	4841006b 	stmdami	r1, {r0, r1, r3, r5, r6}^
    5bc4:	524e4542 	subpl	r4, lr, #276824064	; 0x10800000
    5bc8:	495f5f00 	ldmdbmi	pc, {r8, r9, sl, fp, ip, lr}^	; <UNPREDICTABLE>
    5bcc:	3631544e 	ldrtcc	r5, [r1], -lr, asr #8
    5bd0:	58414d5f 	stmdapl	r1, {r0, r1, r2, r3, r4, r6, r8, sl, fp, lr}^
    5bd4:	30205f5f 	eorcc	r5, r0, pc, asr pc
    5bd8:	66663778 			; <UNDEFINED> instruction: 0x66663778
    5bdc:	58450066 	stmdapl	r5, {r1, r2, r5, r6}^
    5be0:	50344954 	eorspl	r4, r4, r4, asr r9
    5be4:	28203443 	stmdacs	r0!, {r0, r1, r6, sl, ip, sp}
    5be8:	49545845 	ldmdbmi	r4, {r0, r2, r6, fp, ip, lr}^
    5bec:	70614d5f 	rsbvc	r4, r1, pc, asr sp
    5bf0:	676e6970 			; <UNDEFINED> instruction: 0x676e6970
    5bf4:	7b29745f 	blvc	a62d78 <_Min_Stack_Size+0xa62978>
    5bf8:	49545845 	ldmdbmi	r4, {r0, r2, r6, fp, ip, lr}^
    5bfc:	47202c34 			; <UNDEFINED> instruction: 0x47202c34
    5c00:	434f4950 	movtmi	r4, #63824	; 0xf950
    5c04:	5047202c 	subpl	r2, r7, ip, lsr #32
    5c08:	505f4f49 	subspl	r4, pc, r9, asr #30
    5c0c:	345f4e49 	ldrbcc	r4, [pc], #-3657	; 5c14 <_Min_Stack_Size+0x5814>
    5c10:	5845202c 	stmdapl	r5, {r2, r3, r5, sp}^
    5c14:	5f344954 	svcpl	0x00344954
    5c18:	7d515249 	lfmvc	f5, 2, [r1, #-292]	; 0xfffffedc
    5c1c:	43324900 	teqmi	r2, #0, 18
    5c20:	3152535f 	cmpcc	r2, pc, asr r3
    5c24:	4c52415f 	ldfmie	f4, [r2], {95}	; 0x5f
    5c28:	6f505f4f 	svcvs	0x00505f4f
    5c2c:	39282073 	stmdbcc	r8!, {r0, r1, r4, r5, r6, sp}
    5c30:	47002955 	smlsdmi	r0, r5, r9, r2
    5c34:	5f4f4950 	svcpl	0x004f4950
    5c38:	5f4e4950 	svcpl	0x004e4950
    5c3c:	28203531 	stmdacs	r0!, {r0, r4, r5, r8, sl, ip, sp}
    5c40:	6e697528 	cdpvs	5, 6, cr7, cr9, cr8, {1}
    5c44:	5f363174 	svcpl	0x00363174
    5c48:	78302974 	ldmdavc	r0!, {r2, r4, r5, r6, r8, fp, sp}
    5c4c:	30303038 	eorscc	r3, r0, r8, lsr r0
    5c50:	5f5f0029 	svcpl	0x005f0029
    5c54:	5f544e49 	svcpl	0x00544e49
    5c58:	54444957 	strbpl	r4, [r4], #-2391	; 0xfffff6a9
    5c5c:	205f5f48 	subscs	r5, pc, r8, asr #30
    5c60:	49003233 	stmdbmi	r0, {r0, r1, r4, r5, r9, ip, sp}
    5c64:	435f4332 	cmpmi	pc, #-939524096	; 0xc8000000
    5c68:	505f3152 	subspl	r3, pc, r2, asr r1	; <UNPREDICTABLE>
    5c6c:	4d5f534f 	ldclmi	3, cr5, [pc, #-316]	; 5b38 <_Min_Stack_Size+0x5738>
    5c70:	28206b73 	stmdacs	r0!, {r0, r1, r4, r5, r6, r8, r9, fp, sp, lr}
    5c74:	55317830 	ldrpl	r7, [r1, #-2096]!	; 0xfffff7d0
    5c78:	3c3c204c 	ldccc	0, cr2, [ip], #-304	; 0xfffffed0
    5c7c:	43324920 	teqmi	r2, #32, 18	; 0x80000
    5c80:	3152435f 	cmpcc	r2, pc, asr r3
    5c84:	534f505f 	movtpl	r5, #61535	; 0xf05f
    5c88:	736f505f 	cmnvc	pc, #95	; 0x5f
    5c8c:	43520029 	cmpmi	r2, #41	; 0x29
    5c90:	50475f43 	subpl	r5, r7, r3, asr #30
    5c94:	5f444f49 	svcpl	0x00444f49
    5c98:	5f4b4c43 	svcpl	0x004b4c43
    5c9c:	29284e45 	stmdbcs	r8!, {r0, r2, r6, r9, sl, fp, lr}
    5ca0:	54455320 	strbpl	r5, [r5], #-800	; 0xfffffce0
    5ca4:	5449425f 	strbpl	r4, [r9], #-607	; 0xfffffda1
    5ca8:	43435228 	movtmi	r5, #12840	; 0x3228
    5cac:	50413e2d 	subpl	r3, r1, sp, lsr #28
    5cb0:	4e453242 	cdpmi	2, 4, cr3, cr5, cr2, {2}
    5cb4:	29352c52 	ldmdbcs	r5!, {r1, r4, r6, sl, fp, sp}
    5cb8:	49564e00 	ldmdbmi	r6, {r9, sl, fp, lr}^
    5cbc:	52495f43 	subpl	r5, r9, #268	; 0x10c
    5cc0:	30315f51 	eorscc	r5, r1, r1, asr pc
    5cc4:	5458455f 	ldrbpl	r4, [r8], #-1375	; 0xfffffaa1
    5cc8:	455f3449 	ldrbmi	r3, [pc, #-1097]	; 5887 <_Min_Stack_Size+0x5487>
    5ccc:	6c62616e 	stfvse	f6, [r2], #-440	; 0xfffffe48
    5cd0:	20292865 	eorcs	r2, r9, r5, ror #16
    5cd4:	49564e28 	ldmdbmi	r6, {r3, r5, r9, sl, fp, lr}^
    5cd8:	53495f43 	movtpl	r5, #40771	; 0x9f43
    5cdc:	20305245 	eorscs	r5, r0, r5, asr #4
    5ce0:	31203d7c 			; <UNDEFINED> instruction: 0x31203d7c
    5ce4:	30313c3c 	eorscc	r3, r1, ip, lsr ip
    5ce8:	5f5f0029 	svcpl	0x005f0029
    5cec:	5f434347 	svcpl	0x00434347
    5cf0:	5f434549 	svcpl	0x00434549
    5cf4:	5f393535 	svcpl	0x00393535
    5cf8:	504d4f43 	subpl	r4, sp, r3, asr #30
    5cfc:	2058454c 	subscs	r4, r8, ip, asr #10
    5d00:	53420030 	movtpl	r0, #8240	; 0x2030
    5d04:	45005252 	strmi	r5, [r0, #-594]	; 0xfffffdae
    5d08:	31495458 	cmpcc	r9, r8, asr r4
    5d0c:	20314150 	eorscs	r4, r1, r0, asr r1
    5d10:	54584528 	ldrbpl	r4, [r8], #-1320	; 0xfffffad8
    5d14:	614d5f49 	cmpvs	sp, r9, asr #30
    5d18:	6e697070 	mcrvs	0, 3, r7, cr9, cr0, {3}
    5d1c:	29745f67 	ldmdbcs	r4!, {r0, r1, r2, r5, r6, r8, r9, sl, fp, ip, lr}^
    5d20:	5458457b 	ldrbpl	r4, [r8], #-1403	; 0xfffffa85
    5d24:	202c3149 	eorcs	r3, ip, r9, asr #2
    5d28:	4f495047 	svcmi	0x00495047
    5d2c:	47202c41 	strmi	r2, [r0, -r1, asr #24]!
    5d30:	5f4f4950 	svcpl	0x004f4950
    5d34:	5f4e4950 	svcpl	0x004e4950
    5d38:	45202c31 	strmi	r2, [r0, #-3121]!	; 0xfffff3cf
    5d3c:	31495458 	cmpcc	r9, r8, asr r4
    5d40:	5152495f 	cmppl	r2, pc, asr r9
    5d44:	3249007d 	subcc	r0, r9, #125	; 0x7d
    5d48:	52535f43 	subspl	r5, r3, #268	; 0x10c
    5d4c:	4d535f32 	ldclmi	15, cr5, [r3, #-200]	; 0xffffff38
    5d50:	534f4842 	movtpl	r4, #63554	; 0xf842
    5d54:	32492054 	subcc	r2, r9, #84	; 0x54
    5d58:	52535f43 	subspl	r5, r3, #268	; 0x10c
    5d5c:	4d535f32 	ldclmi	15, cr5, [r3, #-200]	; 0xffffff38
    5d60:	534f4842 	movtpl	r4, #63554	; 0xf842
    5d64:	734d5f54 	movtvc	r5, #57172	; 0xdf54
    5d68:	5f5f006b 	svcpl	0x005f006b
    5d6c:	5f474953 	svcpl	0x00474953
    5d70:	4d4f5441 	cfstrdmi	mvd5, [pc, #-260]	; 5c74 <_Min_Stack_Size+0x5874>
    5d74:	575f4349 	ldrbpl	r4, [pc, -r9, asr #6]
    5d78:	48544449 	ldmdami	r4, {r0, r3, r6, sl, lr}^
    5d7c:	33205f5f 			; <UNDEFINED> instruction: 0x33205f5f
    5d80:	5f5f0032 	svcpl	0x005f0032
    5d84:	36544c46 	ldrbcc	r4, [r4], -r6, asr #24
    5d88:	50455f34 	subpl	r5, r5, r4, lsr pc
    5d8c:	4f4c4953 	svcmi	0x004c4953
    5d90:	205f5f4e 	subscs	r5, pc, lr, asr #30
    5d94:	32322e32 	eorscc	r2, r2, #800	; 0x320
    5d98:	36343430 			; <UNDEFINED> instruction: 0x36343430
    5d9c:	32393430 	eorscc	r3, r9, #48, 8	; 0x30000000
    5da0:	31333035 	teqcc	r3, r5, lsr r0
    5da4:	2d653133 	stfcse	f3, [r5, #-204]!	; 0xffffff34
    5da8:	36463631 			; <UNDEFINED> instruction: 0x36463631
    5dac:	32490034 	subcc	r0, r9, #52	; 0x34
    5db0:	52535f43 	subspl	r5, r3, #268	; 0x10c
    5db4:	44415f31 	strbmi	r5, [r1], #-3889	; 0xfffff0cf
    5db8:	5f303144 	svcpl	0x00303144
    5dbc:	20736f50 	rsbscs	r6, r3, r0, asr pc
    5dc0:	29553328 	ldmdbcs	r5, {r3, r5, r8, r9, ip, sp}^
    5dc4:	49504700 	ldmdbmi	r0, {r8, r9, sl, lr}^
    5dc8:	4f4d5f4f 	svcmi	0x004d5f4f
    5dcc:	4f5f4544 	svcmi	0x005f4544
    5dd0:	55505455 	ldrbpl	r5, [r0, #-1109]	; 0xfffffbab
    5dd4:	46415f54 			; <UNDEFINED> instruction: 0x46415f54
    5dd8:	2050505f 	subscs	r5, r0, pc, asr r0
    5ddc:	30307830 	eorscc	r7, r0, r0, lsr r8
    5de0:	30303030 	eorscc	r3, r0, r0, lsr r0
    5de4:	00553630 	subseq	r3, r5, r0, lsr r6
    5de8:	4349564e 	movtmi	r5, #38478	; 0x964e
    5dec:	5152495f 	cmppl	r2, pc, asr r9
    5df0:	535f3533 	cmppl	pc, #213909504	; 0xcc00000
    5df4:	5f314950 	svcpl	0x00314950
    5df8:	62616e45 	rsbvs	r6, r1, #1104	; 0x450
    5dfc:	2928656c 	stmdbcs	r8!, {r2, r3, r5, r6, r8, sl, sp, lr}
    5e00:	564e2820 	strbpl	r2, [lr], -r0, lsr #16
    5e04:	495f4349 	ldmdbmi	pc, {r0, r3, r6, r8, r9, lr}^	; <UNPREDICTABLE>
    5e08:	31524553 	cmpcc	r2, r3, asr r5
    5e0c:	203d7c20 	eorscs	r7, sp, r0, lsr #24
    5e10:	283c3c31 	ldmdacs	ip!, {r0, r4, r5, sl, fp, ip, sp}
    5e14:	31495053 	qdaddcc	r5, r3, r9
    5e18:	5152495f 	cmppl	r2, pc, asr r9
    5e1c:	33202d20 			; <UNDEFINED> instruction: 0x33202d20
    5e20:	00292932 	eoreq	r2, r9, r2, lsr r9
    5e24:	54555f5f 	ldrbpl	r5, [r5], #-3935	; 0xfffff0a1
    5e28:	42495f41 	submi	r5, r9, #260	; 0x104
    5e2c:	5f5f5449 	svcpl	0x005f5449
    5e30:	00343620 	eorseq	r3, r4, r0, lsr #12
    5e34:	4c555f5f 	mrrcmi	15, 5, r5, r5, cr15	; <UNPREDICTABLE>
    5e38:	4343414c 	movtmi	r4, #12620	; 0x314c
    5e3c:	495f4d55 	ldmdbmi	pc, {r0, r2, r4, r6, r8, sl, fp, lr}^	; <UNPREDICTABLE>
    5e40:	5f544942 	svcpl	0x00544942
    5e44:	3233205f 	eorscc	r2, r3, #95	; 0x5f
    5e48:	415f5f00 	cmpmi	pc, r0, lsl #30
    5e4c:	465f4d52 			; <UNDEFINED> instruction: 0x465f4d52
    5e50:	55544145 	ldrbpl	r4, [r4, #-325]	; 0xfffffebb
    5e54:	435f4552 	cmpmi	pc, #343932928	; 0x14800000
    5e58:	32334352 	eorscc	r4, r3, #1207959553	; 0x48000001
    5e5c:	4c5f5f00 	mrrcmi	15, 0, r5, pc, cr0	; <UNPREDICTABLE>
    5e60:	43415246 	movtmi	r5, #4678	; 0x1246
    5e64:	42465f54 	submi	r5, r6, #84, 30	; 0x150
    5e68:	5f5f5449 	svcpl	0x005f5449
    5e6c:	00313320 	eorseq	r3, r1, r0, lsr #6
    5e70:	4c555f5f 	mrrcmi	15, 5, r5, r5, cr15	; <UNPREDICTABLE>
    5e74:	4152464c 	cmpmi	r2, ip, asr #12
    5e78:	455f5443 	ldrbmi	r5, [pc, #-1091]	; 5a3d <_Min_Stack_Size+0x563d>
    5e7c:	4c495350 	mcrrmi	3, 5, r5, r9, cr0
    5e80:	5f5f4e4f 	svcpl	0x005f4e4f
    5e84:	31783020 	cmncc	r8, r0, lsr #32
    5e88:	34362d50 	ldrtcc	r2, [r6], #-3408	; 0xfffff2b0
    5e8c:	524c4c55 	subpl	r4, ip, #21760	; 0x5500
    5e90:	535f5f00 	cmppl	pc, #0, 30
    5e94:	4f455a49 	svcmi	0x00455a49
    5e98:	49575f46 	ldmdbmi	r7, {r1, r2, r6, r8, r9, sl, fp, ip, lr}^
    5e9c:	545f544e 	ldrbpl	r5, [pc], #-1102	; 5ea4 <_Min_Stack_Size+0x5aa4>
    5ea0:	34205f5f 	strtcc	r5, [r0], #-3935	; 0xfffff0a1
    5ea4:	43324900 	teqmi	r2, #0, 18
    5ea8:	3152535f 	cmpcc	r2, pc, asr r3
    5eac:	4444415f 	strbmi	r4, [r4], #-351	; 0xfffffea1
    5eb0:	32492052 	subcc	r2, r9, #82	; 0x52
    5eb4:	52535f43 	subspl	r5, r3, #268	; 0x10c
    5eb8:	44415f31 	strbmi	r5, [r1], #-3889	; 0xfffff0cf
    5ebc:	4d5f5244 	lfmmi	f5, 2, [pc, #-272]	; 5db4 <_Min_Stack_Size+0x59b4>
    5ec0:	5f006b73 	svcpl	0x00006b73
    5ec4:	4d52415f 	ldfmie	f4, [r2, #-380]	; 0xfffffe84
    5ec8:	4145465f 	cmpmi	r5, pc, asr r6
    5ecc:	45525554 	ldrbmi	r5, [r2, #-1364]	; 0xfffffaac
    5ed0:	414e555f 	cmpmi	lr, pc, asr r5
    5ed4:	4e47494c 	vmlsmi.f16	s9, s14, s24	; <UNPREDICTABLE>
    5ed8:	31204445 			; <UNDEFINED> instruction: 0x31204445
    5edc:	475f5f00 	ldrbmi	r5, [pc, -r0, lsl #30]
    5ee0:	545f5858 	ldrbpl	r5, [pc], #-2136	; 5ee8 <_Min_Stack_Size+0x5ae8>
    5ee4:	49455059 	stmdbmi	r5, {r0, r3, r4, r6, ip, lr}^
    5ee8:	5f4f464e 	svcpl	0x004f464e
    5eec:	41555145 	cmpmi	r5, r5, asr #2
    5ef0:	5954494c 	ldmdbpl	r4, {r2, r3, r6, r8, fp, lr}^
    5ef4:	4c4e495f 	mcrrmi	9, 5, r4, lr, cr15	; <UNPREDICTABLE>
    5ef8:	20454e49 	subcs	r4, r5, r9, asr #28
    5efc:	5f5f0030 	svcpl	0x005f0030
    5f00:	4c42444c 	cfstrdmi	mvd4, [r2], {76}	; 0x4c
    5f04:	4345445f 	movtmi	r4, #21599	; 0x545f
    5f08:	4c414d49 	mcrrmi	13, 4, r4, r1, cr9
    5f0c:	4749445f 	smlsldmi	r4, r9, pc, r4	; <UNPREDICTABLE>
    5f10:	31205f5f 			; <UNDEFINED> instruction: 0x31205f5f
    5f14:	616d0037 	cmnvs	sp, r7, lsr r0
    5f18:	5f006e69 	svcpl	0x00006e69
    5f1c:	43414c5f 	movtmi	r4, #7263	; 0x1c5f
    5f20:	5f4d5543 	svcpl	0x004d5543
    5f24:	5f4e494d 	svcpl	0x004e494d
    5f28:	2d28205f 	stccs	0, cr2, [r8, #-380]!	; 0xfffffe84
    5f2c:	50315830 	eorspl	r5, r1, r0, lsr r8
    5f30:	4b4c3133 	blmi	1312404 <_Min_Stack_Size+0x1312004>
    5f34:	3158302d 	cmpcc	r8, sp, lsr #32
    5f38:	4c313350 	ldcmi	3, cr3, [r1], #-320	; 0xfffffec0
    5f3c:	5f00294b 	svcpl	0x0000294b
    5f40:	4d52415f 	ldfmie	f4, [r2, #-380]	; 0xfffffe84
    5f44:	4241455f 	submi	r4, r1, #398458880	; 0x17c00000
    5f48:	205f5f49 	subscs	r5, pc, r9, asr #30
    5f4c:	5f5f0031 	svcpl	0x005f0031
    5f50:	33544c46 	cmpcc	r4, #17920	; 0x4600
    5f54:	41485f32 	cmpmi	r8, r2, lsr pc
    5f58:	45445f53 	strbmi	r5, [r4, #-3923]	; 0xfffff0ad
    5f5c:	4d524f4e 	ldclmi	15, cr4, [r2, #-312]	; 0xfffffec8
    5f60:	31205f5f 			; <UNDEFINED> instruction: 0x31205f5f
    5f64:	49564e00 	ldmdbmi	r6, {r9, sl, fp, lr}^
    5f68:	52495f43 	subpl	r5, r9, #268	; 0x10c
    5f6c:	5f313351 	svcpl	0x00313351
    5f70:	31433249 	cmpcc	r3, r9, asr #4
    5f74:	5f56455f 	svcpl	0x0056455f
    5f78:	62616e45 	rsbvs	r6, r1, #1104	; 0x450
    5f7c:	2928656c 	stmdbcs	r8!, {r2, r3, r5, r6, r8, sl, sp, lr}
    5f80:	564e2820 	strbpl	r2, [lr], -r0, lsr #16
    5f84:	495f4349 	ldmdbmi	pc, {r0, r3, r6, r8, r9, lr}^	; <UNPREDICTABLE>
    5f88:	30524553 	subscc	r4, r2, r3, asr r5
    5f8c:	203d7c20 	eorscs	r7, sp, r0, lsr #24
    5f90:	283c3c31 	ldmdacs	ip!, {r0, r4, r5, sl, fp, ip, sp}
    5f94:	43324920 	teqmi	r2, #32, 18	; 0x80000
    5f98:	56455f31 			; <UNDEFINED> instruction: 0x56455f31
    5f9c:	5152495f 	cmppl	r2, pc, asr r9
    5fa0:	00292920 	eoreq	r2, r9, r0, lsr #18
    5fa4:	4349564e 	movtmi	r5, #38478	; 0x964e
    5fa8:	5152495f 	cmppl	r2, pc, asr r9
    5fac:	535f3633 	cmppl	pc, #53477376	; 0x3300000
    5fb0:	5f324950 	svcpl	0x00324950
    5fb4:	61736944 	cmnvs	r3, r4, asr #18
    5fb8:	28656c62 	stmdacs	r5!, {r1, r5, r6, sl, fp, sp, lr}^
    5fbc:	4e282029 	cdpmi	0, 2, cr2, cr8, cr9, {1}
    5fc0:	5f434956 	svcpl	0x00434956
    5fc4:	52454349 	subpl	r4, r5, #603979777	; 0x24000001
    5fc8:	3d7c2031 	ldclcc	0, cr2, [ip, #-196]!	; 0xffffff3c
    5fcc:	3c3c3120 	ldfccs	f3, [ip], #-128	; 0xffffff80
    5fd0:	49505328 	ldmdbmi	r0, {r3, r5, r8, r9, ip, lr}^
    5fd4:	52495f32 	subpl	r5, r9, #50, 30	; 0xc8
    5fd8:	202d2051 	eorcs	r2, sp, r1, asr r0
    5fdc:	29293233 	stmdbcs	r9!, {r0, r1, r4, r5, r9, ip, sp}
    5fe0:	445f5f00 	ldrbmi	r5, [pc], #-3840	; 5fe8 <_Min_Stack_Size+0x5be8>
    5fe4:	445f4c42 	ldrbmi	r4, [pc], #-3138	; 5fec <_Min_Stack_Size+0x5bec>
    5fe8:	524f4e45 	subpl	r4, pc, #1104	; 0x450
    5fec:	494d5f4d 	stmdbmi	sp, {r0, r2, r3, r6, r8, r9, sl, fp, ip, lr}^
    5ff0:	205f5f4e 	subscs	r5, pc, lr, asr #30
    5ff4:	6f642828 	svcvs	0x00642828
    5ff8:	656c6275 	strbvs	r6, [ip, #-629]!	; 0xfffffd8b
    5ffc:	392e3429 	stmdbcc	lr!, {r0, r3, r5, sl, ip, sp}
    6000:	35363034 	ldrcc	r3, [r6, #-52]!	; 0xffffffcc
    6004:	38353436 	ldmdacc	r5!, {r1, r2, r4, r5, sl, ip, sp}
    6008:	34323134 	ldrtcc	r3, [r2], #-308	; 0xfffffecc
    600c:	65343536 	ldrvs	r3, [r4, #-1334]!	; 0xfffffaca
    6010:	3432332d 	ldrtcc	r3, [r2], #-813	; 0xfffffcd3
    6014:	5f00294c 	svcpl	0x0000294c
    6018:	4c4c555f 	cfstr64mi	mvdx5, [ip], {95}	; 0x5f
    601c:	55434341 	strbpl	r4, [r3, #-833]	; 0xfffffcbf
    6020:	494d5f4d 	stmdbmi	sp, {r0, r2, r3, r6, r8, r9, sl, fp, ip, lr}^
    6024:	205f5f4e 	subscs	r5, pc, lr, asr #30
    6028:	55302e30 	ldrpl	r2, [r0, #-3632]!	; 0xfffff1d0
    602c:	004b4c4c 	subeq	r4, fp, ip, asr #24
    6030:	4e495f5f 	mcrmi	15, 2, r5, cr9, cr15, {2}
    6034:	41465f54 	cmpmi	r6, r4, asr pc
    6038:	32335453 	eorscc	r5, r3, #1392508928	; 0x53000000
    603c:	4449575f 	strbmi	r5, [r9], #-1887	; 0xfffff8a1
    6040:	5f5f4854 	svcpl	0x005f4854
    6044:	00323320 	eorseq	r3, r2, r0, lsr #6
    6048:	4349564e 	movtmi	r5, #38478	; 0x964e
    604c:	5152495f 	cmppl	r2, pc, asr r9
    6050:	455f385f 	ldrbmi	r3, [pc, #-2143]	; 57f9 <_Min_Stack_Size+0x53f9>
    6054:	32495458 	subcc	r5, r9, #88, 8	; 0x58000000
    6058:	616e455f 	cmnvs	lr, pc, asr r5
    605c:	28656c62 	stmdacs	r5!, {r1, r5, r6, sl, fp, sp, lr}^
    6060:	4e282029 	cdpmi	0, 2, cr2, cr8, cr9, {1}
    6064:	5f434956 	svcpl	0x00434956
    6068:	52455349 	subpl	r5, r5, #603979777	; 0x24000001
    606c:	3d7c2030 	ldclcc	0, cr2, [ip, #-192]!	; 0xffffff40
    6070:	3c3c3120 	ldfccs	f3, [ip], #-128	; 0xffffff80
    6074:	5f002938 	svcpl	0x00002938
    6078:	4d52415f 	ldfmie	f4, [r2, #-380]	; 0xfffffe84
    607c:	4d53415f 	ldfmie	f4, [r3, #-380]	; 0xfffffe84
    6080:	4e59535f 	mrcmi	3, 2, r5, cr9, cr15, {2}
    6084:	5f584154 	svcpl	0x00584154
    6088:	46494e55 			; <UNDEFINED> instruction: 0x46494e55
    608c:	5f444549 	svcpl	0x00444549
    6090:	0031205f 	eorseq	r2, r1, pc, asr r0
    6094:	4f495047 	svcmi	0x00495047
    6098:	444f4d5f 	strbmi	r4, [pc], #-3423	; 60a0 <_Min_Stack_Size+0x5ca0>
    609c:	4e495f45 	cdpmi	15, 4, cr5, cr9, cr5, {2}
    60a0:	5f545550 	svcpl	0x00545550
    60a4:	204f4c46 	subcs	r4, pc, r6, asr #24
    60a8:	30307830 	eorscc	r7, r0, r0, lsr r8
    60ac:	30303030 	eorscc	r3, r0, r0, lsr r0
    60b0:	00553130 	subseq	r3, r5, r0, lsr r1
    60b4:	5f433249 	svcpl	0x00433249
    60b8:	5f315253 	svcpl	0x00315253
    60bc:	49204641 	stmdbmi	r0!, {r0, r6, r9, sl, lr}
    60c0:	535f4332 	cmppl	pc, #-939524096	; 0xc8000000
    60c4:	415f3152 	cmpmi	pc, r2, asr r1	; <UNPREDICTABLE>
    60c8:	734d5f46 	movtvc	r5, #57158	; 0xdf46
    60cc:	5f5f006b 	svcpl	0x005f006b
    60d0:	544e4955 	strbpl	r4, [lr], #-2389	; 0xfffff6ab
    60d4:	545f3233 	ldrbpl	r3, [pc], #-563	; 60dc <_Min_Stack_Size+0x5cdc>
    60d8:	5f455059 	svcpl	0x00455059
    60dc:	6f6c205f 	svcvs	0x006c205f
    60e0:	7520676e 	strvc	r6, [r0, #-1902]!	; 0xfffff892
    60e4:	6769736e 	strbvs	r7, [r9, -lr, ror #6]!
    60e8:	2064656e 	rsbcs	r6, r4, lr, ror #10
    60ec:	00746e69 	rsbseq	r6, r4, r9, ror #28
    60f0:	4f494641 	svcmi	0x00494641
    60f4:	41282820 			; <UNDEFINED> instruction: 0x41282820
    60f8:	5f4f4946 	svcpl	0x004f4946
    60fc:	292a2074 	stmdbcs	sl!, {r2, r4, r5, r6, sp}
    6100:	4f494641 	svcmi	0x00494641
    6104:	5341425f 	movtpl	r4, #4703	; 0x125f
    6108:	5f002945 	svcpl	0x00002945
    610c:	4d52415f 	ldfmie	f4, [r2, #-380]	; 0xfffffe84
    6110:	4145465f 	cmpmi	r5, pc, asr r6
    6114:	45525554 	ldrbmi	r5, [r2, #-1364]	; 0xfffffaac
    6118:	544f445f 	strbpl	r4, [pc], #-1119	; 6120 <_Min_Stack_Size+0x5d20>
    611c:	444f5250 	strbmi	r5, [pc], #-592	; 6124 <_Min_Stack_Size+0x5d24>
    6120:	745f5f00 	ldrbvc	r5, [pc], #-3840	; 6128 <_Min_Stack_Size+0x5d28>
    6124:	626d7568 	rsbvs	r7, sp, #104, 10	; 0x1a000000
    6128:	205f5f32 	subscs	r5, pc, r2, lsr pc	; <UNPREDICTABLE>
    612c:	58450031 	stmdapl	r5, {r0, r4, r5}^
    6130:	5f344954 	svcpl	0x00344954
    6134:	20515249 	subscs	r5, r1, r9, asr #4
    6138:	5f003031 	svcpl	0x00003031
    613c:	4c4c555f 	cfstr64mi	mvdx5, [ip], {95}	; 0x5f
    6140:	43415246 	movtmi	r5, #4678	; 0x1246
    6144:	494d5f54 	stmdbmi	sp, {r2, r4, r6, r8, r9, sl, fp, ip, lr}^
    6148:	205f5f4e 	subscs	r5, pc, lr, asr #30
    614c:	55302e30 	ldrpl	r2, [r0, #-3632]!	; 0xfffff1d0
    6150:	00524c4c 	subseq	r4, r2, ip, asr #24
    6154:	49535f5f 	ldmdbmi	r3, {r0, r1, r2, r3, r4, r6, r8, r9, sl, fp, ip, lr}^
    6158:	464f455a 			; <UNDEFINED> instruction: 0x464f455a
    615c:	544e495f 	strbpl	r4, [lr], #-2399	; 0xfffff6a1
    6160:	34205f5f 	strtcc	r5, [r0], #-3935	; 0xfffff0a1
    6164:	4c5f5f00 	mrrcmi	15, 0, r5, pc, cr0	; <UNPREDICTABLE>
    6168:	4152464c 	cmpmi	r2, ip, asr #12
    616c:	495f5443 	ldmdbmi	pc, {r0, r1, r6, sl, ip, lr}^	; <UNPREDICTABLE>
    6170:	5f544942 	svcpl	0x00544942
    6174:	0030205f 	eorseq	r2, r0, pc, asr r0
    6178:	49545845 	ldmdbmi	r4, {r0, r2, r6, fp, ip, lr}^
    617c:	36445036 			; <UNDEFINED> instruction: 0x36445036
    6180:	58452820 	stmdapl	r5, {r5, fp, sp}^
    6184:	4d5f4954 	vldrmi.16	s9, [pc, #-168]	; 60e4 <_Min_Stack_Size+0x5ce4>	; <UNPREDICTABLE>
    6188:	69707061 	ldmdbvs	r0!, {r0, r5, r6, ip, sp, lr}^
    618c:	745f676e 	ldrbvc	r6, [pc], #-1902	; 6194 <_Min_Stack_Size+0x5d94>
    6190:	58457b29 	stmdapl	r5, {r0, r3, r5, r8, r9, fp, ip, sp, lr}^
    6194:	2c364954 			; <UNDEFINED> instruction: 0x2c364954
    6198:	49504720 	ldmdbmi	r0, {r5, r8, r9, sl, lr}^
    619c:	202c444f 	eorcs	r4, ip, pc, asr #8
    61a0:	4f495047 	svcmi	0x00495047
    61a4:	4e49505f 	mcrmi	0, 2, r5, cr9, cr15, {2}
    61a8:	202c365f 	eorcs	r3, ip, pc, asr r6
    61ac:	49545845 	ldmdbmi	r4, {r0, r2, r6, fp, ip, lr}^
    61b0:	52495f36 	subpl	r5, r9, #54, 30	; 0xd8
    61b4:	52007d51 	andpl	r7, r0, #5184	; 0x1440
    61b8:	495f4343 	ldmdbmi	pc, {r0, r1, r6, r8, r9, lr}^	; <UNPREDICTABLE>
    61bc:	5f314332 	svcpl	0x00314332
    61c0:	65736552 	ldrbvs	r6, [r3, #-1362]!	; 0xfffffaae
    61c4:	20292874 	eorcs	r2, r9, r4, ror r8
    61c8:	43435228 	movtmi	r5, #12840	; 0x3228
    61cc:	50413e2d 	subpl	r3, r1, sp, lsr #28
    61d0:	53523142 	cmppl	r2, #-2147483632	; 0x80000010
    61d4:	7c205254 	sfmvc	f5, 4, [r0], #-336	; 0xfffffeb0
    61d8:	3c31203d 	ldccc	0, cr2, [r1], #-244	; 0xffffff0c
    61dc:	2931323c 	ldmdbcs	r1!, {r2, r3, r4, r5, r9, ip, sp}
    61e0:	535f5f00 	cmppl	pc, #0, 30
    61e4:	55434341 	strbpl	r4, [r3, #-833]	; 0xfffffcbf
    61e8:	50455f4d 	subpl	r5, r5, sp, asr #30
    61ec:	4f4c4953 	svcmi	0x004c4953
    61f0:	205f5f4e 	subscs	r5, pc, lr, asr #30
    61f4:	50317830 	eorspl	r7, r1, r0, lsr r8
    61f8:	4b48372d 	blmi	1213eb4 <_Min_Stack_Size+0x1213ab4>
    61fc:	475f5f00 	ldrbmi	r5, [pc, -r0, lsl #30]
    6200:	415f4343 	cmpmi	pc, r3, asr #6
    6204:	465f4d53 			; <UNDEFINED> instruction: 0x465f4d53
    6208:	5f47414c 	svcpl	0x0047414c
    620c:	5054554f 	subspl	r5, r4, pc, asr #10
    6210:	5f535455 	svcpl	0x00535455
    6214:	0031205f 	eorseq	r2, r1, pc, asr r0
    6218:	49535f5f 	ldmdbmi	r3, {r0, r1, r2, r3, r4, r6, r8, r9, sl, fp, ip, lr}^
    621c:	464f455a 			; <UNDEFINED> instruction: 0x464f455a
    6220:	4843575f 	stmdami	r3, {r0, r1, r2, r3, r4, r6, r8, r9, sl, ip, lr}^
    6224:	545f5241 	ldrbpl	r5, [pc], #-577	; 622c <_Min_Stack_Size+0x5e2c>
    6228:	34205f5f 	strtcc	r5, [r0], #-3935	; 0xfffff0a1
    622c:	54584500 	ldrbpl	r4, [r8], #-1280	; 0xfffffb00
    6230:	50333149 	eorspl	r3, r3, r9, asr #2
    6234:	20333143 	eorscs	r3, r3, r3, asr #2
    6238:	54584528 	ldrbpl	r4, [r8], #-1320	; 0xfffffad8
    623c:	614d5f49 	cmpvs	sp, r9, asr #30
    6240:	6e697070 	mcrvs	0, 3, r7, cr9, cr0, {3}
    6244:	29745f67 	ldmdbcs	r4!, {r0, r1, r2, r5, r6, r8, r9, sl, fp, ip, lr}^
    6248:	5458457b 	ldrbpl	r4, [r8], #-1403	; 0xfffffa85
    624c:	2c333149 	ldfcss	f3, [r3], #-292	; 0xfffffedc
    6250:	49504720 	ldmdbmi	r0, {r5, r8, r9, sl, lr}^
    6254:	202c434f 	eorcs	r4, ip, pc, asr #6
    6258:	4f495047 	svcmi	0x00495047
    625c:	4e49505f 	mcrmi	0, 2, r5, cr9, cr15, {2}
    6260:	2c33315f 	ldfcss	f3, [r3], #-380	; 0xfffffe84
    6264:	54584520 	ldrbpl	r4, [r8], #-1312	; 0xfffffae0
    6268:	5f333149 	svcpl	0x00333149
    626c:	7d515249 	lfmvc	f5, 2, [r1, #-292]	; 0xfffffedc
    6270:	43324900 	teqmi	r2, #0, 18
    6274:	3152535f 	cmpcc	r2, pc, asr r3
    6278:	4f54535f 	svcmi	0x0054535f
    627c:	505f4650 	subspl	r4, pc, r0, asr r6	; <UNPREDICTABLE>
    6280:	2820736f 	stmdacs	r0!, {r0, r1, r2, r3, r5, r6, r8, r9, ip, sp, lr}
    6284:	00295534 	eoreq	r5, r9, r4, lsr r5
    6288:	49555f5f 	ldmdbmi	r5, {r0, r1, r2, r3, r4, r6, r8, r9, sl, fp, ip, lr}^
    628c:	465f544e 	ldrbmi	r5, [pc], -lr, asr #8
    6290:	31545341 	cmpcc	r4, r1, asr #6
    6294:	59545f36 	ldmdbpl	r4, {r1, r2, r4, r5, r8, r9, sl, fp, ip, lr}^
    6298:	5f5f4550 	svcpl	0x005f4550
    629c:	736e7520 	cmnvc	lr, #32, 10	; 0x8000000
    62a0:	656e6769 	strbvs	r6, [lr, #-1897]!	; 0xfffff897
    62a4:	6e692064 	cdpvs	0, 6, cr2, cr9, cr4, {3}
    62a8:	5f5f0074 	svcpl	0x005f0074
    62ac:	5f414855 	svcpl	0x00414855
    62b0:	54494249 	strbpl	r4, [r9], #-585	; 0xfffffdb7
    62b4:	38205f5f 	stmdacc	r0!, {r0, r1, r2, r3, r4, r6, r8, r9, sl, fp, ip, lr}
    62b8:	475f5f00 	ldrbmi	r5, [pc, -r0, lsl #30]
    62bc:	5f43554e 	svcpl	0x0043554e
    62c0:	43445453 	movtmi	r5, #17491	; 0x4453
    62c4:	4c4e495f 	mcrrmi	9, 5, r4, lr, cr15	; <UNPREDICTABLE>
    62c8:	5f454e49 	svcpl	0x00454e49
    62cc:	0031205f 	eorseq	r2, r1, pc, asr r0
    62d0:	43415f5f 	movtmi	r5, #8031	; 0x1f5f
    62d4:	5f4d5543 	svcpl	0x004d5543
    62d8:	49535045 	ldmdbmi	r3, {r0, r2, r6, ip, lr}^
    62dc:	5f4e4f4c 	svcpl	0x004e4f4c
    62e0:	7830205f 	ldmdavc	r0!, {r0, r1, r2, r3, r4, r6, sp}
    62e4:	312d5031 			; <UNDEFINED> instruction: 0x312d5031
    62e8:	5f004b35 	svcpl	0x00004b35
    62ec:	414c555f 	cmpmi	ip, pc, asr r5
    62f0:	4d554343 	ldclmi	3, cr4, [r5, #-268]	; 0xfffffef4
    62f4:	5350455f 	cmppl	r0, #398458880	; 0x17c00000
    62f8:	4e4f4c49 	cdpmi	12, 4, cr4, cr15, cr9, {2}
    62fc:	30205f5f 	eorcc	r5, r0, pc, asr pc
    6300:	2d503178 	ldfcse	f3, [r0, #-480]	; 0xfffffe20
    6304:	4c553233 	lfmmi	f3, 2, [r5], {51}	; 0x33
    6308:	5f5f004b 	svcpl	0x005f004b
    630c:	4c42444c 	cfstrdmi	mvd4, [r2], {76}	; 0x4c
    6310:	4749445f 	smlsldmi	r4, r9, pc, r4	; <UNPREDICTABLE>
    6314:	31205f5f 			; <UNDEFINED> instruction: 0x31205f5f
    6318:	32490035 	subcc	r0, r9, #53	; 0x35
    631c:	52535f43 	subspl	r5, r3, #268	; 0x10c
    6320:	55445f32 	strbpl	r5, [r4, #-3890]	; 0xfffff0ce
    6324:	5f464c41 	svcpl	0x00464c41
    6328:	20736f50 	rsbscs	r6, r3, r0, asr pc
    632c:	29553728 	ldmdbcs	r5, {r3, r5, r8, r9, sl, ip, sp}^
    6330:	535f5f00 	cmppl	pc, #0, 30
    6334:	5f455a49 	svcpl	0x00455a49
    6338:	54444957 	strbpl	r4, [r4], #-2391	; 0xfffff6a9
    633c:	205f5f48 	subscs	r5, pc, r8, asr #30
    6340:	4e003233 	mcrmi	2, 0, r3, cr0, cr3, {1}
    6344:	5f434956 	svcpl	0x00434956
    6348:	33515249 	cmpcc	r1, #-1879048188	; 0x90000004
    634c:	53555f39 	cmppl	r5, #57, 30	; 0xe4
    6350:	33545241 	cmpcc	r4, #268435460	; 0x10000004
    6354:	616e455f 	cmnvs	lr, pc, asr r5
    6358:	28656c62 	stmdacs	r5!, {r1, r5, r6, sl, fp, sp, lr}^
    635c:	4e282029 	cdpmi	0, 2, cr2, cr8, cr9, {1}
    6360:	5f434956 	svcpl	0x00434956
    6364:	52455349 	subpl	r5, r5, #603979777	; 0x24000001
    6368:	3d7c2031 	ldclcc	0, cr2, [ip, #-196]!	; 0xffffff3c
    636c:	3c3c3120 	ldfccs	f3, [ip], #-128	; 0xffffff80
    6370:	41535528 	cmpmi	r3, r8, lsr #10
    6374:	5f335452 	svcpl	0x00335452
    6378:	20515249 	subscs	r5, r1, r9, asr #4
    637c:	3233202d 	eorscc	r2, r3, #45	; 0x2d
    6380:	5f002929 	svcpl	0x00002929
    6384:	544c465f 	strbpl	r4, [ip], #-1631	; 0xfffff9a1
    6388:	445f3233 	ldrbmi	r3, [pc], #-563	; 6390 <_Min_Stack_Size+0x5f90>
    638c:	524f4e45 	subpl	r4, pc, #1104	; 0x450
    6390:	494d5f4d 	stmdbmi	sp, {r0, r2, r3, r6, r8, r9, sl, fp, ip, lr}^
    6394:	205f5f4e 	subscs	r5, pc, lr, asr #30
    6398:	30342e31 	eorscc	r2, r4, r1, lsr lr
    639c:	38393231 	ldmdacc	r9!, {r0, r4, r5, r9, ip, sp}
    63a0:	33343634 	teqcc	r4, #52, 12	; 0x3400000
    63a4:	31383432 	teqcc	r8, r2, lsr r4
    63a8:	2d653137 	stfcse	f3, [r5, #-220]!	; 0xffffff24
    63ac:	33463534 	movtcc	r3, #25908	; 0x6534
    63b0:	5f5f0032 	svcpl	0x005f0032
    63b4:	544e4957 	strbpl	r4, [lr], #-2391	; 0xfffff6a9
    63b8:	4e494d5f 	mcrmi	13, 2, r4, cr9, cr15, {2}
    63bc:	30205f5f 	eorcc	r5, r0, pc, asr pc
    63c0:	5f5f0055 	svcpl	0x005f0055
    63c4:	36544c46 	ldrbcc	r4, [r4], -r6, asr #24
    63c8:	49445f34 	stmdbmi	r4, {r2, r4, r5, r8, r9, sl, fp, ip, lr}^
    63cc:	205f5f47 	subscs	r5, pc, r7, asr #30
    63d0:	5f003531 	svcpl	0x00003531
    63d4:	4e49575f 	mcrmi	7, 2, r5, cr9, cr15, {2}
    63d8:	414d5f54 	cmpmi	sp, r4, asr pc
    63dc:	205f5f58 	subscs	r5, pc, r8, asr pc	; <UNPREDICTABLE>
    63e0:	66667830 			; <UNDEFINED> instruction: 0x66667830
    63e4:	66666666 	strbtvs	r6, [r6], -r6, ror #12
    63e8:	00556666 	subseq	r6, r5, r6, ror #12
    63ec:	49545845 	ldmdbmi	r4, {r0, r2, r6, fp, ip, lr}^
    63f0:	37435037 	smlaldxcc	r5, r3, r7, r0
    63f4:	58452820 	stmdapl	r5, {r5, fp, sp}^
    63f8:	4d5f4954 	vldrmi.16	s9, [pc, #-168]	; 6358 <_Min_Stack_Size+0x5f58>	; <UNPREDICTABLE>
    63fc:	69707061 	ldmdbvs	r0!, {r0, r5, r6, ip, sp, lr}^
    6400:	745f676e 	ldrbvc	r6, [pc], #-1902	; 6408 <_Min_Stack_Size+0x6008>
    6404:	58457b29 	stmdapl	r5, {r0, r3, r5, r8, r9, fp, ip, sp, lr}^
    6408:	2c374954 			; <UNDEFINED> instruction: 0x2c374954
    640c:	49504720 	ldmdbmi	r0, {r5, r8, r9, sl, lr}^
    6410:	202c434f 	eorcs	r4, ip, pc, asr #6
    6414:	4f495047 	svcmi	0x00495047
    6418:	4e49505f 	mcrmi	0, 2, r5, cr9, cr15, {2}
    641c:	202c375f 	eorcs	r3, ip, pc, asr r7
    6420:	49545845 	ldmdbmi	r4, {r0, r2, r6, fp, ip, lr}^
    6424:	52495f37 	subpl	r5, r9, #55, 30	; 0xdc
    6428:	5f007d51 	svcpl	0x00007d51
    642c:	544e495f 	strbpl	r4, [lr], #-2399	; 0xfffff6a1
    6430:	41454c5f 	cmpmi	r5, pc, asr ip
    6434:	5f385453 	svcpl	0x00385453
    6438:	54444957 	strbpl	r4, [r4], #-2391	; 0xfffff6a9
    643c:	205f5f48 	subscs	r5, pc, r8, asr #30
    6440:	564e0038 			; <UNDEFINED> instruction: 0x564e0038
    6444:	495f4349 	ldmdbmi	pc, {r0, r3, r6, r8, r9, lr}^	; <UNPREDICTABLE>
    6448:	32524553 	subscc	r4, r2, #348127232	; 0x14c00000
    644c:	76282a20 	strtvc	r2, [r8], -r0, lsr #20
    6450:	74616c6f 	strbtvc	r6, [r1], #-3183	; 0xfffff391
    6454:	20656c69 	rsbcs	r6, r5, r9, ror #24
    6458:	746e6975 	strbtvc	r6, [lr], #-2421	; 0xfffff68b
    645c:	745f3233 	ldrbvc	r3, [pc], #-563	; 6464 <_Min_Stack_Size+0x6064>
    6460:	28292a20 	stmdacs	r9!, {r5, r9, fp, sp}
    6464:	4349564e 	movtmi	r5, #38478	; 0x964e
    6468:	5341425f 	movtpl	r4, #4703	; 0x125f
    646c:	202b2045 	eorcs	r2, fp, r5, asr #32
    6470:	38307830 	ldmdacc	r0!, {r4, r5, fp, ip, sp, lr}
    6474:	5f5f0029 	svcpl	0x005f0029
    6478:	5f544e49 	svcpl	0x00544e49
    647c:	5341454c 	movtpl	r4, #5452	; 0x154c
    6480:	5f363154 	svcpl	0x00363154
    6484:	45505954 	ldrbmi	r5, [r0, #-2388]	; 0xfffff6ac
    6488:	73205f5f 			; <UNDEFINED> instruction: 0x73205f5f
    648c:	74726f68 	ldrbtvc	r6, [r2], #-3944	; 0xfffff098
    6490:	746e6920 	strbtvc	r6, [lr], #-2336	; 0xfffff6e0
    6494:	515f5f00 	cmppl	pc, r0, lsl #30
    6498:	42465f51 	submi	r5, r6, #324	; 0x144
    649c:	5f5f5449 	svcpl	0x005f5449
    64a0:	49003720 	stmdbmi	r0, {r5, r8, r9, sl, ip, sp}
    64a4:	535f4332 	cmppl	pc, #-939524096	; 0xc8000000
    64a8:	505f3252 	subspl	r3, pc, r2, asr r2	; <UNPREDICTABLE>
    64ac:	4d5f4345 	ldclmi	3, cr4, [pc, #-276]	; 63a0 <_Min_Stack_Size+0x5fa0>
    64b0:	28206b73 	stmdacs	r0!, {r0, r1, r4, r5, r6, r8, r9, fp, sp, lr}
    64b4:	46467830 			; <UNDEFINED> instruction: 0x46467830
    64b8:	3c204c55 	stccc	12, cr4, [r0], #-340	; 0xfffffeac
    64bc:	3249203c 	subcc	r2, r9, #60	; 0x3c
    64c0:	52535f43 	subspl	r5, r3, #268	; 0x10c
    64c4:	45505f32 	ldrbmi	r5, [r0, #-3890]	; 0xfffff0ce
    64c8:	6f505f43 	svcvs	0x00505f43
    64cc:	5f002973 	svcpl	0x00002973
    64d0:	4c42445f 	cfstrdmi	mvd4, [r2], {95}	; 0x5f
    64d4:	58414d5f 	stmdapl	r1, {r0, r1, r2, r3, r4, r6, r8, sl, fp, lr}^
    64d8:	28205f5f 	stmdacs	r0!, {r0, r1, r2, r3, r4, r6, r8, r9, sl, fp, ip, lr}
    64dc:	756f6428 	strbvc	r6, [pc, #-1064]!	; 60bc <_Min_Stack_Size+0x5cbc>
    64e0:	29656c62 	stmdbcs	r5!, {r1, r5, r6, sl, fp, sp, lr}^
    64e4:	39372e31 	ldmdbcc	r7!, {r0, r4, r5, r9, sl, fp, sp}
    64e8:	33393637 	teqcc	r9, #57671680	; 0x3700000
    64ec:	38343331 	ldmdacc	r4!, {r0, r4, r5, r8, r9, ip, sp}
    64f0:	31333236 	teqcc	r3, r6, lsr r2
    64f4:	2b653735 	blcs	19541d0 <_Min_Stack_Size+0x1953dd0>
    64f8:	4c383033 	ldcmi	0, cr3, [r8], #-204	; 0xffffff34
    64fc:	32490029 	subcc	r0, r9, #41	; 0x29
    6500:	52435f43 	subpl	r5, r3, #268	; 0x10c
    6504:	4e455f31 	mcrmi	15, 2, r5, cr5, cr1, {1}
    6508:	5f505241 	svcpl	0x00505241
    650c:	206b734d 	rsbcs	r7, fp, sp, asr #6
    6510:	31783028 	cmncc	r8, r8, lsr #32
    6514:	3c204c55 	stccc	12, cr4, [r0], #-340	; 0xfffffeac
    6518:	3249203c 	subcc	r2, r9, #60	; 0x3c
    651c:	52435f43 	subpl	r5, r3, #268	; 0x10c
    6520:	4e455f31 	mcrmi	15, 2, r5, cr5, cr1, {1}
    6524:	5f505241 	svcpl	0x00505241
    6528:	29736f50 	ldmdbcs	r3!, {r4, r6, r8, r9, sl, fp, sp, lr}^
    652c:	6f6c6600 	svcvs	0x006c6600
    6530:	54007461 	strpl	r7, [r0], #-1121	; 0xfffffb9f
    6534:	416b7361 	cmnmi	fp, r1, ror #6
    6538:	616c465f 	cmnvs	ip, pc, asr r6
    653c:	5f5f0067 	svcpl	0x005f0067
    6540:	33544c46 	cmpcc	r4, #17920	; 0x4600
    6544:	41485f32 	cmpmi	r8, r2, lsr pc
    6548:	4e495f53 	mcrmi	15, 2, r5, cr9, cr3, {2}
    654c:	494e4946 	stmdbmi	lr, {r1, r2, r6, r8, fp, lr}^
    6550:	5f5f5954 	svcpl	0x005f5954
    6554:	5f003120 	svcpl	0x00003120
    6558:	7568745f 	strbvc	r7, [r8, #-1119]!	; 0xfffffba1
    655c:	5f5f626d 	svcpl	0x005f626d
    6560:	52003120 	andpl	r3, r0, #32, 2
    6564:	555f4343 	ldrbpl	r4, [pc, #-835]	; 6229 <_Min_Stack_Size+0x5e29>
    6568:	54524153 	ldrbpl	r4, [r2], #-339	; 0xfffffead
    656c:	45525f32 	ldrbmi	r5, [r2, #-3890]	; 0xfffff0ce
    6570:	28544553 	ldmdacs	r4, {r0, r1, r4, r6, r8, sl, lr}^
    6574:	52282029 	eorpl	r2, r8, #41	; 0x29
    6578:	3e2d4343 	cdpcc	3, 2, cr4, cr13, cr3, {2}
    657c:	31425041 	cmpcc	r2, r1, asr #32
    6580:	52545352 	subspl	r5, r4, #1207959553	; 0x48000001
    6584:	203d7c20 	eorscs	r7, sp, r0, lsr #24
    6588:	3c3c2031 	ldccc	0, cr2, [ip], #-196	; 0xffffff3c
    658c:	29373120 	ldmdbcs	r7!, {r5, r8, ip, sp}
    6590:	44434c00 	strbmi	r4, [r3], #-3072	; 0xfffff400
    6594:	524f505f 	subpl	r5, pc, #95	; 0x5f
    6598:	50472054 	subpl	r2, r7, r4, asr r0
    659c:	00414f49 	subeq	r4, r1, r9, asr #30
    65a0:	52415f5f 	subpl	r5, r1, #380	; 0x17c
    65a4:	5f4c454d 	svcpl	0x004c454d
    65a8:	0031205f 	eorseq	r2, r1, pc, asr r0
    65ac:	49545845 	ldmdbmi	r4, {r0, r2, r6, fp, ip, lr}^
    65b0:	33445033 	movtcc	r5, #16435	; 0x4033
    65b4:	58452820 	stmdapl	r5, {r5, fp, sp}^
    65b8:	4d5f4954 	vldrmi.16	s9, [pc, #-168]	; 6518 <_Min_Stack_Size+0x6118>	; <UNPREDICTABLE>
    65bc:	69707061 	ldmdbvs	r0!, {r0, r5, r6, ip, sp, lr}^
    65c0:	745f676e 	ldrbvc	r6, [pc], #-1902	; 65c8 <_Min_Stack_Size+0x61c8>
    65c4:	58457b29 	stmdapl	r5, {r0, r3, r5, r8, r9, fp, ip, sp, lr}^
    65c8:	2c334954 			; <UNDEFINED> instruction: 0x2c334954
    65cc:	49504720 	ldmdbmi	r0, {r5, r8, r9, sl, lr}^
    65d0:	202c444f 	eorcs	r4, ip, pc, asr #8
    65d4:	4f495047 	svcmi	0x00495047
    65d8:	4e49505f 	mcrmi	0, 2, r5, cr9, cr15, {2}
    65dc:	202c335f 	eorcs	r3, ip, pc, asr r3
    65e0:	49545845 	ldmdbmi	r4, {r0, r2, r6, fp, ip, lr}^
    65e4:	52495f33 	subpl	r5, r9, #51, 30	; 0xcc
    65e8:	5f007d51 	svcpl	0x00007d51
    65ec:	5f51485f 	svcpl	0x0051485f
    65f0:	54494246 	strbpl	r4, [r9], #-582	; 0xfffffdba
    65f4:	31205f5f 			; <UNDEFINED> instruction: 0x31205f5f
    65f8:	3a430035 	bcc	10c66d4 <_Min_Stack_Size+0x10c62d4>
    65fc:	6573552f 	ldrbvs	r5, [r3, #-1327]!	; 0xfffffad1
    6600:	692f7372 	stmdbvs	pc!, {r1, r4, r5, r6, r8, r9, ip, sp, lr}	; <UNPREDICTABLE>
    6604:	69616d73 	stmdbvs	r1!, {r0, r1, r4, r5, r6, r8, sl, fp, sp, lr}^
    6608:	6f442f6c 	svcvs	0x00442f6c
    660c:	6f6c6e77 	svcvs	0x006c6e77
    6610:	2f736461 	svccs	0x00736461
    6614:	7263694d 	rsbvc	r6, r3, #1261568	; 0x134000
    6618:	73455f6f 	movtvc	r5, #24431	; 0x5f6f
    661c:	746e6573 	strbtvc	r6, [lr], #-1395	; 0xfffffa8d
    6620:	5f6c6169 	svcpl	0x006c6169
    6624:	69726550 	ldmdbvs	r2!, {r4, r6, r8, sl, sp, lr}^
    6628:	72656870 	rsbvc	r6, r5, #112, 16	; 0x700000
    662c:	342f6c61 	strtcc	r6, [pc], #-3169	; 6634 <_Min_Stack_Size+0x6234>
    6630:	4950472e 	ldmdbmi	r0, {r1, r2, r3, r5, r8, r9, sl, lr}^
    6634:	5845204f 	stmdapl	r5, {r0, r1, r2, r3, r6, sp}^
    6638:	26204954 			; <UNDEFINED> instruction: 0x26204954
    663c:	63655320 	cmnvs	r5, #32, 6	; 0x80000000
    6640:	6e6f6974 			; <UNDEFINED> instruction: 0x6e6f6974
    6644:	62616c2f 	rsbvs	r6, r1, #12032	; 0x2f00
    6648:	73736120 	cmnvc	r3, #32, 2
    664c:	6d6e6769 	stclvs	7, cr6, [lr, #-420]!	; 0xfffffe5c
    6650:	2f746e65 	svccs	0x00746e65
    6654:	65646f63 	strbvs	r6, [r4, #-3939]!	; 0xfffff09d
    6658:	6265442f 	rsbvs	r4, r5, #788529152	; 0x2f000000
    665c:	49006775 	stmdbmi	r0, {r0, r2, r4, r5, r6, r8, r9, sl, sp, lr}
    6660:	435f4332 	cmpmi	pc, #-939524096	; 0xc8000000
    6664:	505f3152 	subspl	r3, pc, r2, asr r1	; <UNPREDICTABLE>
    6668:	4d5f4345 	ldclmi	3, cr4, [pc, #-276]	; 655c <_Min_Stack_Size+0x615c>
    666c:	28206b73 	stmdacs	r0!, {r0, r1, r4, r5, r6, r8, r9, fp, sp, lr}
    6670:	55317830 	ldrpl	r7, [r1, #-2096]!	; 0xfffff7d0
    6674:	3c3c204c 	ldccc	0, cr2, [ip], #-304	; 0xfffffed0
    6678:	43324920 	teqmi	r2, #32, 18	; 0x80000
    667c:	3152435f 	cmpcc	r2, pc, asr r3
    6680:	4345505f 	movtmi	r5, #20575	; 0x505f
    6684:	736f505f 	cmnvc	pc, #95	; 0x5f
    6688:	5f5f0029 	svcpl	0x005f0029
    668c:	455a4953 	ldrbmi	r4, [sl, #-2387]	; 0xfffff6ad
    6690:	58414d5f 	stmdapl	r1, {r0, r1, r2, r3, r4, r6, r8, sl, fp, lr}^
    6694:	30205f5f 	eorcc	r5, r0, pc, asr pc
    6698:	66666678 			; <UNDEFINED> instruction: 0x66666678
    669c:	66666666 	strbtvs	r6, [r6], -r6, ror #12
    66a0:	49005566 	stmdbmi	r0, {r1, r2, r5, r6, r8, sl, ip, lr}
    66a4:	435f4332 	cmpmi	pc, #-939524096	; 0xc8000000
    66a8:	465f3252 			; <UNDEFINED> instruction: 0x465f3252
    66ac:	20514552 	subscs	r4, r1, r2, asr r5
    66b0:	5f433249 	svcpl	0x00433249
    66b4:	5f325243 	svcpl	0x00325243
    66b8:	51455246 	cmppl	r5, r6, asr #4
    66bc:	6b734d5f 	blvs	1cd9c40 <_Min_Stack_Size+0x1cd9840>
    66c0:	44434c00 	strbmi	r4, [r3], #-3072	; 0xfffff400
    66c4:	5349445f 	movtpl	r4, #37983	; 0x945f
    66c8:	59414c50 	stmdbpl	r1, {r4, r6, sl, fp, lr}^
    66cc:	4948535f 	stmdbmi	r8, {r0, r1, r2, r3, r4, r6, r8, r9, ip, lr}^
    66d0:	525f5446 	subspl	r5, pc, #1174405120	; 0x46000000
    66d4:	54484749 	strbpl	r4, [r8], #-1865	; 0xfffff8b7
    66d8:	31783020 	cmncc	r8, r0, lsr #32
    66dc:	58450043 	stmdapl	r5, {r0, r1, r6}^
    66e0:	50384954 	eorspl	r4, r8, r4, asr r9
    66e4:	28203842 	stmdacs	r0!, {r1, r6, fp, ip, sp}
    66e8:	49545845 	ldmdbmi	r4, {r0, r2, r6, fp, ip, lr}^
    66ec:	70614d5f 	rsbvc	r4, r1, pc, asr sp
    66f0:	676e6970 			; <UNDEFINED> instruction: 0x676e6970
    66f4:	7b29745f 	blvc	a63878 <_Min_Stack_Size+0xa63478>
    66f8:	49545845 	ldmdbmi	r4, {r0, r2, r6, fp, ip, lr}^
    66fc:	47202c38 			; <UNDEFINED> instruction: 0x47202c38
    6700:	424f4950 	submi	r4, pc, #80, 18	; 0x140000
    6704:	5047202c 	subpl	r2, r7, ip, lsr #32
    6708:	505f4f49 	subspl	r4, pc, r9, asr #30
    670c:	385f4e49 	ldmdacc	pc, {r0, r3, r6, r9, sl, fp, lr}^	; <UNPREDICTABLE>
    6710:	5845202c 	stmdapl	r5, {r2, r3, r5, sp}^
    6714:	5f384954 	svcpl	0x00384954
    6718:	7d515249 	lfmvc	f5, 2, [r1, #-292]	; 0xfffffedc
    671c:	415f5f00 	cmpmi	pc, r0, lsl #30
    6720:	415f4d52 	cmpmi	pc, r2, asr sp	; <UNPREDICTABLE>
    6724:	00484352 	subeq	r4, r8, r2, asr r3
    6728:	5f433249 	svcpl	0x00433249
    672c:	5f315243 	svcpl	0x00315243
    6730:	504f5453 	subpl	r5, pc, r3, asr r4	; <UNPREDICTABLE>
    6734:	6b734d5f 	blvs	1cd9cb8 <_Min_Stack_Size+0x1cd98b8>
    6738:	78302820 	ldmdavc	r0!, {r5, fp, sp}
    673c:	204c5531 	subcs	r5, ip, r1, lsr r5
    6740:	49203c3c 	stmdbmi	r0!, {r2, r3, r4, r5, sl, fp, ip, sp}
    6744:	435f4332 	cmpmi	pc, #-939524096	; 0xc8000000
    6748:	535f3152 	cmppl	pc, #-2147483628	; 0x80000014
    674c:	5f504f54 	svcpl	0x00504f54
    6750:	29736f50 	ldmdbcs	r3!, {r4, r6, r8, r9, sl, fp, sp, lr}^
    6754:	4c5f5f00 	mrrcmi	15, 0, r5, pc, cr0	; <UNPREDICTABLE>
    6758:	5f474e4f 	svcpl	0x00474e4f
    675c:	5f58414d 	svcpl	0x0058414d
    6760:	7830205f 	ldmdavc	r0!, {r0, r1, r2, r3, r4, r6, sp}
    6764:	66666637 			; <UNDEFINED> instruction: 0x66666637
    6768:	66666666 	strbtvs	r6, [r6], -r6, ror #12
    676c:	5653004c 	ldrbpl	r0, [r3], -ip, asr #32
    6770:	61485f43 	cmpvs	r8, r3, asr #30
    6774:	656c646e 	strbvs	r6, [ip, #-1134]!	; 0xfffffb92
    6778:	58450072 	stmdapl	r5, {r1, r4, r5, r6}^
    677c:	20374954 	eorscs	r4, r7, r4, asr r9
    6780:	43520037 	cmpmi	r2, #55	; 0x37
    6784:	46415f43 	strbmi	r5, [r1], -r3, asr #30
    6788:	435f4f49 	cmpmi	pc, #292	; 0x124
    678c:	455f4b4c 	ldrbmi	r4, [pc, #-2892]	; 5c48 <_Min_Stack_Size+0x5848>
    6790:	2029284e 	eorcs	r2, r9, lr, asr #16
    6794:	5f544553 	svcpl	0x00544553
    6798:	28544942 	ldmdacs	r4, {r1, r6, r8, fp, lr}^
    679c:	2d434352 	stclcs	3, cr4, [r3, #-328]	; 0xfffffeb8
    67a0:	4250413e 	subsmi	r4, r0, #-2147483633	; 0x8000000f
    67a4:	524e4532 	subpl	r4, lr, #209715200	; 0xc800000
    67a8:	0029302c 	eoreq	r3, r9, ip, lsr #32
    67ac:	49545845 	ldmdbmi	r4, {r0, r2, r6, fp, ip, lr}^
    67b0:	00332033 	eorseq	r2, r3, r3, lsr r0
    67b4:	52415f5f 	subpl	r5, r1, #380	; 0x17c
    67b8:	45465f4d 	strbmi	r5, [r6, #-3917]	; 0xfffff0b3
    67bc:	52555441 	subspl	r5, r5, #1090519040	; 0x41000000
    67c0:	50465f45 	subpl	r5, r6, r5, asr #30
    67c4:	565f3631 			; <UNDEFINED> instruction: 0x565f3631
    67c8:	4f544345 	svcmi	0x00544345
    67cc:	52415f52 	subpl	r5, r1, #328	; 0x148
    67d0:	4d485449 	cfstrdmi	mvd5, [r8, #-292]	; 0xfffffedc
    67d4:	43495445 	movtmi	r5, #37957	; 0x9445
    67d8:	54584500 	ldrbpl	r4, [r8], #-1280	; 0xfffffb00
    67dc:	20333149 	eorscs	r3, r3, r9, asr #2
    67e0:	5f003331 	svcpl	0x00003331
    67e4:	4d52415f 	ldfmie	f4, [r2, #-380]	; 0xfffffe84
    67e8:	4145465f 	cmpmi	r5, pc, asr r6
    67ec:	45525554 	ldrbmi	r5, [r2, #-1364]	; 0xfffffaac
    67f0:	52444c5f 	subpl	r4, r4, #24320	; 0x5f00
    67f4:	37205845 	strcc	r5, [r0, -r5, asr #16]!
    67f8:	49564e00 	ldmdbmi	r6, {r9, sl, fp, lr}^
    67fc:	52495f43 	subpl	r5, r9, #268	; 0x10c
    6800:	5f383351 	svcpl	0x00383351
    6804:	52415355 	subpl	r5, r1, #1409286145	; 0x54000001
    6808:	445f3254 	ldrbmi	r3, [pc], #-596	; 6810 <_Min_Stack_Size+0x6410>
    680c:	62617369 	rsbvs	r7, r1, #-1543503871	; 0xa4000001
    6810:	2928656c 	stmdbcs	r8!, {r2, r3, r5, r6, r8, sl, sp, lr}
    6814:	564e2820 	strbpl	r2, [lr], -r0, lsr #16
    6818:	495f4349 	ldmdbmi	pc, {r0, r3, r6, r8, r9, lr}^	; <UNPREDICTABLE>
    681c:	31524543 	cmpcc	r2, r3, asr #10
    6820:	203d7c20 	eorscs	r7, sp, r0, lsr #24
    6824:	283c3c31 	ldmdacs	ip!, {r0, r4, r5, sl, fp, ip, sp}
    6828:	52415355 	subpl	r5, r1, #1409286145	; 0x54000001
    682c:	495f3254 	ldmdbmi	pc, {r2, r4, r6, r9, ip, sp}^	; <UNPREDICTABLE>
    6830:	2d205152 	stfcss	f5, [r0, #-328]!	; 0xfffffeb8
    6834:	29323320 	ldmdbcs	r2!, {r5, r8, r9, ip, sp}
    6838:	5f5f0029 	svcpl	0x005f0029
    683c:	455a4953 	ldrbmi	r4, [sl, #-2387]	; 0xfffff6ad
    6840:	5059545f 	subspl	r5, r9, pc, asr r4
    6844:	205f5f45 	subscs	r5, pc, r5, asr #30
    6848:	69736e75 	ldmdbvs	r3!, {r0, r2, r4, r5, r6, r9, sl, fp, sp, lr}^
    684c:	64656e67 	strbtvs	r6, [r5], #-3687	; 0xfffff199
    6850:	746e6920 	strbtvc	r6, [lr], #-2336	; 0xfffff6e0
    6854:	43324900 	teqmi	r2, #0, 18
    6858:	41425f32 	cmpmi	r2, r2, lsr pc
    685c:	30204553 	eorcc	r4, r0, r3, asr r5
    6860:	30303478 	eorscc	r3, r0, r8, ror r4
    6864:	30383530 	eorscc	r3, r8, r0, lsr r5
    6868:	004c5530 	subeq	r5, ip, r0, lsr r5
    686c:	4c4c5f5f 	mcrrmi	15, 5, r5, ip, cr15
    6870:	43415246 	movtmi	r5, #4678	; 0x1246
    6874:	50455f54 	subpl	r5, r5, r4, asr pc
    6878:	4f4c4953 	svcmi	0x004c4953
    687c:	205f5f4e 	subscs	r5, pc, lr, asr #30
    6880:	50317830 	eorspl	r7, r1, r0, lsr r8
    6884:	4c33362d 	ldcmi	6, cr3, [r3], #-180	; 0xffffff4c
    6888:	4500524c 	strmi	r5, [r0, #-588]	; 0xfffffdb4
    688c:	5047204e 	subpl	r2, r7, lr, asr #32
    6890:	505f4f49 	subspl	r4, pc, r9, asr #30
    6894:	315f4e49 	cmpcc	pc, r9, asr #28
    6898:	53550030 	cmppl	r5, #48	; 0x30
    689c:	32545241 	subscc	r5, r4, #268435460	; 0x10000004
    68a0:	55282820 	strpl	r2, [r8, #-2080]!	; 0xfffff7e0
    68a4:	54524153 	ldrbpl	r4, [r2], #-339	; 0xfffffead
    68a8:	2a20745f 	bcs	823a2c <_Min_Stack_Size+0x82362c>
    68ac:	41535529 	cmpmi	r3, r9, lsr #10
    68b0:	5f325452 	svcpl	0x00325452
    68b4:	45534142 	ldrbmi	r4, [r3, #-322]	; 0xfffffebe
    68b8:	5f5f0029 	svcpl	0x005f0029
    68bc:	5f4d5241 	svcpl	0x004d5241
    68c0:	54414546 	strbpl	r4, [r1], #-1350	; 0xfffffaba
    68c4:	5f455255 	svcpl	0x00455255
    68c8:	444d4953 	strbmi	r4, [sp], #-2387	; 0xfffff6ad
    68cc:	5f003233 	svcpl	0x00003233
    68d0:	544c465f 	strbpl	r4, [ip], #-1631	; 0xfffff9a1
    68d4:	5f583233 	svcpl	0x00583233
    68d8:	544e414d 	strbpl	r4, [lr], #-333	; 0xfffffeb3
    68dc:	4749445f 	smlsldmi	r4, r9, pc, r4	; <UNPREDICTABLE>
    68e0:	35205f5f 	strcc	r5, [r0, #-3935]!	; 0xfffff0a1
    68e4:	58450033 	stmdapl	r5, {r0, r1, r4, r5}^
    68e8:	20384954 	eorscs	r4, r8, r4, asr r9
    68ec:	50470038 	subpl	r0, r7, r8, lsr r0
    68f0:	505f4f49 	subspl	r4, pc, r9, asr #30
    68f4:	315f4e49 	cmpcc	pc, r9, asr #28
    68f8:	28282031 	stmdacs	r8!, {r0, r4, r5, sp}
    68fc:	746e6975 	strbtvc	r6, [lr], #-2421	; 0xfffff68b
    6900:	745f3631 	ldrbvc	r3, [pc], #-1585	; 6908 <_Min_Stack_Size+0x6508>
    6904:	30783029 	rsbscc	r3, r8, r9, lsr #32
    6908:	29303038 	ldmdbcs	r0!, {r3, r4, r5, ip, sp}
    690c:	575f5f00 	ldrbpl	r5, [pc, -r0, lsl #30]
    6910:	52414843 	subpl	r4, r1, #4390912	; 0x430000
    6914:	4449575f 	strbmi	r5, [r9], #-1887	; 0xfffff8a1
    6918:	5f5f4854 	svcpl	0x005f4854
    691c:	00323320 	eorseq	r3, r2, r0, lsr #6
    6920:	49545845 	ldmdbmi	r4, {r0, r2, r6, fp, ip, lr}^
    6924:	32415032 	subcc	r5, r1, #50	; 0x32
    6928:	58452820 	stmdapl	r5, {r5, fp, sp}^
    692c:	4d5f4954 	vldrmi.16	s9, [pc, #-168]	; 688c <_Min_Stack_Size+0x648c>	; <UNPREDICTABLE>
    6930:	69707061 	ldmdbvs	r0!, {r0, r5, r6, ip, sp, lr}^
    6934:	745f676e 	ldrbvc	r6, [pc], #-1902	; 693c <_Min_Stack_Size+0x653c>
    6938:	58457b29 	stmdapl	r5, {r0, r3, r5, r8, r9, fp, ip, sp, lr}^
    693c:	2c324954 			; <UNDEFINED> instruction: 0x2c324954
    6940:	49504720 	ldmdbmi	r0, {r5, r8, r9, sl, lr}^
    6944:	202c414f 	eorcs	r4, ip, pc, asr #2
    6948:	4f495047 	svcmi	0x00495047
    694c:	4e49505f 	mcrmi	0, 2, r5, cr9, cr15, {2}
    6950:	202c325f 	eorcs	r3, ip, pc, asr r2
    6954:	49545845 	ldmdbmi	r4, {r0, r2, r6, fp, ip, lr}^
    6958:	52495f32 	subpl	r5, r9, #50, 30	; 0xc8
    695c:	47007d51 	smlsdmi	r0, r1, sp, r7
    6960:	5f4f4950 	svcpl	0x004f4950
    6964:	45455053 	strbmi	r5, [r5, #-83]	; 0xffffffad
    6968:	30355f44 	eorscc	r5, r5, r4, asr #30
    696c:	207a484d 	rsbscs	r4, sl, sp, asr #16
    6970:	30307830 	eorscc	r7, r0, r0, lsr r8
    6974:	30303030 	eorscc	r3, r0, r0, lsr r0
    6978:	00553330 	subseq	r3, r5, r0, lsr r3
    697c:	5f433249 	svcpl	0x00433249
    6980:	5f325243 	svcpl	0x00325243
    6984:	5453414c 	ldrbpl	r4, [r3], #-332	; 0xfffffeb4
    6988:	6b734d5f 	blvs	1cd9f0c <_Min_Stack_Size+0x1cd9b0c>
    698c:	78302820 	ldmdavc	r0!, {r5, fp, sp}
    6990:	204c5531 	subcs	r5, ip, r1, lsr r5
    6994:	49203c3c 	stmdbmi	r0!, {r2, r3, r4, r5, sl, fp, ip, sp}
    6998:	435f4332 	cmpmi	pc, #-939524096	; 0xc8000000
    699c:	4c5f3252 	lfmmi	f3, 2, [pc], {82}	; 0x52
    69a0:	5f545341 	svcpl	0x00545341
    69a4:	29736f50 	ldmdbcs	r3!, {r4, r6, r8, r9, sl, fp, sp, lr}^
    69a8:	54584500 	ldrbpl	r4, [r8], #-1280	; 0xfffffb00
    69ac:	50323149 	eorspl	r3, r2, r9, asr #2
    69b0:	20323143 	eorscs	r3, r2, r3, asr #2
    69b4:	54584528 	ldrbpl	r4, [r8], #-1320	; 0xfffffad8
    69b8:	614d5f49 	cmpvs	sp, r9, asr #30
    69bc:	6e697070 	mcrvs	0, 3, r7, cr9, cr0, {3}
    69c0:	29745f67 	ldmdbcs	r4!, {r0, r1, r2, r5, r6, r8, r9, sl, fp, ip, lr}^
    69c4:	5458457b 	ldrbpl	r4, [r8], #-1403	; 0xfffffa85
    69c8:	2c323149 	ldfcss	f3, [r2], #-292	; 0xfffffedc
    69cc:	49504720 	ldmdbmi	r0, {r5, r8, r9, sl, lr}^
    69d0:	202c434f 	eorcs	r4, ip, pc, asr #6
    69d4:	4f495047 	svcmi	0x00495047
    69d8:	4e49505f 	mcrmi	0, 2, r5, cr9, cr15, {2}
    69dc:	2c32315f 	ldfcss	f3, [r2], #-380	; 0xfffffe84
    69e0:	54584520 	ldrbpl	r4, [r8], #-1312	; 0xfffffae0
    69e4:	5f323149 	svcpl	0x00323149
    69e8:	7d515249 	lfmvc	f5, 2, [r1, #-292]	; 0xfffffedc
    69ec:	495f5f00 	ldmdbmi	pc, {r8, r9, sl, fp, ip, lr}^	; <UNPREDICTABLE>
    69f0:	3631544e 	ldrtcc	r5, [r1], -lr, asr #8
    69f4:	6328435f 			; <UNDEFINED> instruction: 0x6328435f
    69f8:	00632029 	rsbeq	r2, r3, r9, lsr #32
    69fc:	4d415253 	sfmmi	f5, 2, [r1, #-332]	; 0xfffffeb4
    6a00:	5341425f 	movtpl	r4, #4703	; 0x125f
    6a04:	28282045 	stmdacs	r8!, {r0, r2, r6, sp}
    6a08:	746e6975 	strbtvc	r6, [lr], #-2421	; 0xfffff68b
    6a0c:	745f3233 	ldrbvc	r3, [pc], #-563	; 6a14 <_Min_Stack_Size+0x6614>
    6a10:	32783029 	rsbscc	r3, r8, #41	; 0x29
    6a14:	30303030 	eorscc	r3, r0, r0, lsr r0
    6a18:	29303030 	ldmdbcs	r0!, {r4, r5, ip, sp}
    6a1c:	445f5f00 	ldrbmi	r5, [pc], #-3840	; 6a24 <_Min_Stack_Size+0x6624>
    6a20:	42495f41 	submi	r5, r9, #260	; 0x104
    6a24:	5f5f5449 	svcpl	0x005f5449
    6a28:	00323320 	eorseq	r3, r2, r0, lsr #6
    6a2c:	4f495047 	svcmi	0x00495047
    6a30:	41425f45 	cmpmi	r2, r5, asr #30
    6a34:	30204553 	eorcc	r4, r0, r3, asr r5
    6a38:	30303478 	eorscc	r3, r0, r8, ror r4
    6a3c:	30383131 	eorscc	r3, r8, r1, lsr r1
    6a40:	004c5530 	subeq	r5, ip, r0, lsr r5
    6a44:	49545845 	ldmdbmi	r4, {r0, r2, r6, fp, ip, lr}^
    6a48:	30445030 	subcc	r5, r4, r0, lsr r0
    6a4c:	58452820 	stmdapl	r5, {r5, fp, sp}^
    6a50:	4d5f4954 	vldrmi.16	s9, [pc, #-168]	; 69b0 <_Min_Stack_Size+0x65b0>	; <UNPREDICTABLE>
    6a54:	69707061 	ldmdbvs	r0!, {r0, r5, r6, ip, sp, lr}^
    6a58:	745f676e 	ldrbvc	r6, [pc], #-1902	; 6a60 <_Min_Stack_Size+0x6660>
    6a5c:	58457b29 	stmdapl	r5, {r0, r3, r5, r8, r9, fp, ip, sp, lr}^
    6a60:	2c304954 			; <UNDEFINED> instruction: 0x2c304954
    6a64:	49504720 	ldmdbmi	r0, {r5, r8, r9, sl, lr}^
    6a68:	202c444f 	eorcs	r4, ip, pc, asr #8
    6a6c:	4f495047 	svcmi	0x00495047
    6a70:	4e49505f 	mcrmi	0, 2, r5, cr9, cr15, {2}
    6a74:	202c305f 	eorcs	r3, ip, pc, asr r0
    6a78:	49545845 	ldmdbmi	r4, {r0, r2, r6, fp, ip, lr}^
    6a7c:	52495f30 	subpl	r5, r9, #48, 30	; 0xc0
    6a80:	46007d51 			; <UNDEFINED> instruction: 0x46007d51
    6a84:	4853414c 	ldmdami	r3, {r2, r3, r6, r8, lr}^
    6a88:	5341425f 	movtpl	r4, #4703	; 0x125f
    6a8c:	28282045 	stmdacs	r8!, {r0, r2, r6, sp}
    6a90:	746e6975 	strbtvc	r6, [lr], #-2421	; 0xfffff68b
    6a94:	745f3233 	ldrbvc	r3, [pc], #-563	; 6a9c <_Min_Stack_Size+0x669c>
    6a98:	30783029 	rsbscc	r3, r8, r9, lsr #32
    6a9c:	30303038 	eorscc	r3, r0, r8, lsr r0
    6aa0:	29303030 	ldmdbcs	r0!, {r4, r5, ip, sp}
    6aa4:	49504700 	ldmdbmi	r0, {r8, r9, sl, lr}^
    6aa8:	49505f4f 	ldmdbmi	r0, {r0, r1, r2, r3, r6, r8, r9, sl, fp, ip, lr}^
    6aac:	20345f4e 	eorscs	r5, r4, lr, asr #30
    6ab0:	69752828 	ldmdbvs	r5!, {r3, r5, fp, sp}^
    6ab4:	3631746e 	ldrtcc	r7, [r1], -lr, ror #8
    6ab8:	3029745f 	eorcc	r7, r9, pc, asr r4
    6abc:	31303078 	teqcc	r0, r8, ror r0
    6ac0:	47002930 	smladxmi	r0, r0, r9, r2
    6ac4:	5f4f4950 	svcpl	0x004f4950
    6ac8:	45444f4d 	strbmi	r4, [r4, #-3917]	; 0xfffff0b3
    6acc:	54554f5f 	ldrbpl	r4, [r5], #-3935	; 0xfffff0a1
    6ad0:	5f545550 	svcpl	0x00545550
    6ad4:	3020444f 	eorcc	r4, r0, pc, asr #8
    6ad8:	30303078 	eorscc	r3, r0, r8, ror r0
    6adc:	30303030 	eorscc	r3, r0, r0, lsr r0
    6ae0:	49005535 	stmdbmi	r0, {r0, r2, r4, r5, r8, sl, ip, lr}
    6ae4:	535f4332 	cmppl	pc, #-939524096	; 0xc8000000
    6ae8:	505f3252 	subspl	r3, pc, r2, asr r2	; <UNPREDICTABLE>
    6aec:	49204345 	stmdbmi	r0!, {r0, r2, r6, r8, r9, lr}
    6af0:	535f4332 	cmppl	pc, #-939524096	; 0xc8000000
    6af4:	505f3252 	subspl	r3, pc, r2, asr r2	; <UNPREDICTABLE>
    6af8:	4d5f4345 	ldclmi	3, cr4, [pc, #-276]	; 69ec <_Min_Stack_Size+0x65ec>
    6afc:	5f006b73 	svcpl	0x00006b73
    6b00:	4f54415f 	svcmi	0x0054415f
    6b04:	5f43494d 	svcpl	0x0043494d
    6b08:	5f514341 	svcpl	0x00514341
    6b0c:	204c4552 	subcs	r4, ip, r2, asr r5
    6b10:	5f5f0034 	svcpl	0x005f0034
    6b14:	495f5148 	ldmdbmi	pc, {r3, r6, r8, ip, lr}^	; <UNPREDICTABLE>
    6b18:	5f544942 	svcpl	0x00544942
    6b1c:	0030205f 	eorseq	r2, r0, pc, asr r0
    6b20:	49545845 	ldmdbmi	r4, {r0, r2, r6, fp, ip, lr}^
    6b24:	41503531 	cmpmi	r0, r1, lsr r5
    6b28:	28203531 	stmdacs	r0!, {r0, r4, r5, r8, sl, ip, sp}
    6b2c:	49545845 	ldmdbmi	r4, {r0, r2, r6, fp, ip, lr}^
    6b30:	70614d5f 	rsbvc	r4, r1, pc, asr sp
    6b34:	676e6970 			; <UNDEFINED> instruction: 0x676e6970
    6b38:	7b29745f 	blvc	a63cbc <_Min_Stack_Size+0xa638bc>
    6b3c:	49545845 	ldmdbmi	r4, {r0, r2, r6, fp, ip, lr}^
    6b40:	202c3531 	eorcs	r3, ip, r1, lsr r5
    6b44:	4f495047 	svcmi	0x00495047
    6b48:	47202c41 	strmi	r2, [r0, -r1, asr #24]!
    6b4c:	5f4f4950 	svcpl	0x004f4950
    6b50:	5f4e4950 	svcpl	0x004e4950
    6b54:	202c3531 	eorcs	r3, ip, r1, lsr r5
    6b58:	49545845 	ldmdbmi	r4, {r0, r2, r6, fp, ip, lr}^
    6b5c:	495f3531 	ldmdbmi	pc, {r0, r4, r5, r8, sl, ip, sp}^	; <UNPREDICTABLE>
    6b60:	007d5152 	rsbseq	r5, sp, r2, asr r1
    6b64:	42445f5f 	submi	r5, r4, #380	; 0x17c
    6b68:	494d5f4c 	stmdbmi	sp, {r2, r3, r6, r8, r9, sl, fp, ip, lr}^
    6b6c:	30315f4e 	eorscc	r5, r1, lr, asr #30
    6b70:	5058455f 	subspl	r4, r8, pc, asr r5
    6b74:	28205f5f 	stmdacs	r0!, {r0, r1, r2, r3, r4, r6, r8, r9, sl, fp, ip, lr}
    6b78:	3730332d 	ldrcc	r3, [r0, -sp, lsr #6]!
    6b7c:	564e0029 	strbpl	r0, [lr], -r9, lsr #32
    6b80:	495f4349 	ldmdbmi	pc, {r0, r3, r6, r8, r9, lr}^	; <UNPREDICTABLE>
    6b84:	37335152 			; <UNDEFINED> instruction: 0x37335152
    6b88:	4153555f 	cmpmi	r3, pc, asr r5
    6b8c:	5f315452 	svcpl	0x00315452
    6b90:	62616e45 	rsbvs	r6, r1, #1104	; 0x450
    6b94:	2928656c 	stmdbcs	r8!, {r2, r3, r5, r6, r8, sl, sp, lr}
    6b98:	564e2820 	strbpl	r2, [lr], -r0, lsr #16
    6b9c:	495f4349 	ldmdbmi	pc, {r0, r3, r6, r8, r9, lr}^	; <UNPREDICTABLE>
    6ba0:	31524553 	cmpcc	r2, r3, asr r5
    6ba4:	203d7c20 	eorscs	r7, sp, r0, lsr #24
    6ba8:	283c3c31 	ldmdacs	ip!, {r0, r4, r5, sl, fp, ip, sp}
    6bac:	52415355 	subpl	r5, r1, #1409286145	; 0x54000001
    6bb0:	495f3154 	ldmdbmi	pc, {r2, r4, r6, r8, ip, sp}^	; <UNPREDICTABLE>
    6bb4:	2d205152 	stfcss	f5, [r0, #-328]!	; 0xfffffeb8
    6bb8:	29323320 	ldmdbcs	r2!, {r5, r8, r9, ip, sp}
    6bbc:	54530029 	ldrbpl	r0, [r3], #-41	; 0xffffffd7
    6bc0:	4632334d 	ldrtmi	r3, [r2], -sp, asr #6
    6bc4:	00312031 	eorseq	r2, r1, r1, lsr r0
    6bc8:	5f433249 	svcpl	0x00433249
    6bcc:	5f315243 	svcpl	0x00315243
    6bd0:	45504e45 	ldrbmi	r4, [r0, #-3653]	; 0xfffff1bb
    6bd4:	734d5f43 	movtvc	r5, #57155	; 0xdf43
    6bd8:	3028206b 	eorcc	r2, r8, fp, rrx
    6bdc:	4c553178 	ldfmie	f3, [r5], {120}	; 0x78
    6be0:	203c3c20 	eorscs	r3, ip, r0, lsr #24
    6be4:	5f433249 	svcpl	0x00433249
    6be8:	5f315243 	svcpl	0x00315243
    6bec:	45504e45 	ldrbmi	r4, [r0, #-3653]	; 0xfffff1bb
    6bf0:	6f505f43 	svcvs	0x00505f43
    6bf4:	5f002973 	svcpl	0x00002973
    6bf8:	5246535f 	subpl	r5, r6, #2080374785	; 0x7c000001
    6bfc:	5f544341 	svcpl	0x00544341
    6c00:	54494246 	strbpl	r4, [r9], #-582	; 0xfffffdba
    6c04:	37205f5f 			; <UNDEFINED> instruction: 0x37205f5f
    6c08:	465f5f00 	ldrbmi	r5, [pc], -r0, lsl #30
    6c0c:	3233544c 	eorscc	r5, r3, #76, 8	; 0x4c000000
    6c10:	524f4e5f 	subpl	r4, pc, #1520	; 0x5f0
    6c14:	414d5f4d 	cmpmi	sp, sp, asr #30
    6c18:	205f5f58 	subscs	r5, pc, r8, asr pc	; <UNPREDICTABLE>
    6c1c:	30342e33 	eorscc	r2, r4, r3, lsr lr
    6c20:	33323832 	teqcc	r2, #3276800	; 0x320000
    6c24:	33363634 	teqcc	r6, #52, 12	; 0x3400000
    6c28:	38323538 	ldmdacc	r2!, {r3, r4, r5, r8, sl, ip, sp}
    6c2c:	2b653638 	blcs	1954514 <_Min_Stack_Size+0x1954114>
    6c30:	33463833 	movtcc	r3, #26675	; 0x6833
    6c34:	5f5f0032 	svcpl	0x005f0032
    6c38:	544e4955 	strbpl	r4, [lr], #-2389	; 0xfffff6ab
    6c3c:	435f3436 	cmpmi	pc, #905969664	; 0x36000000
    6c40:	20296328 	eorcs	r6, r9, r8, lsr #6
    6c44:	23232063 			; <UNDEFINED> instruction: 0x23232063
    6c48:	4c4c5520 	cfstr64mi	mvdx5, [ip], {32}
    6c4c:	54584500 	ldrbpl	r4, [r8], #-1280	; 0xfffffb00
    6c50:	41503749 	cmpmi	r0, r9, asr #14
    6c54:	45282037 	strmi	r2, [r8, #-55]!	; 0xffffffc9
    6c58:	5f495458 	svcpl	0x00495458
    6c5c:	7070614d 	rsbsvc	r6, r0, sp, asr #2
    6c60:	5f676e69 	svcpl	0x00676e69
    6c64:	457b2974 	ldrbmi	r2, [fp, #-2420]!	; 0xfffff68c
    6c68:	37495458 	smlsldcc	r5, r9, r8, r4
    6c6c:	5047202c 	subpl	r2, r7, ip, lsr #32
    6c70:	2c414f49 	mcrrcs	15, 4, r4, r1, cr9
    6c74:	49504720 	ldmdbmi	r0, {r5, r8, r9, sl, lr}^
    6c78:	49505f4f 	ldmdbmi	r0, {r0, r1, r2, r3, r6, r8, r9, sl, fp, ip, lr}^
    6c7c:	2c375f4e 	ldccs	15, cr5, [r7], #-312	; 0xfffffec8
    6c80:	54584520 	ldrbpl	r4, [r8], #-1312	; 0xfffffae0
    6c84:	495f3749 	ldmdbmi	pc, {r0, r3, r6, r8, r9, sl, ip, sp}^	; <UNPREDICTABLE>
    6c88:	007d5152 	rsbseq	r5, sp, r2, asr r1
    6c8c:	49555f5f 	ldmdbmi	r5, {r0, r1, r2, r3, r4, r6, r8, r9, sl, fp, ip, lr}^
    6c90:	414d544e 	cmpmi	sp, lr, asr #8
    6c94:	414d5f58 	cmpmi	sp, r8, asr pc
    6c98:	205f5f58 	subscs	r5, pc, r8, asr pc	; <UNPREDICTABLE>
    6c9c:	66667830 			; <UNDEFINED> instruction: 0x66667830
    6ca0:	66666666 	strbtvs	r6, [r6], -r6, ror #12
    6ca4:	66666666 	strbtvs	r6, [r6], -r6, ror #12
    6ca8:	66666666 	strbtvs	r6, [r6], -r6, ror #12
    6cac:	4c556666 	mrrcmi	6, 6, r6, r5, cr6
    6cb0:	4352004c 	cmpmi	r2, #76	; 0x4c
    6cb4:	50475f43 	subpl	r5, r7, r3, asr #30
    6cb8:	5f434f49 	svcpl	0x00434f49
    6cbc:	5f4b4c43 	svcpl	0x004b4c43
    6cc0:	29284e45 	stmdbcs	r8!, {r0, r2, r6, r9, sl, fp, lr}
    6cc4:	54455320 	strbpl	r5, [r5], #-800	; 0xfffffce0
    6cc8:	5449425f 	strbpl	r4, [r9], #-607	; 0xfffffda1
    6ccc:	43435228 	movtmi	r5, #12840	; 0x3228
    6cd0:	50413e2d 	subpl	r3, r1, sp, lsr #28
    6cd4:	4e453242 	cdpmi	2, 4, cr3, cr5, cr2, {2}
    6cd8:	29342c52 	ldmdbcs	r4!, {r1, r4, r6, sl, fp, sp}
    6cdc:	445f5f00 	ldrbmi	r5, [pc], #-3840	; 6ce4 <_Min_Stack_Size+0x68e4>
    6ce0:	4d5f4c42 	ldclmi	12, cr4, [pc, #-264]	; 6be0 <_Min_Stack_Size+0x67e0>
    6ce4:	5f544e41 	svcpl	0x00544e41
    6ce8:	5f474944 	svcpl	0x00474944
    6cec:	3335205f 	teqcc	r5, #95	; 0x5f
    6cf0:	555f5f00 	ldrbpl	r5, [pc, #-3840]	; 5df8 <_Min_Stack_Size+0x59f8>
    6cf4:	4152464c 	cmpmi	r2, ip, asr #12
    6cf8:	495f5443 	ldmdbmi	pc, {r0, r1, r6, sl, ip, lr}^	; <UNPREDICTABLE>
    6cfc:	5f544942 	svcpl	0x00544942
    6d00:	0030205f 	eorseq	r2, r0, pc, asr r0
    6d04:	52415f5f 	subpl	r5, r1, #380	; 0x17c
    6d08:	45465f4d 	strbmi	r5, [r6, #-3917]	; 0xfffff0b3
    6d0c:	52555441 	subspl	r5, r5, #1090519040	; 0x41000000
    6d10:	53445f45 	movtpl	r5, #20293	; 0x4f45
    6d14:	5f5f0050 	svcpl	0x005f0050
    6d18:	5f544e49 	svcpl	0x00544e49
    6d1c:	5f58414d 	svcpl	0x0058414d
    6d20:	7830205f 	ldmdavc	r0!, {r0, r1, r2, r3, r4, r6, sp}
    6d24:	66666637 			; <UNDEFINED> instruction: 0x66666637
    6d28:	66666666 	strbtvs	r6, [r6], -r6, ror #12
    6d2c:	495f5f00 	ldmdbmi	pc, {r8, r9, sl, fp, ip, lr}^	; <UNPREDICTABLE>
    6d30:	4c5f544e 	cfldrdmi	mvd5, [pc], {78}	; 0x4e
    6d34:	54534145 	ldrbpl	r4, [r3], #-325	; 0xfffffebb
    6d38:	545f3436 	ldrbpl	r3, [pc], #-1078	; 6d40 <_Min_Stack_Size+0x6940>
    6d3c:	5f455059 	svcpl	0x00455059
    6d40:	6f6c205f 	svcvs	0x006c205f
    6d44:	6c20676e 	stcvs	7, cr6, [r0], #-440	; 0xfffffe48
    6d48:	20676e6f 	rsbcs	r6, r7, pc, ror #28
    6d4c:	00746e69 	rsbseq	r6, r4, r9, ror #28
    6d50:	49555f5f 	ldmdbmi	r5, {r0, r1, r2, r3, r4, r6, r8, r9, sl, fp, ip, lr}^
    6d54:	3631544e 	ldrtcc	r5, [r1], -lr, asr #8
    6d58:	58414d5f 	stmdapl	r1, {r0, r1, r2, r3, r4, r6, r8, sl, fp, lr}^
    6d5c:	30205f5f 	eorcc	r5, r0, pc, asr pc
    6d60:	66666678 			; <UNDEFINED> instruction: 0x66666678
    6d64:	50470066 	subpl	r0, r7, r6, rrx
    6d68:	505f4f49 	subspl	r4, pc, r9, asr #30
    6d6c:	415f4e49 	cmpmi	pc, r9, asr #28
    6d70:	28204c4c 	stmdacs	r0!, {r2, r3, r6, sl, fp, lr}
    6d74:	6e697528 	cdpvs	5, 6, cr7, cr9, cr8, {1}
    6d78:	5f363174 	svcpl	0x00363174
    6d7c:	78302974 	ldmdavc	r0!, {r2, r4, r5, r6, r8, fp, sp}
    6d80:	46464646 	strbmi	r4, [r6], -r6, asr #12
    6d84:	32490029 	subcc	r0, r9, #41	; 0x29
    6d88:	52435f43 	subpl	r5, r3, #268	; 0x10c
    6d8c:	45505f31 	ldrbmi	r5, [r0, #-3889]	; 0xfffff0cf
    6d90:	6f505f43 	svcvs	0x00505f43
    6d94:	31282073 			; <UNDEFINED> instruction: 0x31282073
    6d98:	00295532 	eoreq	r5, r9, r2, lsr r5
    6d9c:	52415f5f 	subpl	r5, r1, #380	; 0x17c
    6da0:	45465f4d 	strbmi	r5, [r6, #-3917]	; 0xfffff0b3
    6da4:	52555441 	subspl	r5, r5, #1090519040	; 0x41000000
    6da8:	44435f45 	strbmi	r5, [r3], #-3909	; 0xfffff0bb
    6dac:	4f435f45 	svcmi	0x00435f45
    6db0:	434f5250 	movtmi	r5, #62032	; 0xf250
    6db4:	434e4900 	movtmi	r4, #59648	; 0xe900
    6db8:	5458455f 	ldrbpl	r4, [r8], #-1375	; 0xfffffaa1
    6dbc:	5f485f49 	svcpl	0x00485f49
    6dc0:	53550020 	cmppl	r5, #32
    6dc4:	32545241 	subscc	r5, r4, #268435460	; 0x10000004
    6dc8:	5152495f 	cmppl	r2, pc, asr r9
    6dcc:	00383320 	eorseq	r3, r8, r0, lsr #6
    6dd0:	532f2e2e 			; <UNDEFINED> instruction: 0x532f2e2e
    6dd4:	74726174 	ldrbtvc	r6, [r2], #-372	; 0xfffffe8c
    6dd8:	732f7075 			; <UNDEFINED> instruction: 0x732f7075
    6ddc:	74726174 	ldrbtvc	r6, [r2], #-372	; 0xfffffe8c
    6de0:	735f7075 	cmpvc	pc, #117	; 0x75
    6de4:	32336d74 	eorscc	r6, r3, #116, 26	; 0x1d00
    6de8:	33303166 	teqcc	r0, #-2147483623	; 0x80000019
    6dec:	78743663 	ldmdavc	r4!, {r0, r1, r5, r6, r9, sl, ip, sp}^
    6df0:	4300732e 	movwmi	r7, #814	; 0x32e
    6df4:	73552f3a 	cmpvc	r5, #58, 30	; 0xe8
    6df8:	2f737265 	svccs	0x00737265
    6dfc:	616d7369 	cmnvs	sp, r9, ror #6
    6e00:	532f6c69 			; <UNDEFINED> instruction: 0x532f6c69
    6e04:	32334d54 	eorscc	r4, r3, #84, 26	; 0x1500
    6e08:	65627543 	strbvs	r7, [r2, #-1347]!	; 0xfffffabd
    6e0c:	2f454449 	svccs	0x00454449
    6e10:	76697244 	strbtvc	r7, [r9], -r4, asr #4
    6e14:	2f737265 	svccs	0x00737265
    6e18:	75626544 	strbvc	r6, [r2, #-1348]!	; 0xfffffabc
    6e1c:	4e470067 	cdpmi	0, 4, cr0, cr7, cr7, {3}
    6e20:	53412055 	movtpl	r2, #4181	; 0x1055
    6e24:	332e3220 			; <UNDEFINED> instruction: 0x332e3220
    6e28:	58450038 	stmdapl	r5, {r3, r4, r5}^
    6e2c:	52434954 	subpl	r4, r3, #84, 18	; 0x150000
    6e30:	49504700 	ldmdbmi	r0, {r8, r9, sl, lr}^
    6e34:	69505f4f 	ldmdbvs	r0, {r0, r1, r2, r3, r6, r8, r9, sl, fp, ip, lr}^
    6e38:	646f4d6e 	strbtvs	r4, [pc], #-3438	; 6e40 <_Min_Stack_Size+0x6a40>
    6e3c:	54460065 	strbpl	r0, [r6], #-101	; 0xffffff9b
    6e40:	45005253 	strmi	r5, [r0, #-595]	; 0xfffffdad
    6e44:	5f495458 	svcpl	0x00495458
    6e48:	61647055 	qdsubvs	r7, r5, r4
    6e4c:	55006574 	strpl	r6, [r0, #-1396]	; 0xfffffa8c
    6e50:	74616470 	strbtvc	r6, [r1], #-1136	; 0xfffffb90
    6e54:	58455f65 	stmdapl	r5, {r0, r2, r5, r6, r8, r9, sl, fp, ip, lr}^
    6e58:	52004954 	andpl	r4, r0, #84, 18	; 0x150000
    6e5c:	00525354 	subseq	r5, r2, r4, asr r3
    6e60:	4f494641 	svcmi	0x00494641
    6e64:	5458455f 	ldrbpl	r4, [r8], #-1375	; 0xfffffaa1
    6e68:	5f524349 	svcpl	0x00524349
    6e6c:	65646e69 	strbvs	r6, [r4, #-3689]!	; 0xfffff197
    6e70:	58450078 	stmdapl	r5, {r3, r4, r5, r6}^
    6e74:	5f344954 	svcpl	0x00344954
    6e78:	48515249 	ldmdami	r1, {r0, r3, r6, r9, ip, lr}^
    6e7c:	6c646e61 	stclvs	14, cr6, [r4], #-388	; 0xfffffe7c
    6e80:	45007265 	strmi	r7, [r0, #-613]	; 0xfffffd9b
    6e84:	5f495458 	svcpl	0x00495458
    6e88:	666e6f43 	strbtvs	r6, [lr], -r3, asr #30
    6e8c:	69006769 	stmdbvs	r0, {r0, r3, r5, r6, r8, r9, sl, sp, lr}
    6e90:	7475706e 	ldrbtvc	r7, [r5], #-110	; 0xffffff92
    6e94:	6e696c5f 	mcrvs	12, 3, r6, cr9, cr15, {2}
    6e98:	756e5f65 	strbvc	r5, [lr, #-3941]!	; 0xfffff09b
    6e9c:	7265626d 	rsbvc	r6, r5, #-805306362	; 0xd0000006
    6ea0:	49464100 	stmdbmi	r6, {r8, lr}^
    6ea4:	00745f4f 	rsbseq	r5, r4, pc, asr #30
    6ea8:	5250414d 	subspl	r4, r0, #1073741843	; 0x40000013
    6eac:	58450032 	stmdapl	r5, {r1, r4, r5}^
    6eb0:	445f4954 	ldrbmi	r4, [pc], #-2388	; 6eb8 <_Min_Stack_Size+0x6ab8>
    6eb4:	696e4965 	stmdbvs	lr!, {r0, r2, r5, r6, r8, fp, lr}^
    6eb8:	6e450074 	mcrvs	0, 2, r0, cr5, cr4, {3}
    6ebc:	656c6261 	strbvs	r6, [ip, #-609]!	; 0xfffffd9f
    6ec0:	49564e5f 	ldmdbmi	r6, {r0, r1, r2, r3, r4, r6, r9, sl, fp, lr}^
    6ec4:	50470043 	subpl	r0, r7, r3, asr #32
    6ec8:	505f4f49 	subspl	r4, pc, r9, asr #30
    6ecc:	70536e69 	subsvc	r6, r3, r9, ror #28
    6ed0:	00646565 	rsbeq	r6, r4, r5, ror #10
    6ed4:	52435645 	subpl	r5, r3, #72351744	; 0x4500000
    6ed8:	4e495000 	cdpmi	0, 4, cr5, cr9, cr0, {0}
    6edc:	4746435f 	smlsldmi	r4, r6, pc, r3	; <UNPREDICTABLE>
    6ee0:	54584500 	ldrbpl	r4, [r8], #-1280	; 0xfffffb00
    6ee4:	495f3249 	ldmdbmi	pc, {r0, r3, r6, r9, ip, sp}^	; <UNPREDICTABLE>
    6ee8:	61485152 	cmpvs	r8, r2, asr r1
    6eec:	656c646e 	strbvs	r6, [ip, #-1134]!	; 0xfffffb92
    6ef0:	61630072 	smcvs	12290	; 0x3002
    6ef4:	625f6c6c 	subsvs	r6, pc, #108, 24	; 0x6c00
    6ef8:	006b6361 	rsbeq	r6, fp, r1, ror #6
    6efc:	45495753 	strbmi	r5, [r9, #-1875]	; 0xfffff8ad
    6f00:	50470052 	subpl	r0, r7, r2, asr r0
    6f04:	495f4f49 	ldmdbmi	pc, {r0, r3, r6, r8, r9, sl, fp, lr}^	; <UNPREDICTABLE>
    6f08:	0074696e 	rsbseq	r6, r4, lr, ror #18
    6f0c:	5250414d 	subspl	r4, r0, #1073741843	; 0x40000013
    6f10:	54584500 	ldrbpl	r4, [r8], #-1280	; 0xfffffb00
    6f14:	355f3949 	ldrbcc	r3, [pc, #-2377]	; 65d3 <_Min_Stack_Size+0x61d3>
    6f18:	5152495f 	cmppl	r2, pc, asr r9
    6f1c:	646e6148 	strbtvs	r6, [lr], #-328	; 0xfffffeb8
    6f20:	0072656c 	rsbseq	r6, r2, ip, ror #10
    6f24:	4f495047 	svcmi	0x00495047
    6f28:	6e69505f 	mcrvs	0, 3, r5, cr9, cr15, {2}
    6f2c:	626d754e 	rsbvs	r7, sp, #327155712	; 0x13800000
    6f30:	44007265 	strmi	r7, [r0], #-613	; 0xfffffd9b
    6f34:	62617369 	rsbvs	r7, r1, #-1543503871	; 0xa4000001
    6f38:	4e5f656c 	cdpmi	5, 5, cr6, cr15, cr12, {3}
    6f3c:	00434956 	subeq	r4, r3, r6, asr r9
    6f40:	49545845 	ldmdbmi	r4, {r0, r2, r6, fp, ip, lr}^
    6f44:	52495f33 	subpl	r5, r9, #51, 30	; 0xcc
    6f48:	6e614851 	mcrvs	8, 3, r4, cr1, cr1, {2}
    6f4c:	72656c64 	rsbvc	r6, r5, #100, 24	; 0x6400
    6f50:	54584500 	ldrbpl	r4, [r8], #-1280	; 0xfffffb00
    6f54:	495f3049 	ldmdbmi	pc, {r0, r3, r6, ip, sp}^	; <UNPREDICTABLE>
    6f58:	61485152 	cmpvs	r8, r2, asr r1
    6f5c:	656c646e 	strbvs	r6, [ip, #-1134]!	; 0xfffffb92
    6f60:	58450072 	stmdapl	r5, {r1, r4, r5, r6}^
    6f64:	35314954 	ldrcc	r4, [r1, #-2388]!	; 0xfffff6ac
    6f68:	5f30315f 	svcpl	0x0030315f
    6f6c:	48515249 	ldmdami	r1, {r0, r3, r6, r9, ip, lr}^
    6f70:	6c646e61 	stclvs	14, cr6, [r4], #-388	; 0xfffffe7c
    6f74:	47007265 	strmi	r7, [r0, -r5, ror #4]
    6f78:	5f4f4950 	svcpl	0x004f4950
    6f7c:	666e6f43 	strbtvs	r6, [lr], -r3, asr #30
    6f80:	745f6769 	ldrbvc	r6, [pc], #-1897	; 6f88 <_Min_Stack_Size+0x6b88>
    6f84:	49464100 	stmdbmi	r6, {r8, lr}^
    6f88:	58455f4f 	stmdapl	r5, {r0, r1, r2, r3, r6, r8, r9, sl, fp, ip, lr}^
    6f8c:	52434954 	subpl	r4, r3, #84, 18	; 0x150000
    6f90:	736f705f 	cmnvc	pc, #95	; 0x5f
    6f94:	6f697469 	svcvs	0x00697469
    6f98:	5845006e 	stmdapl	r5, {r1, r2, r3, r5, r6}^
    6f9c:	745f4954 	ldrbvc	r4, [pc], #-2388	; 6fa4 <_Min_Stack_Size+0x6ba4>
    6fa0:	2f2e2e00 	svccs	0x002e2e00
    6fa4:	336d7453 	cmncc	sp, #1392508928	; 0x53000000
    6fa8:	31465f32 	cmpcc	r6, r2, lsr pc
    6fac:	36433330 			; <UNDEFINED> instruction: 0x36433330
    6fb0:	6972445f 	ldmdbvs	r2!, {r0, r1, r2, r3, r4, r6, sl, lr}^
    6fb4:	73726576 	cmnvc	r2, #494927872	; 0x1d800000
    6fb8:	5458452f 	ldrbpl	r4, [r8], #-1327	; 0xfffffad1
    6fbc:	00632e49 	rsbeq	r2, r3, r9, asr #28
    6fc0:	45534552 	ldrbmi	r4, [r3, #-1362]	; 0xfffffaae
    6fc4:	44455652 	strbmi	r5, [r5], #-1618	; 0xfffff9ae
    6fc8:	4500305f 	strmi	r3, [r0, #-95]	; 0xffffffa1
    6fcc:	31495458 	cmpcc	r9, r8, asr r4
    6fd0:	5152495f 	cmppl	r2, pc, asr r9
    6fd4:	646e6148 	strbtvs	r6, [lr], #-328	; 0xfffffeb8
    6fd8:	0072656c 	rsbseq	r6, r2, ip, ror #10
    6fdc:	4f494641 	svcmi	0x00494641
    6fe0:	4950475f 	ldmdbmi	r0, {r0, r1, r2, r3, r4, r6, r8, r9, sl, lr}^
    6fe4:	58455f4f 	stmdapl	r5, {r0, r1, r2, r3, r6, r8, r9, sl, fp, ip, lr}^
    6fe8:	4d5f4954 	vldrmi.16	s9, [pc, #-168]	; 6f48 <_Min_Stack_Size+0x6b48>	; <UNPREDICTABLE>
    6fec:	69707061 	ldmdbvs	r0!, {r0, r5, r6, ip, sp, lr}^
    6ff0:	7828676e 	stmdavc	r8!, {r1, r2, r3, r5, r6, r8, r9, sl, sp, lr}
    6ff4:	20282029 	eorcs	r2, r8, r9, lsr #32
    6ff8:	3d207828 	stccc	8, cr7, [r0, #-160]!	; 0xffffff60
    6ffc:	5047203d 	subpl	r2, r7, sp, lsr r0
    7000:	29414f49 	stmdbcs	r1, {r0, r3, r6, r8, r9, sl, fp, lr}^
    7004:	203a303f 	eorscs	r3, sl, pc, lsr r0
    7008:	3d207828 	stccc	8, cr7, [r0, #-160]!	; 0xffffff60
    700c:	5047203d 	subpl	r2, r7, sp, lsr r0
    7010:	29424f49 	stmdbcs	r2, {r0, r3, r6, r8, r9, sl, fp, lr}^
    7014:	203a313f 	eorscs	r3, sl, pc, lsr r1
    7018:	3d207828 	stccc	8, cr7, [r0, #-160]!	; 0xffffff60
    701c:	5047203d 	subpl	r2, r7, sp, lsr r0
    7020:	29434f49 	stmdbcs	r3, {r0, r3, r6, r8, r9, sl, fp, lr}^
    7024:	203a323f 	eorscs	r3, sl, pc, lsr r2
    7028:	3d207828 	stccc	8, cr7, [r0, #-160]!	; 0xffffff60
    702c:	5047203d 	subpl	r2, r7, sp, lsr r0
    7030:	29444f49 	stmdbcs	r4, {r0, r3, r6, r8, r9, sl, fp, lr}^
    7034:	303a333f 	eorscc	r3, sl, pc, lsr r3
    7038:	50470029 	subpl	r0, r7, r9, lsr #32
    703c:	525f4f49 	subspl	r4, pc, #292	; 0x124
    7040:	5f444145 	svcpl	0x00444145
    7044:	74726f50 	ldrbtvc	r6, [r2], #-3920	; 0xfffff0b0
    7048:	74654700 	strbtvc	r4, [r5], #-1792	; 0xfffff900
    704c:	6e69505f 	mcrvs	0, 3, r5, cr9, cr15, {2}
    7050:	74736f50 	ldrbtvc	r6, [r3], #-3920	; 0xfffff0b0
    7054:	006e6f69 	rsbeq	r6, lr, r9, ror #30
    7058:	4f495047 	svcmi	0x00495047
    705c:	474f545f 	smlsldmi	r5, pc, pc, r4	; <UNPREDICTABLE>
    7060:	5f454c47 	svcpl	0x00454c47
    7064:	006e6950 	rsbeq	r6, lr, r0, asr r9
    7068:	756c6176 	strbvc	r6, [ip, #-374]!	; 0xfffffe8a
    706c:	69500065 	ldmdbvs	r0, {r0, r2, r5, r6}^
    7070:	6e6f436e 	cdpvs	3, 6, cr4, cr15, cr14, {3}
    7074:	00676966 	rsbeq	r6, r7, r6, ror #18
    7078:	5f6e6970 	svcpl	0x006e6970
    707c:	666e6f63 	strbtvs	r6, [lr], -r3, ror #30
    7080:	2e006769 	cdpcs	7, 0, cr6, cr0, cr9, {3}
    7084:	74532f2e 	ldrbvc	r2, [r3], #-3886	; 0xfffff0d2
    7088:	5f32336d 	svcpl	0x0032336d
    708c:	33303146 	teqcc	r0, #-2147483631	; 0x80000011
    7090:	445f3643 	ldrbmi	r3, [pc], #-1603	; 7098 <_Min_Stack_Size+0x6c98>
    7094:	65766972 	ldrbvs	r6, [r6, #-2418]!	; 0xfffff68e
    7098:	472f7372 			; <UNDEFINED> instruction: 0x472f7372
    709c:	2e4f4950 			; <UNDEFINED> instruction: 0x2e4f4950
    70a0:	50470063 	subpl	r0, r7, r3, rrx
    70a4:	00784f49 	rsbseq	r4, r8, r9, asr #30
    70a8:	4f495047 	svcmi	0x00495047
    70ac:	4952575f 	ldmdbmi	r2, {r0, r1, r2, r3, r4, r6, r8, r9, sl, ip, lr}^
    70b0:	505f4554 	subspl	r4, pc, r4, asr r5	; <UNPREDICTABLE>
    70b4:	50006e69 	andpl	r6, r0, r9, ror #28
    70b8:	635f6e69 	cmpvs	pc, #1680	; 0x690
    70bc:	69666e6f 	stmdbvs	r6!, {r0, r1, r2, r3, r5, r6, r9, sl, fp, sp, lr}^
    70c0:	69700067 	ldmdbvs	r0!, {r0, r1, r2, r5, r6}^
    70c4:	6d756e6e 	ldclvs	14, cr6, [r5, #-440]!	; 0xfffffe48
    70c8:	00726562 	rsbseq	r6, r2, r2, ror #10
    70cc:	4f495047 	svcmi	0x00495047
    70d0:	4145525f 	cmpmi	r5, pc, asr r2
    70d4:	69505f44 	ldmdbvs	r0, {r2, r6, r8, r9, sl, fp, ip, lr}^
    70d8:	5047006e 	subpl	r0, r7, lr, rrx
    70dc:	445f4f49 	ldrbmi	r4, [pc], #-3913	; 70e4 <_Min_Stack_Size+0x6ce4>
    70e0:	696e4965 	stmdbvs	lr!, {r0, r2, r5, r6, r8, fp, lr}^
    70e4:	75640074 	strbvc	r0, [r4, #-116]!	; 0xffffff8c
    70e8:	00796d6d 	rsbseq	r6, r9, sp, ror #26
    70ec:	4f495047 	svcmi	0x00495047
    70f0:	4952575f 	ldmdbmi	r2, {r0, r1, r2, r3, r4, r6, r8, r9, sl, ip, lr}^
    70f4:	505f4554 	subspl	r4, pc, r4, asr r5	; <UNPREDICTABLE>
    70f8:	0074726f 	rsbseq	r7, r4, pc, ror #4
    70fc:	4f495047 	svcmi	0x00495047
    7100:	434f4c5f 	movtmi	r4, #64607	; 0xfc5f
    7104:	69505f4b 	ldmdbvs	r0, {r0, r1, r3, r6, r8, r9, sl, fp, ip, lr}^
    7108:	6f43006e 	svcvs	0x0043006e
    710c:	6769666e 	strbvs	r6, [r9, -lr, ror #12]!
    7110:	6765525f 			; <UNDEFINED> instruction: 0x6765525f
    7114:	65747369 	ldrbvs	r7, [r4, #-873]!	; 0xfffffc97
    7118:	Address 0x0000000000007118 is out of bounds.


Disassembly of section .debug_frame:

00000000 <.debug_frame>:
   0:	0000000c 	andeq	r0, r0, ip
   4:	ffffffff 			; <UNDEFINED> instruction: 0xffffffff
   8:	7c020001 	stcvc	0, cr0, [r2], {1}
   c:	000d0c0e 	andeq	r0, sp, lr, lsl #24
  10:	0000001c 	andeq	r0, r0, ip, lsl r0
  14:	00000000 	andeq	r0, r0, r0
  18:	08000170 	stmdaeq	r0, {r4, r5, r6, r8}
  1c:	00000034 	andeq	r0, r0, r4, lsr r0
  20:	87040e41 	strhi	r0, [r4, -r1, asr #28]
  24:	070d4101 	streq	r4, [sp, -r1, lsl #2]
  28:	410d0d54 	tstmi	sp, r4, asr sp
  2c:	00000ec7 	andeq	r0, r0, r7, asr #29
  30:	00000024 	andeq	r0, r0, r4, lsr #32
  34:	00000000 	andeq	r0, r0, r0
  38:	080001a4 	stmdaeq	r0, {r2, r5, r7, r8}
  3c:	00000040 	andeq	r0, r0, r0, asr #32
  40:	87040e41 	strhi	r0, [r4, -r1, asr #28]
  44:	100e4101 	andne	r4, lr, r1, lsl #2
  48:	5a070d41 	bpl	1c3554 <_Min_Stack_Size+0x1c3154>
  4c:	0d41040e 	cfstrdeq	mvd0, [r1, #-56]	; 0xffffffc8
  50:	0ec7410d 	poleqs	f4, f7, #5.0
  54:	00000000 	andeq	r0, r0, r0
  58:	0000001c 	andeq	r0, r0, ip, lsl r0
  5c:	00000000 	andeq	r0, r0, r0
  60:	080001e4 	stmdaeq	r0, {r2, r5, r6, r7, r8}
  64:	0000002c 	andeq	r0, r0, ip, lsr #32
  68:	87040e41 	strhi	r0, [r4, -r1, asr #28]
  6c:	070d4101 	streq	r4, [sp, -r1, lsl #2]
  70:	410d0d4e 	tstmi	sp, lr, asr #26
  74:	00000ec7 	andeq	r0, r0, r7, asr #29
  78:	00000024 	andeq	r0, r0, r4, lsr #32
  7c:	00000000 	andeq	r0, r0, r0
  80:	08000210 	stmdaeq	r0, {r4, r9}
  84:	00000020 	andeq	r0, r0, r0, lsr #32
  88:	87040e41 	strhi	r0, [r4, -r1, asr #28]
  8c:	180e4101 	stmdane	lr, {r0, r8, lr}
  90:	4a070d41 	bmi	1c359c <_Min_Stack_Size+0x1c319c>
  94:	0d41040e 	cfstrdeq	mvd0, [r1, #-56]	; 0xffffffc8
  98:	0ec7410d 	poleqs	f4, f7, #5.0
  9c:	00000000 	andeq	r0, r0, r0
  a0:	00000024 	andeq	r0, r0, r4, lsr #32
  a4:	00000000 	andeq	r0, r0, r0
  a8:	08000230 	stmdaeq	r0, {r4, r5, r9}
  ac:	00000026 	andeq	r0, r0, r6, lsr #32
  b0:	87040e41 	strhi	r0, [r4, -r1, asr #28]
  b4:	180e4101 	stmdane	lr, {r0, r8, lr}
  b8:	4d070d41 	stcmi	13, cr0, [r7, #-260]	; 0xfffffefc
  bc:	0d41040e 	cfstrdeq	mvd0, [r1, #-56]	; 0xffffffc8
  c0:	0ec7410d 	poleqs	f4, f7, #5.0
  c4:	00000000 	andeq	r0, r0, r0
  c8:	00000018 	andeq	r0, r0, r8, lsl r0
  cc:	00000000 	andeq	r0, r0, r0
  d0:	08000258 	stmdaeq	r0, {r3, r4, r6, r9}
  d4:	000000f8 	strdeq	r0, [r0], -r8
  d8:	87080e41 	strhi	r0, [r8, -r1, asr #28]
  dc:	41018e02 	tstmi	r1, r2, lsl #28
  e0:	0000070d 	andeq	r0, r0, sp, lsl #14
  e4:	00000018 	andeq	r0, r0, r8, lsl r0
  e8:	00000000 	andeq	r0, r0, r0
  ec:	08000350 	stmdaeq	r0, {r4, r6, r8, r9}
  f0:	0000000e 	andeq	r0, r0, lr
  f4:	87080e41 	strhi	r0, [r8, -r1, asr #28]
  f8:	41018e02 	tstmi	r1, r2, lsl #28
  fc:	0000070d 	andeq	r0, r0, sp, lsl #14
 100:	0000001c 	andeq	r0, r0, ip, lsl r0
 104:	00000000 	andeq	r0, r0, r0
 108:	08000360 	stmdaeq	r0, {r5, r6, r8, r9}
 10c:	0000004c 	andeq	r0, r0, ip, asr #32
 110:	87080e41 	strhi	r0, [r8, -r1, asr #28]
 114:	41018e02 	tstmi	r1, r2, lsl #28
 118:	0d41280e 	stcleq	8, cr2, [r1, #-56]	; 0xffffffc8
 11c:	00000007 	andeq	r0, r0, r7
 120:	0000000c 	andeq	r0, r0, ip
 124:	ffffffff 			; <UNDEFINED> instruction: 0xffffffff
 128:	7c020001 	stcvc	0, cr0, [r2], {1}
 12c:	000d0c0e 	andeq	r0, sp, lr, lsl #24
 130:	00000020 	andeq	r0, r0, r0, lsr #32
 134:	00000120 	andeq	r0, r0, r0, lsr #2
 138:	080003fe 	stmdaeq	r0, {r1, r2, r3, r4, r5, r6, r7, r8, r9}
 13c:	00000016 	andeq	r0, r0, r6, lsl r0
 140:	87080e41 	strhi	r0, [r8, -r1, asr #28]
 144:	41018e02 	tstmi	r1, r2, lsl #28
 148:	0d41100e 	stcleq	0, cr1, [r1, #-56]	; 0xffffffc8
 14c:	080e4607 	stmdaeq	lr, {r0, r1, r2, r9, sl, lr}
 150:	000d0d41 	andeq	r0, sp, r1, asr #26
 154:	00000020 	andeq	r0, r0, r0, lsr #32
 158:	00000120 	andeq	r0, r0, r0, lsr #2
 15c:	00000000 	andeq	r0, r0, r0
 160:	00000016 	andeq	r0, r0, r6, lsl r0
 164:	87080e41 	strhi	r0, [r8, -r1, asr #28]
 168:	41018e02 	tstmi	r1, r2, lsl #28
 16c:	0d41100e 	stcleq	0, cr1, [r1, #-56]	; 0xffffffc8
 170:	080e4607 	stmdaeq	lr, {r0, r1, r2, r9, sl, lr}
 174:	000d0d41 	andeq	r0, sp, r1, asr #26
 178:	0000001c 	andeq	r0, r0, ip, lsl r0
 17c:	00000120 	andeq	r0, r0, r0, lsr #2
 180:	00000000 	andeq	r0, r0, r0
 184:	0000008c 	andeq	r0, r0, ip, lsl #1
 188:	87040e41 	strhi	r0, [r4, -r1, asr #28]
 18c:	070d4101 	streq	r4, [sp, -r1, lsl #2]
 190:	410d0d7c 	tstmi	sp, ip, ror sp
 194:	00000ec7 	andeq	r0, r0, r7, asr #29
 198:	00000020 	andeq	r0, r0, r0, lsr #32
 19c:	00000120 	andeq	r0, r0, r0, lsr #2
 1a0:	08000414 	stmdaeq	r0, {r2, r4, sl}
 1a4:	000001e0 	andeq	r0, r0, r0, ror #3
 1a8:	87080e41 	strhi	r0, [r8, -r1, asr #28]
 1ac:	41018e02 	tstmi	r1, r2, lsl #28
 1b0:	0d41180e 	stcleq	8, cr1, [r1, #-56]	; 0xffffffc8
 1b4:	0edc0207 	cdpeq	2, 13, cr0, cr12, cr7, {0}
 1b8:	0d0d4108 	stfeqs	f4, [sp, #-32]	; 0xffffffe0
 1bc:	00000024 	andeq	r0, r0, r4, lsr #32
 1c0:	00000120 	andeq	r0, r0, r0, lsr #2
 1c4:	080005f4 	stmdaeq	r0, {r2, r4, r5, r6, r7, r8, sl}
 1c8:	000000cc 	andeq	r0, r0, ip, asr #1
 1cc:	87040e41 	strhi	r0, [r4, -r1, asr #28]
 1d0:	100e4101 	andne	r4, lr, r1, lsl #2
 1d4:	02070d41 	andeq	r0, r7, #4160	; 0x1040
 1d8:	41040e5c 	tstmi	r4, ip, asr lr
 1dc:	c7410d0d 	strbgt	r0, [r1, -sp, lsl #26]
 1e0:	0000000e 	andeq	r0, r0, lr
 1e4:	00000024 	andeq	r0, r0, r4, lsr #32
 1e8:	00000120 	andeq	r0, r0, r0, lsr #2
 1ec:	080006c0 	stmdaeq	r0, {r6, r7, r9, sl}
 1f0:	000000cc 	andeq	r0, r0, ip, asr #1
 1f4:	87040e41 	strhi	r0, [r4, -r1, asr #28]
 1f8:	100e4101 	andne	r4, lr, r1, lsl #2
 1fc:	02070d41 	andeq	r0, r7, #4160	; 0x1040
 200:	41040e5c 	tstmi	r4, ip, asr lr
 204:	c7410d0d 	strbgt	r0, [r1, -sp, lsl #26]
 208:	0000000e 	andeq	r0, r0, lr
 20c:	00000018 	andeq	r0, r0, r8, lsl r0
 210:	00000120 	andeq	r0, r0, r0, lsr #2
 214:	0800078c 	stmdaeq	r0, {r2, r3, r7, r8, r9, sl}
 218:	00000024 	andeq	r0, r0, r4, lsr #32
 21c:	87080e41 	strhi	r0, [r8, -r1, asr #28]
 220:	41018e02 	tstmi	r1, r2, lsl #28
 224:	0000070d 	andeq	r0, r0, sp, lsl #14
 228:	00000018 	andeq	r0, r0, r8, lsl r0
 22c:	00000120 	andeq	r0, r0, r0, lsr #2
 230:	080007b0 	stmdaeq	r0, {r4, r5, r7, r8, r9, sl}
 234:	00000024 	andeq	r0, r0, r4, lsr #32
 238:	87080e41 	strhi	r0, [r8, -r1, asr #28]
 23c:	41018e02 	tstmi	r1, r2, lsl #28
 240:	0000070d 	andeq	r0, r0, sp, lsl #14
 244:	00000018 	andeq	r0, r0, r8, lsl r0
 248:	00000120 	andeq	r0, r0, r0, lsr #2
 24c:	080007d4 	stmdaeq	r0, {r2, r4, r6, r7, r8, r9, sl}
 250:	00000024 	andeq	r0, r0, r4, lsr #32
 254:	87080e41 	strhi	r0, [r8, -r1, asr #28]
 258:	41018e02 	tstmi	r1, r2, lsl #28
 25c:	0000070d 	andeq	r0, r0, sp, lsl #14
 260:	00000018 	andeq	r0, r0, r8, lsl r0
 264:	00000120 	andeq	r0, r0, r0, lsr #2
 268:	080007f8 	stmdaeq	r0, {r3, r4, r5, r6, r7, r8, r9, sl}
 26c:	00000024 	andeq	r0, r0, r4, lsr #32
 270:	87080e41 	strhi	r0, [r8, -r1, asr #28]
 274:	41018e02 	tstmi	r1, r2, lsl #28
 278:	0000070d 	andeq	r0, r0, sp, lsl #14
 27c:	00000018 	andeq	r0, r0, r8, lsl r0
 280:	00000120 	andeq	r0, r0, r0, lsr #2
 284:	0800081c 	stmdaeq	r0, {r2, r3, r4, fp}
 288:	00000024 	andeq	r0, r0, r4, lsr #32
 28c:	87080e41 	strhi	r0, [r8, -r1, asr #28]
 290:	41018e02 	tstmi	r1, r2, lsl #28
 294:	0000070d 	andeq	r0, r0, sp, lsl #14
 298:	00000018 	andeq	r0, r0, r8, lsl r0
 29c:	00000120 	andeq	r0, r0, r0, lsr #2
 2a0:	08000840 	stmdaeq	r0, {r6, fp}
 2a4:	000000a8 	andeq	r0, r0, r8, lsr #1
 2a8:	87080e41 	strhi	r0, [r8, -r1, asr #28]
 2ac:	41018e02 	tstmi	r1, r2, lsl #28
 2b0:	0000070d 	andeq	r0, r0, sp, lsl #14
 2b4:	00000018 	andeq	r0, r0, r8, lsl r0
 2b8:	00000120 	andeq	r0, r0, r0, lsr #2
 2bc:	080008e8 	stmdaeq	r0, {r3, r5, r6, r7, fp}
 2c0:	000000c4 	andeq	r0, r0, r4, asr #1
 2c4:	87080e41 	strhi	r0, [r8, -r1, asr #28]
 2c8:	41018e02 	tstmi	r1, r2, lsl #28
 2cc:	0000070d 	andeq	r0, r0, sp, lsl #14
 2d0:	0000000c 	andeq	r0, r0, ip
 2d4:	ffffffff 			; <UNDEFINED> instruction: 0xffffffff
 2d8:	7c020001 	stcvc	0, cr0, [r2], {1}
 2dc:	000d0c0e 	andeq	r0, sp, lr, lsl #24
 2e0:	00000024 	andeq	r0, r0, r4, lsr #32
 2e4:	000002d0 	ldrdeq	r0, [r0], -r0	; <UNPREDICTABLE>
 2e8:	080009ac 	stmdaeq	r0, {r2, r3, r5, r7, r8, fp}
 2ec:	00000142 	andeq	r0, r0, r2, asr #2
 2f0:	87040e41 	strhi	r0, [r4, -r1, asr #28]
 2f4:	100e4101 	andne	r4, lr, r1, lsl #2
 2f8:	02070d41 	andeq	r0, r7, #4160	; 0x1040
 2fc:	41040e9b 			; <UNDEFINED> instruction: 0x41040e9b
 300:	c7410d0d 	strbgt	r0, [r1, -sp, lsl #26]
 304:	0000000e 	andeq	r0, r0, lr
 308:	00000024 	andeq	r0, r0, r4, lsr #32
 30c:	000002d0 	ldrdeq	r0, [r0], -r0	; <UNPREDICTABLE>
 310:	08000af0 	stmdaeq	r0, {r4, r5, r6, r7, r9, fp}
 314:	0000018a 	andeq	r0, r0, sl, lsl #3
 318:	840c0e41 	strhi	r0, [ip], #-3649	; 0xfffff1bf
 31c:	8e028703 	cdphi	7, 0, cr8, cr2, cr3, {0}
 320:	200e4101 	andcs	r4, lr, r1, lsl #2
 324:	02070d41 	andeq	r0, r7, #4160	; 0x1040
 328:	410c0ec0 	smlabtmi	ip, r0, lr, r0
 32c:	00000d0d 	andeq	r0, r0, sp, lsl #26
 330:	00000024 	andeq	r0, r0, r4, lsr #32
 334:	000002d0 	ldrdeq	r0, [r0], -r0	; <UNPREDICTABLE>
 338:	00000000 	andeq	r0, r0, r0
 33c:	000000b0 	strheq	r0, [r0], -r0	; <UNPREDICTABLE>
 340:	87040e41 	strhi	r0, [r4, -r1, asr #28]
 344:	100e4101 	andne	r4, lr, r1, lsl #2
 348:	02070d41 	andeq	r0, r7, #4160	; 0x1040
 34c:	41040e47 	tstmi	r4, r7, asr #28
 350:	c7410d0d 	strbgt	r0, [r1, -sp, lsl #26]
 354:	0000000e 	andeq	r0, r0, lr
 358:	00000024 	andeq	r0, r0, r4, lsr #32
 35c:	000002d0 	ldrdeq	r0, [r0], -r0	; <UNPREDICTABLE>
 360:	00000000 	andeq	r0, r0, r0
 364:	00000028 	andeq	r0, r0, r8, lsr #32
 368:	87040e41 	strhi	r0, [r4, -r1, asr #28]
 36c:	100e4101 	andne	r4, lr, r1, lsl #2
 370:	4e070d41 	cdpmi	13, 0, cr0, cr7, cr1, {2}
 374:	0d41040e 	cfstrdeq	mvd0, [r1, #-56]	; 0xffffffc8
 378:	0ec7410d 	poleqs	f4, f7, #5.0
 37c:	00000000 	andeq	r0, r0, r0
 380:	00000024 	andeq	r0, r0, r4, lsr #32
 384:	000002d0 	ldrdeq	r0, [r0], -r0	; <UNPREDICTABLE>
 388:	00000000 	andeq	r0, r0, r0
 38c:	00000018 	andeq	r0, r0, r8, lsl r0
 390:	87040e41 	strhi	r0, [r4, -r1, asr #28]
 394:	100e4101 	andne	r4, lr, r1, lsl #2
 398:	46070d41 	strmi	r0, [r7], -r1, asr #26
 39c:	0d41040e 	cfstrdeq	mvd0, [r1, #-56]	; 0xffffffc8
 3a0:	0ec7410d 	poleqs	f4, f7, #5.0
 3a4:	00000000 	andeq	r0, r0, r0
 3a8:	00000024 	andeq	r0, r0, r4, lsr #32
 3ac:	000002d0 	ldrdeq	r0, [r0], -r0	; <UNPREDICTABLE>
 3b0:	00000000 	andeq	r0, r0, r0
 3b4:	0000002e 	andeq	r0, r0, lr, lsr #32
 3b8:	87040e41 	strhi	r0, [r4, -r1, asr #28]
 3bc:	100e4101 	andne	r4, lr, r1, lsl #2
 3c0:	51070d41 	tstpl	r7, r1, asr #26
 3c4:	0d41040e 	cfstrdeq	mvd0, [r1, #-56]	; 0xffffffc8
 3c8:	0ec7410d 	poleqs	f4, f7, #5.0
 3cc:	00000000 	andeq	r0, r0, r0
 3d0:	00000024 	andeq	r0, r0, r4, lsr #32
 3d4:	000002d0 	ldrdeq	r0, [r0], -r0	; <UNPREDICTABLE>
 3d8:	00000000 	andeq	r0, r0, r0
 3dc:	00000022 	andeq	r0, r0, r2, lsr #32
 3e0:	87040e41 	strhi	r0, [r4, -r1, asr #28]
 3e4:	100e4101 	andne	r4, lr, r1, lsl #2
 3e8:	4b070d41 	blmi	1c38f4 <_Min_Stack_Size+0x1c34f4>
 3ec:	0d41040e 	cfstrdeq	mvd0, [r1, #-56]	; 0xffffffc8
 3f0:	0ec7410d 	poleqs	f4, f7, #5.0
 3f4:	00000000 	andeq	r0, r0, r0
 3f8:	00000024 	andeq	r0, r0, r4, lsr #32
 3fc:	000002d0 	ldrdeq	r0, [r0], -r0	; <UNPREDICTABLE>
 400:	00000000 	andeq	r0, r0, r0
 404:	00000022 	andeq	r0, r0, r2, lsr #32
 408:	87040e41 	strhi	r0, [r4, -r1, asr #28]
 40c:	100e4101 	andne	r4, lr, r1, lsl #2
 410:	4b070d41 	blmi	1c391c <_Min_Stack_Size+0x1c351c>
 414:	0d41040e 	cfstrdeq	mvd0, [r1, #-56]	; 0xffffffc8
 418:	0ec7410d 	poleqs	f4, f7, #5.0
 41c:	00000000 	andeq	r0, r0, r0
 420:	00000024 	andeq	r0, r0, r4, lsr #32
 424:	000002d0 	ldrdeq	r0, [r0], -r0	; <UNPREDICTABLE>
 428:	00000000 	andeq	r0, r0, r0
 42c:	0000004e 	andeq	r0, r0, lr, asr #32
 430:	87040e41 	strhi	r0, [r4, -r1, asr #28]
 434:	180e4101 	stmdane	lr, {r0, r8, lr}
 438:	61070d41 	tstvs	r7, r1, asr #26
 43c:	0d41040e 	cfstrdeq	mvd0, [r1, #-56]	; 0xffffffc8
 440:	0ec7410d 	poleqs	f4, f7, #5.0
 444:	00000000 	andeq	r0, r0, r0
 448:	0000000c 	andeq	r0, r0, ip
 44c:	ffffffff 			; <UNDEFINED> instruction: 0xffffffff
 450:	7c020001 	stcvc	0, cr0, [r2], {1}
 454:	000d0c0e 	andeq	r0, sp, lr, lsl #24
 458:	00000018 	andeq	r0, r0, r8, lsl r0
 45c:	00000448 	andeq	r0, r0, r8, asr #8
 460:	08000c7c 	stmdaeq	r0, {r2, r3, r4, r5, r6, sl, fp}
 464:	00000048 	andeq	r0, r0, r8, asr #32
 468:	84100e41 	ldrhi	r0, [r0], #-3649	; 0xfffff1bf
 46c:	86038504 	strhi	r8, [r3], -r4, lsl #10
 470:	00018e02 	andeq	r8, r1, r2, lsl #28
