
Drivers.axf:     file format elf32-littlearm


Disassembly of section .isr_vector:

08000000 <g_pfnVectors>:
 8000000:	20002800 	andcs	r2, r0, r0, lsl #16
 8000004:	080003ad 	stmdaeq	r0, {r0, r2, r3, r5, r7, r8, r9}
 8000008:	080003fd 	stmdaeq	r0, {r0, r2, r3, r4, r5, r6, r7, r8, r9}
 800000c:	080003fd 	stmdaeq	r0, {r0, r2, r3, r4, r5, r6, r7, r8, r9}
 8000010:	080003fd 	stmdaeq	r0, {r0, r2, r3, r4, r5, r6, r7, r8, r9}
 8000014:	080003fd 	stmdaeq	r0, {r0, r2, r3, r4, r5, r6, r7, r8, r9}
 8000018:	080003fd 	stmdaeq	r0, {r0, r2, r3, r4, r5, r6, r7, r8, r9}
	...
 800002c:	08000351 	stmdaeq	r0, {r0, r4, r6, r8, r9}
 8000030:	080003fd 	stmdaeq	r0, {r0, r2, r3, r4, r5, r6, r7, r8, r9}
 8000034:	00000000 	andeq	r0, r0, r0
 8000038:	080003fd 	stmdaeq	r0, {r0, r2, r3, r4, r5, r6, r7, r8, r9}
 800003c:	080003fd 	stmdaeq	r0, {r0, r2, r3, r4, r5, r6, r7, r8, r9}
 8000040:	080003fd 	stmdaeq	r0, {r0, r2, r3, r4, r5, r6, r7, r8, r9}
 8000044:	080003fd 	stmdaeq	r0, {r0, r2, r3, r4, r5, r6, r7, r8, r9}
 8000048:	080003fd 	stmdaeq	r0, {r0, r2, r3, r4, r5, r6, r7, r8, r9}
 800004c:	080003fd 	stmdaeq	r0, {r0, r2, r3, r4, r5, r6, r7, r8, r9}
 8000050:	080003fd 	stmdaeq	r0, {r0, r2, r3, r4, r5, r6, r7, r8, r9}
 8000054:	080003fd 	stmdaeq	r0, {r0, r2, r3, r4, r5, r6, r7, r8, r9}
 8000058:	0800078d 	stmdaeq	r0, {r0, r2, r3, r7, r8, r9, sl}
 800005c:	080007b1 	stmdaeq	r0, {r0, r4, r5, r7, r8, r9, sl}
 8000060:	080007d5 	stmdaeq	r0, {r0, r2, r4, r6, r7, r8, r9, sl}
 8000064:	080007f9 	stmdaeq	r0, {r0, r3, r4, r5, r6, r7, r8, r9, sl}
 8000068:	0800081d 	stmdaeq	r0, {r0, r2, r3, r4, fp}
 800006c:	080003fd 	stmdaeq	r0, {r0, r2, r3, r4, r5, r6, r7, r8, r9}
 8000070:	080003fd 	stmdaeq	r0, {r0, r2, r3, r4, r5, r6, r7, r8, r9}
 8000074:	080003fd 	stmdaeq	r0, {r0, r2, r3, r4, r5, r6, r7, r8, r9}
 8000078:	080003fd 	stmdaeq	r0, {r0, r2, r3, r4, r5, r6, r7, r8, r9}
 800007c:	080003fd 	stmdaeq	r0, {r0, r2, r3, r4, r5, r6, r7, r8, r9}
 8000080:	080003fd 	stmdaeq	r0, {r0, r2, r3, r4, r5, r6, r7, r8, r9}
 8000084:	080003fd 	stmdaeq	r0, {r0, r2, r3, r4, r5, r6, r7, r8, r9}
 8000088:	080003fd 	stmdaeq	r0, {r0, r2, r3, r4, r5, r6, r7, r8, r9}
 800008c:	080003fd 	stmdaeq	r0, {r0, r2, r3, r4, r5, r6, r7, r8, r9}
 8000090:	080003fd 	stmdaeq	r0, {r0, r2, r3, r4, r5, r6, r7, r8, r9}
 8000094:	080003fd 	stmdaeq	r0, {r0, r2, r3, r4, r5, r6, r7, r8, r9}
 8000098:	080003fd 	stmdaeq	r0, {r0, r2, r3, r4, r5, r6, r7, r8, r9}
 800009c:	08000841 	stmdaeq	r0, {r0, r6, fp}
 80000a0:	080003fd 	stmdaeq	r0, {r0, r2, r3, r4, r5, r6, r7, r8, r9}
 80000a4:	080003fd 	stmdaeq	r0, {r0, r2, r3, r4, r5, r6, r7, r8, r9}
 80000a8:	080003fd 	stmdaeq	r0, {r0, r2, r3, r4, r5, r6, r7, r8, r9}
 80000ac:	080003fd 	stmdaeq	r0, {r0, r2, r3, r4, r5, r6, r7, r8, r9}
 80000b0:	080003fd 	stmdaeq	r0, {r0, r2, r3, r4, r5, r6, r7, r8, r9}
 80000b4:	080003fd 	stmdaeq	r0, {r0, r2, r3, r4, r5, r6, r7, r8, r9}
 80000b8:	080003fd 	stmdaeq	r0, {r0, r2, r3, r4, r5, r6, r7, r8, r9}
 80000bc:	080003fd 	stmdaeq	r0, {r0, r2, r3, r4, r5, r6, r7, r8, r9}
 80000c0:	080003fd 	stmdaeq	r0, {r0, r2, r3, r4, r5, r6, r7, r8, r9}
 80000c4:	080003fd 	stmdaeq	r0, {r0, r2, r3, r4, r5, r6, r7, r8, r9}
 80000c8:	080003fd 	stmdaeq	r0, {r0, r2, r3, r4, r5, r6, r7, r8, r9}
 80000cc:	080003fd 	stmdaeq	r0, {r0, r2, r3, r4, r5, r6, r7, r8, r9}
 80000d0:	080003fd 	stmdaeq	r0, {r0, r2, r3, r4, r5, r6, r7, r8, r9}
 80000d4:	080003fd 	stmdaeq	r0, {r0, r2, r3, r4, r5, r6, r7, r8, r9}
 80000d8:	080003fd 	stmdaeq	r0, {r0, r2, r3, r4, r5, r6, r7, r8, r9}
 80000dc:	080003fd 	stmdaeq	r0, {r0, r2, r3, r4, r5, r6, r7, r8, r9}
 80000e0:	080008e9 	stmdaeq	r0, {r0, r3, r5, r6, r7, fp}
 80000e4:	080003fd 	stmdaeq	r0, {r0, r2, r3, r4, r5, r6, r7, r8, r9}
 80000e8:	00000000 	andeq	r0, r0, r0
 80000ec:	080003fd 	stmdaeq	r0, {r0, r2, r3, r4, r5, r6, r7, r8, r9}
 80000f0:	080003fd 	stmdaeq	r0, {r0, r2, r3, r4, r5, r6, r7, r8, r9}
 80000f4:	080003fd 	stmdaeq	r0, {r0, r2, r3, r4, r5, r6, r7, r8, r9}
 80000f8:	080003fd 	stmdaeq	r0, {r0, r2, r3, r4, r5, r6, r7, r8, r9}
 80000fc:	080003fd 	stmdaeq	r0, {r0, r2, r3, r4, r5, r6, r7, r8, r9}
 8000100:	080003fd 	stmdaeq	r0, {r0, r2, r3, r4, r5, r6, r7, r8, r9}
 8000104:	080003fd 	stmdaeq	r0, {r0, r2, r3, r4, r5, r6, r7, r8, r9}
 8000108:	080003fd 	stmdaeq	r0, {r0, r2, r3, r4, r5, r6, r7, r8, r9}
 800010c:	080003fd 	stmdaeq	r0, {r0, r2, r3, r4, r5, r6, r7, r8, r9}
 8000110:	080003fd 	stmdaeq	r0, {r0, r2, r3, r4, r5, r6, r7, r8, r9}
 8000114:	080003fd 	stmdaeq	r0, {r0, r2, r3, r4, r5, r6, r7, r8, r9}
 8000118:	080003fd 	stmdaeq	r0, {r0, r2, r3, r4, r5, r6, r7, r8, r9}
 800011c:	080003fd 	stmdaeq	r0, {r0, r2, r3, r4, r5, r6, r7, r8, r9}
 8000120:	080003fd 	stmdaeq	r0, {r0, r2, r3, r4, r5, r6, r7, r8, r9}
 8000124:	080003fd 	stmdaeq	r0, {r0, r2, r3, r4, r5, r6, r7, r8, r9}
 8000128:	080003fd 	stmdaeq	r0, {r0, r2, r3, r4, r5, r6, r7, r8, r9}
 800012c:	080003fd 	stmdaeq	r0, {r0, r2, r3, r4, r5, r6, r7, r8, r9}

Disassembly of section .text:

08000130 <__do_global_dtors_aux>:
 8000130:	b510      	push	{r4, lr}
 8000132:	4c05      	ldr	r4, [pc, #20]	; (8000148 <__do_global_dtors_aux+0x18>)
 8000134:	7823      	ldrb	r3, [r4, #0]
 8000136:	b933      	cbnz	r3, 8000146 <__do_global_dtors_aux+0x16>
 8000138:	4b04      	ldr	r3, [pc, #16]	; (800014c <__do_global_dtors_aux+0x1c>)
 800013a:	b113      	cbz	r3, 8000142 <__do_global_dtors_aux+0x12>
 800013c:	4804      	ldr	r0, [pc, #16]	; (8000150 <__do_global_dtors_aux+0x20>)
 800013e:	f3af 8000 	nop.w
 8000142:	2301      	movs	r3, #1
 8000144:	7023      	strb	r3, [r4, #0]
 8000146:	bd10      	pop	{r4, pc}
 8000148:	20000004 	andcs	r0, r0, r4
 800014c:	00000000 	andeq	r0, r0, r0
 8000150:	08000cc4 	stmdaeq	r0, {r2, r6, r7, sl, fp}

08000154 <frame_dummy>:
 8000154:	b508      	push	{r3, lr}
 8000156:	4b03      	ldr	r3, [pc, #12]	; (8000164 <frame_dummy+0x10>)
 8000158:	b11b      	cbz	r3, 8000162 <frame_dummy+0xe>
 800015a:	4903      	ldr	r1, [pc, #12]	; (8000168 <frame_dummy+0x14>)
 800015c:	4803      	ldr	r0, [pc, #12]	; (800016c <frame_dummy+0x18>)
 800015e:	f3af 8000 	nop.w
 8000162:	bd08      	pop	{r3, pc}
 8000164:	00000000 	andeq	r0, r0, r0
 8000168:	20000008 	andcs	r0, r0, r8
 800016c:	08000cc4 	stmdaeq	r0, {r2, r6, r7, sl, fp}

08000170 <Clock_Init>:
 8000170:	b480      	push	{r7}
 8000172:	af00      	add	r7, sp, #0
 8000174:	4b0a      	ldr	r3, [pc, #40]	; (80001a0 <Clock_Init+0x30>)
 8000176:	699b      	ldr	r3, [r3, #24]
 8000178:	4a09      	ldr	r2, [pc, #36]	; (80001a0 <Clock_Init+0x30>)
 800017a:	f043 0301 	orr.w	r3, r3, #1
 800017e:	6193      	str	r3, [r2, #24]
 8000180:	4b07      	ldr	r3, [pc, #28]	; (80001a0 <Clock_Init+0x30>)
 8000182:	699b      	ldr	r3, [r3, #24]
 8000184:	4a06      	ldr	r2, [pc, #24]	; (80001a0 <Clock_Init+0x30>)
 8000186:	f043 0304 	orr.w	r3, r3, #4
 800018a:	6193      	str	r3, [r2, #24]
 800018c:	4b04      	ldr	r3, [pc, #16]	; (80001a0 <Clock_Init+0x30>)
 800018e:	699b      	ldr	r3, [r3, #24]
 8000190:	4a03      	ldr	r2, [pc, #12]	; (80001a0 <Clock_Init+0x30>)
 8000192:	f043 0308 	orr.w	r3, r3, #8
 8000196:	6193      	str	r3, [r2, #24]
 8000198:	bf00      	nop
 800019a:	46bd      	mov	sp, r7
 800019c:	bc80      	pop	{r7}
 800019e:	4770      	bx	lr
 80001a0:	40021000 	andmi	r1, r2, r0

080001a4 <switch_CPU_AccessLevel>:
 80001a4:	b480      	push	{r7}
 80001a6:	b083      	sub	sp, #12
 80001a8:	af00      	add	r7, sp, #0
 80001aa:	4603      	mov	r3, r0
 80001ac:	71fb      	strb	r3, [r7, #7]
 80001ae:	79fb      	ldrb	r3, [r7, #7]
 80001b0:	2b00      	cmp	r3, #0
 80001b2:	d002      	beq.n	80001ba <switch_CPU_AccessLevel+0x16>
 80001b4:	2b01      	cmp	r3, #1
 80001b6:	d009      	beq.n	80001cc <switch_CPU_AccessLevel+0x28>
 80001b8:	e00f      	b.n	80001da <switch_CPU_AccessLevel+0x36>
 80001ba:	f3ef 8314 	mrs	r3, CONTROL
 80001be:	ea4f 0353 	mov.w	r3, r3, lsr #1
 80001c2:	ea4f 0343 	mov.w	r3, r3, lsl #1
 80001c6:	f383 8814 	msr	CONTROL, r3
 80001ca:	e006      	b.n	80001da <switch_CPU_AccessLevel+0x36>
 80001cc:	f3ef 8314 	mrs	r3, CONTROL
 80001d0:	f043 0301 	orr.w	r3, r3, #1
 80001d4:	f383 8814 	msr	CONTROL, r3
 80001d8:	bf00      	nop
 80001da:	bf00      	nop
 80001dc:	370c      	adds	r7, #12
 80001de:	46bd      	mov	sp, r7
 80001e0:	bc80      	pop	{r7}
 80001e2:	4770      	bx	lr

080001e4 <EXTI9_callback>:
 80001e4:	b480      	push	{r7}
 80001e6:	af00      	add	r7, sp, #0
 80001e8:	4b07      	ldr	r3, [pc, #28]	; (8000208 <EXTI9_callback+0x24>)
 80001ea:	2200      	movs	r2, #0
 80001ec:	701a      	strb	r2, [r3, #0]
 80001ee:	4b06      	ldr	r3, [pc, #24]	; (8000208 <EXTI9_callback+0x24>)
 80001f0:	2201      	movs	r2, #1
 80001f2:	701a      	strb	r2, [r3, #0]
 80001f4:	4b05      	ldr	r3, [pc, #20]	; (800020c <EXTI9_callback+0x28>)
 80001f6:	2201      	movs	r2, #1
 80001f8:	701a      	strb	r2, [r3, #0]
 80001fa:	4b03      	ldr	r3, [pc, #12]	; (8000208 <EXTI9_callback+0x24>)
 80001fc:	2200      	movs	r2, #0
 80001fe:	701a      	strb	r2, [r3, #0]
 8000200:	bf00      	nop
 8000202:	46bd      	mov	sp, r7
 8000204:	bc80      	pop	{r7}
 8000206:	4770      	bx	lr
 8000208:	20000034 	andcs	r0, r0, r4, lsr r0
 800020c:	20000036 	andcs	r0, r0, r6, lsr r0

08000210 <TaskA>:
 8000210:	b480      	push	{r7}
 8000212:	b085      	sub	sp, #20
 8000214:	af00      	add	r7, sp, #0
 8000216:	60f8      	str	r0, [r7, #12]
 8000218:	60b9      	str	r1, [r7, #8]
 800021a:	607a      	str	r2, [r7, #4]
 800021c:	68fa      	ldr	r2, [r7, #12]
 800021e:	68bb      	ldr	r3, [r7, #8]
 8000220:	441a      	add	r2, r3
 8000222:	687b      	ldr	r3, [r7, #4]
 8000224:	4413      	add	r3, r2
 8000226:	4618      	mov	r0, r3
 8000228:	3714      	adds	r7, #20
 800022a:	46bd      	mov	sp, r7
 800022c:	bc80      	pop	{r7}
 800022e:	4770      	bx	lr

08000230 <TaskB>:
 8000230:	b480      	push	{r7}
 8000232:	b085      	sub	sp, #20
 8000234:	af00      	add	r7, sp, #0
 8000236:	60f8      	str	r0, [r7, #12]
 8000238:	60b9      	str	r1, [r7, #8]
 800023a:	607a      	str	r2, [r7, #4]
 800023c:	603b      	str	r3, [r7, #0]
 800023e:	68fa      	ldr	r2, [r7, #12]
 8000240:	68bb      	ldr	r3, [r7, #8]
 8000242:	441a      	add	r2, r3
 8000244:	687b      	ldr	r3, [r7, #4]
 8000246:	441a      	add	r2, r3
 8000248:	683b      	ldr	r3, [r7, #0]
 800024a:	4413      	add	r3, r2
 800024c:	4618      	mov	r0, r3
 800024e:	3714      	adds	r7, #20
 8000250:	46bd      	mov	sp, r7
 8000252:	bc80      	pop	{r7}
 8000254:	4770      	bx	lr
	...

08000258 <Main_Os>:
 8000258:	b580      	push	{r7, lr}
 800025a:	af00      	add	r7, sp, #0
 800025c:	4b34      	ldr	r3, [pc, #208]	; (8000330 <Main_Os+0xd8>)
 800025e:	681b      	ldr	r3, [r3, #0]
 8000260:	f5a3 7300 	sub.w	r3, r3, #512	; 0x200
 8000264:	4a33      	ldr	r2, [pc, #204]	; (8000334 <Main_Os+0xdc>)
 8000266:	6013      	str	r3, [r2, #0]
 8000268:	4b32      	ldr	r3, [pc, #200]	; (8000334 <Main_Os+0xdc>)
 800026a:	681b      	ldr	r3, [r3, #0]
 800026c:	3b08      	subs	r3, #8
 800026e:	4a32      	ldr	r2, [pc, #200]	; (8000338 <Main_Os+0xe0>)
 8000270:	6013      	str	r3, [r2, #0]
 8000272:	4b31      	ldr	r3, [pc, #196]	; (8000338 <Main_Os+0xe0>)
 8000274:	681b      	ldr	r3, [r3, #0]
 8000276:	3b64      	subs	r3, #100	; 0x64
 8000278:	4a30      	ldr	r2, [pc, #192]	; (800033c <Main_Os+0xe4>)
 800027a:	6013      	str	r3, [r2, #0]
 800027c:	4b2f      	ldr	r3, [pc, #188]	; (800033c <Main_Os+0xe4>)
 800027e:	681b      	ldr	r3, [r3, #0]
 8000280:	3b08      	subs	r3, #8
 8000282:	4a2f      	ldr	r2, [pc, #188]	; (8000340 <Main_Os+0xe8>)
 8000284:	6013      	str	r3, [r2, #0]
 8000286:	4b2e      	ldr	r3, [pc, #184]	; (8000340 <Main_Os+0xe8>)
 8000288:	681b      	ldr	r3, [r3, #0]
 800028a:	3b64      	subs	r3, #100	; 0x64
 800028c:	4a2d      	ldr	r2, [pc, #180]	; (8000344 <Main_Os+0xec>)
 800028e:	6013      	str	r3, [r2, #0]
 8000290:	bf00      	nop
 8000292:	4b2d      	ldr	r3, [pc, #180]	; (8000348 <Main_Os+0xf0>)
 8000294:	781b      	ldrb	r3, [r3, #0]
 8000296:	2b01      	cmp	r3, #1
 8000298:	d122      	bne.n	80002e0 <Main_Os+0x88>
 800029a:	4b27      	ldr	r3, [pc, #156]	; (8000338 <Main_Os+0xe0>)
 800029c:	681b      	ldr	r3, [r3, #0]
 800029e:	4618      	mov	r0, r3
 80002a0:	f380 8809 	msr	PSP, r0
 80002a4:	f3ef 8014 	mrs	r0, CONTROL
 80002a8:	f04f 0102 	mov.w	r1, #2
 80002ac:	ea40 0001 	orr.w	r0, r0, r1
 80002b0:	f380 8814 	msr	CONTROL, r0
 80002b4:	2001      	movs	r0, #1
 80002b6:	f7ff ff75 	bl	80001a4 <switch_CPU_AccessLevel>
 80002ba:	2203      	movs	r2, #3
 80002bc:	2102      	movs	r1, #2
 80002be:	2001      	movs	r0, #1
 80002c0:	f7ff ffa6 	bl	8000210 <TaskA>
 80002c4:	4603      	mov	r3, r0
 80002c6:	b2da      	uxtb	r2, r3
 80002c8:	4b1f      	ldr	r3, [pc, #124]	; (8000348 <Main_Os+0xf0>)
 80002ca:	701a      	strb	r2, [r3, #0]
 80002cc:	df03      	svc	3
 80002ce:	f3ef 8014 	mrs	r0, CONTROL
 80002d2:	f04f 0105 	mov.w	r1, #5
 80002d6:	ea00 0001 	and.w	r0, r0, r1
 80002da:	f380 8814 	msr	CONTROL, r0
 80002de:	e7d7      	b.n	8000290 <Main_Os+0x38>
 80002e0:	4b1a      	ldr	r3, [pc, #104]	; (800034c <Main_Os+0xf4>)
 80002e2:	781b      	ldrb	r3, [r3, #0]
 80002e4:	2b01      	cmp	r3, #1
 80002e6:	d1d3      	bne.n	8000290 <Main_Os+0x38>
 80002e8:	4b15      	ldr	r3, [pc, #84]	; (8000340 <Main_Os+0xe8>)
 80002ea:	681b      	ldr	r3, [r3, #0]
 80002ec:	4618      	mov	r0, r3
 80002ee:	f380 8809 	msr	PSP, r0
 80002f2:	f3ef 8014 	mrs	r0, CONTROL
 80002f6:	f04f 0102 	mov.w	r1, #2
 80002fa:	ea40 0001 	orr.w	r0, r0, r1
 80002fe:	f380 8814 	msr	CONTROL, r0
 8000302:	2001      	movs	r0, #1
 8000304:	f7ff ff4e 	bl	80001a4 <switch_CPU_AccessLevel>
 8000308:	2304      	movs	r3, #4
 800030a:	2203      	movs	r2, #3
 800030c:	2102      	movs	r1, #2
 800030e:	2001      	movs	r0, #1
 8000310:	f7ff ff8e 	bl	8000230 <TaskB>
 8000314:	4603      	mov	r3, r0
 8000316:	b2da      	uxtb	r2, r3
 8000318:	4b0c      	ldr	r3, [pc, #48]	; (800034c <Main_Os+0xf4>)
 800031a:	701a      	strb	r2, [r3, #0]
 800031c:	df03      	svc	3
 800031e:	f3ef 8014 	mrs	r0, CONTROL
 8000322:	f04f 0105 	mov.w	r1, #5
 8000326:	ea00 0001 	and.w	r0, r0, r1
 800032a:	f380 8814 	msr	CONTROL, r0
 800032e:	e7af      	b.n	8000290 <Main_Os+0x38>
 8000330:	20000000 	andcs	r0, r0, r0
 8000334:	20000020 	andcs	r0, r0, r0, lsr #32
 8000338:	20000024 	andcs	r0, r0, r4, lsr #32
 800033c:	20000028 	andcs	r0, r0, r8, lsr #32
 8000340:	2000002c 	andcs	r0, r0, ip, lsr #32
 8000344:	20000030 	andcs	r0, r0, r0, lsr r0
 8000348:	20000035 	andcs	r0, r0, r5, lsr r0
 800034c:	20000036 	andcs	r0, r0, r6, lsr r0

08000350 <SVC_Handler>:
 8000350:	b580      	push	{r7, lr}
 8000352:	af00      	add	r7, sp, #0
 8000354:	2000      	movs	r0, #0
 8000356:	f7ff ff25 	bl	80001a4 <switch_CPU_AccessLevel>
 800035a:	bf00      	nop
 800035c:	bd80      	pop	{r7, pc}
	...

08000360 <main>:
 8000360:	b580      	push	{r7, lr}
 8000362:	b088      	sub	sp, #32
 8000364:	af00      	add	r7, sp, #0
 8000366:	f7ff ff03 	bl	8000170 <Clock_Init>
 800036a:	4a0d      	ldr	r2, [pc, #52]	; (80003a0 <main+0x40>)
 800036c:	f107 030c 	add.w	r3, r7, #12
 8000370:	ca07      	ldmia	r2, {r0, r1, r2}
 8000372:	e883 0007 	stmia.w	r3, {r0, r1, r2}
 8000376:	2300      	movs	r3, #0
 8000378:	763b      	strb	r3, [r7, #24]
 800037a:	2301      	movs	r3, #1
 800037c:	767b      	strb	r3, [r7, #25]
 800037e:	4b09      	ldr	r3, [pc, #36]	; (80003a4 <main+0x44>)
 8000380:	61fb      	str	r3, [r7, #28]
 8000382:	f107 030c 	add.w	r3, r7, #12
 8000386:	4618      	mov	r0, r3
 8000388:	f000 f839 	bl	80003fe <EXTI_Init>
 800038c:	f7ff ff64 	bl	8000258 <Main_Os>
 8000390:	4b05      	ldr	r3, [pc, #20]	; (80003a8 <main+0x48>)
 8000392:	781b      	ldrb	r3, [r3, #0]
 8000394:	2b00      	cmp	r3, #0
 8000396:	d0fb      	beq.n	8000390 <main+0x30>
 8000398:	4b03      	ldr	r3, [pc, #12]	; (80003a8 <main+0x48>)
 800039a:	2200      	movs	r2, #0
 800039c:	701a      	strb	r2, [r3, #0]
 800039e:	e7f7      	b.n	8000390 <main+0x30>
 80003a0:	08000cdc 	stmdaeq	r0, {r2, r3, r4, r6, r7, sl, fp}
 80003a4:	080001e5 	stmdaeq	r0, {r0, r2, r5, r6, r7, r8}
 80003a8:	20000034 	andcs	r0, r0, r4, lsr r0

080003ac <Reset_Handler>:
 80003ac:	480d      	ldr	r0, [pc, #52]	; (80003e4 <LoopForever+0x2>)
 80003ae:	4685      	mov	sp, r0
 80003b0:	f3af 8000 	nop.w
 80003b4:	480c      	ldr	r0, [pc, #48]	; (80003e8 <LoopForever+0x6>)
 80003b6:	490d      	ldr	r1, [pc, #52]	; (80003ec <LoopForever+0xa>)
 80003b8:	4a0d      	ldr	r2, [pc, #52]	; (80003f0 <LoopForever+0xe>)
 80003ba:	2300      	movs	r3, #0
 80003bc:	e002      	b.n	80003c4 <LoopCopyDataInit>

080003be <CopyDataInit>:
 80003be:	58d4      	ldr	r4, [r2, r3]
 80003c0:	50c4      	str	r4, [r0, r3]
 80003c2:	3304      	adds	r3, #4

080003c4 <LoopCopyDataInit>:
 80003c4:	18c4      	adds	r4, r0, r3
 80003c6:	428c      	cmp	r4, r1
 80003c8:	d3f9      	bcc.n	80003be <CopyDataInit>
 80003ca:	4a0a      	ldr	r2, [pc, #40]	; (80003f4 <LoopForever+0x12>)
 80003cc:	4c0a      	ldr	r4, [pc, #40]	; (80003f8 <LoopForever+0x16>)
 80003ce:	2300      	movs	r3, #0
 80003d0:	e001      	b.n	80003d6 <LoopFillZerobss>

080003d2 <FillZerobss>:
 80003d2:	6013      	str	r3, [r2, #0]
 80003d4:	3204      	adds	r2, #4

080003d6 <LoopFillZerobss>:
 80003d6:	42a2      	cmp	r2, r4
 80003d8:	d3fb      	bcc.n	80003d2 <FillZerobss>
 80003da:	f000 fc4f 	bl	8000c7c <__libc_init_array>
 80003de:	f7ff ffbf 	bl	8000360 <main>

080003e2 <LoopForever>:
 80003e2:	e7fe      	b.n	80003e2 <LoopForever>
 80003e4:	20002800 	andcs	r2, r0, r0, lsl #16
 80003e8:	20000000 	andcs	r0, r0, r0
 80003ec:	20000004 	andcs	r0, r0, r4
 80003f0:	08000cf0 	stmdaeq	r0, {r4, r5, r6, r7, sl, fp}
 80003f4:	20000004 	andcs	r0, r0, r4
 80003f8:	20000074 	andcs	r0, r0, r4, ror r0

080003fc <ADC1_2_IRQHandler>:
 80003fc:	e7fe      	b.n	80003fc <ADC1_2_IRQHandler>

080003fe <EXTI_Init>:
 80003fe:	b580      	push	{r7, lr}
 8000400:	b082      	sub	sp, #8
 8000402:	af00      	add	r7, sp, #0
 8000404:	6078      	str	r0, [r7, #4]
 8000406:	6878      	ldr	r0, [r7, #4]
 8000408:	f000 f804 	bl	8000414 <Update_EXTI>
 800040c:	bf00      	nop
 800040e:	3708      	adds	r7, #8
 8000410:	46bd      	mov	sp, r7
 8000412:	bd80      	pop	{r7, pc}

08000414 <Update_EXTI>:
 8000414:	b580      	push	{r7, lr}
 8000416:	b084      	sub	sp, #16
 8000418:	af00      	add	r7, sp, #0
 800041a:	6078      	str	r0, [r7, #4]
 800041c:	687b      	ldr	r3, [r7, #4]
 800041e:	891b      	ldrh	r3, [r3, #8]
 8000420:	813b      	strh	r3, [r7, #8]
 8000422:	2301      	movs	r3, #1
 8000424:	817b      	strh	r3, [r7, #10]
 8000426:	687b      	ldr	r3, [r7, #4]
 8000428:	685b      	ldr	r3, [r3, #4]
 800042a:	f107 0208 	add.w	r2, r7, #8
 800042e:	4611      	mov	r1, r2
 8000430:	4618      	mov	r0, r3
 8000432:	f000 fb5d 	bl	8000af0 <GPIO_Init>
 8000436:	687b      	ldr	r3, [r7, #4]
 8000438:	881b      	ldrh	r3, [r3, #0]
 800043a:	089b      	lsrs	r3, r3, #2
 800043c:	b29b      	uxth	r3, r3
 800043e:	73fb      	strb	r3, [r7, #15]
 8000440:	687b      	ldr	r3, [r7, #4]
 8000442:	881b      	ldrh	r3, [r3, #0]
 8000444:	b2db      	uxtb	r3, r3
 8000446:	f003 0303 	and.w	r3, r3, #3
 800044a:	b2db      	uxtb	r3, r3
 800044c:	009b      	lsls	r3, r3, #2
 800044e:	73bb      	strb	r3, [r7, #14]
 8000450:	4a61      	ldr	r2, [pc, #388]	; (80005d8 <Update_EXTI+0x1c4>)
 8000452:	7bfb      	ldrb	r3, [r7, #15]
 8000454:	3302      	adds	r3, #2
 8000456:	f852 2023 	ldr.w	r2, [r2, r3, lsl #2]
 800045a:	7bbb      	ldrb	r3, [r7, #14]
 800045c:	210f      	movs	r1, #15
 800045e:	fa01 f303 	lsl.w	r3, r1, r3
 8000462:	43db      	mvns	r3, r3
 8000464:	4618      	mov	r0, r3
 8000466:	495c      	ldr	r1, [pc, #368]	; (80005d8 <Update_EXTI+0x1c4>)
 8000468:	7bfb      	ldrb	r3, [r7, #15]
 800046a:	4002      	ands	r2, r0
 800046c:	3302      	adds	r3, #2
 800046e:	f841 2023 	str.w	r2, [r1, r3, lsl #2]
 8000472:	4a59      	ldr	r2, [pc, #356]	; (80005d8 <Update_EXTI+0x1c4>)
 8000474:	7bfb      	ldrb	r3, [r7, #15]
 8000476:	3302      	adds	r3, #2
 8000478:	f852 2023 	ldr.w	r2, [r2, r3, lsl #2]
 800047c:	687b      	ldr	r3, [r7, #4]
 800047e:	685b      	ldr	r3, [r3, #4]
 8000480:	4956      	ldr	r1, [pc, #344]	; (80005dc <Update_EXTI+0x1c8>)
 8000482:	428b      	cmp	r3, r1
 8000484:	d016      	beq.n	80004b4 <Update_EXTI+0xa0>
 8000486:	687b      	ldr	r3, [r7, #4]
 8000488:	685b      	ldr	r3, [r3, #4]
 800048a:	4955      	ldr	r1, [pc, #340]	; (80005e0 <Update_EXTI+0x1cc>)
 800048c:	428b      	cmp	r3, r1
 800048e:	d00f      	beq.n	80004b0 <Update_EXTI+0x9c>
 8000490:	687b      	ldr	r3, [r7, #4]
 8000492:	685b      	ldr	r3, [r3, #4]
 8000494:	4953      	ldr	r1, [pc, #332]	; (80005e4 <Update_EXTI+0x1d0>)
 8000496:	428b      	cmp	r3, r1
 8000498:	d008      	beq.n	80004ac <Update_EXTI+0x98>
 800049a:	687b      	ldr	r3, [r7, #4]
 800049c:	685b      	ldr	r3, [r3, #4]
 800049e:	4952      	ldr	r1, [pc, #328]	; (80005e8 <Update_EXTI+0x1d4>)
 80004a0:	428b      	cmp	r3, r1
 80004a2:	d101      	bne.n	80004a8 <Update_EXTI+0x94>
 80004a4:	2303      	movs	r3, #3
 80004a6:	e006      	b.n	80004b6 <Update_EXTI+0xa2>
 80004a8:	2300      	movs	r3, #0
 80004aa:	e004      	b.n	80004b6 <Update_EXTI+0xa2>
 80004ac:	2302      	movs	r3, #2
 80004ae:	e002      	b.n	80004b6 <Update_EXTI+0xa2>
 80004b0:	2301      	movs	r3, #1
 80004b2:	e000      	b.n	80004b6 <Update_EXTI+0xa2>
 80004b4:	2300      	movs	r3, #0
 80004b6:	7bb9      	ldrb	r1, [r7, #14]
 80004b8:	408b      	lsls	r3, r1
 80004ba:	4618      	mov	r0, r3
 80004bc:	4946      	ldr	r1, [pc, #280]	; (80005d8 <Update_EXTI+0x1c4>)
 80004be:	7bfb      	ldrb	r3, [r7, #15]
 80004c0:	4302      	orrs	r2, r0
 80004c2:	3302      	adds	r3, #2
 80004c4:	f841 2023 	str.w	r2, [r1, r3, lsl #2]
 80004c8:	4b48      	ldr	r3, [pc, #288]	; (80005ec <Update_EXTI+0x1d8>)
 80004ca:	689b      	ldr	r3, [r3, #8]
 80004cc:	687a      	ldr	r2, [r7, #4]
 80004ce:	8812      	ldrh	r2, [r2, #0]
 80004d0:	4611      	mov	r1, r2
 80004d2:	2201      	movs	r2, #1
 80004d4:	408a      	lsls	r2, r1
 80004d6:	43d2      	mvns	r2, r2
 80004d8:	4611      	mov	r1, r2
 80004da:	4a44      	ldr	r2, [pc, #272]	; (80005ec <Update_EXTI+0x1d8>)
 80004dc:	400b      	ands	r3, r1
 80004de:	6093      	str	r3, [r2, #8]
 80004e0:	4b42      	ldr	r3, [pc, #264]	; (80005ec <Update_EXTI+0x1d8>)
 80004e2:	68db      	ldr	r3, [r3, #12]
 80004e4:	687a      	ldr	r2, [r7, #4]
 80004e6:	8812      	ldrh	r2, [r2, #0]
 80004e8:	4611      	mov	r1, r2
 80004ea:	2201      	movs	r2, #1
 80004ec:	408a      	lsls	r2, r1
 80004ee:	43d2      	mvns	r2, r2
 80004f0:	4611      	mov	r1, r2
 80004f2:	4a3e      	ldr	r2, [pc, #248]	; (80005ec <Update_EXTI+0x1d8>)
 80004f4:	400b      	ands	r3, r1
 80004f6:	60d3      	str	r3, [r2, #12]
 80004f8:	687b      	ldr	r3, [r7, #4]
 80004fa:	7b1b      	ldrb	r3, [r3, #12]
 80004fc:	2b00      	cmp	r3, #0
 80004fe:	d10b      	bne.n	8000518 <Update_EXTI+0x104>
 8000500:	4b3a      	ldr	r3, [pc, #232]	; (80005ec <Update_EXTI+0x1d8>)
 8000502:	689b      	ldr	r3, [r3, #8]
 8000504:	687a      	ldr	r2, [r7, #4]
 8000506:	8812      	ldrh	r2, [r2, #0]
 8000508:	4611      	mov	r1, r2
 800050a:	2201      	movs	r2, #1
 800050c:	408a      	lsls	r2, r1
 800050e:	4611      	mov	r1, r2
 8000510:	4a36      	ldr	r2, [pc, #216]	; (80005ec <Update_EXTI+0x1d8>)
 8000512:	430b      	orrs	r3, r1
 8000514:	6093      	str	r3, [r2, #8]
 8000516:	e029      	b.n	800056c <Update_EXTI+0x158>
 8000518:	687b      	ldr	r3, [r7, #4]
 800051a:	7b1b      	ldrb	r3, [r3, #12]
 800051c:	2b01      	cmp	r3, #1
 800051e:	d10b      	bne.n	8000538 <Update_EXTI+0x124>
 8000520:	4b32      	ldr	r3, [pc, #200]	; (80005ec <Update_EXTI+0x1d8>)
 8000522:	68db      	ldr	r3, [r3, #12]
 8000524:	687a      	ldr	r2, [r7, #4]
 8000526:	8812      	ldrh	r2, [r2, #0]
 8000528:	4611      	mov	r1, r2
 800052a:	2201      	movs	r2, #1
 800052c:	408a      	lsls	r2, r1
 800052e:	4611      	mov	r1, r2
 8000530:	4a2e      	ldr	r2, [pc, #184]	; (80005ec <Update_EXTI+0x1d8>)
 8000532:	430b      	orrs	r3, r1
 8000534:	60d3      	str	r3, [r2, #12]
 8000536:	e019      	b.n	800056c <Update_EXTI+0x158>
 8000538:	687b      	ldr	r3, [r7, #4]
 800053a:	7b1b      	ldrb	r3, [r3, #12]
 800053c:	2b02      	cmp	r3, #2
 800053e:	d115      	bne.n	800056c <Update_EXTI+0x158>
 8000540:	4b2a      	ldr	r3, [pc, #168]	; (80005ec <Update_EXTI+0x1d8>)
 8000542:	689b      	ldr	r3, [r3, #8]
 8000544:	687a      	ldr	r2, [r7, #4]
 8000546:	8812      	ldrh	r2, [r2, #0]
 8000548:	4611      	mov	r1, r2
 800054a:	2201      	movs	r2, #1
 800054c:	408a      	lsls	r2, r1
 800054e:	4611      	mov	r1, r2
 8000550:	4a26      	ldr	r2, [pc, #152]	; (80005ec <Update_EXTI+0x1d8>)
 8000552:	430b      	orrs	r3, r1
 8000554:	6093      	str	r3, [r2, #8]
 8000556:	4b25      	ldr	r3, [pc, #148]	; (80005ec <Update_EXTI+0x1d8>)
 8000558:	68db      	ldr	r3, [r3, #12]
 800055a:	687a      	ldr	r2, [r7, #4]
 800055c:	8812      	ldrh	r2, [r2, #0]
 800055e:	4611      	mov	r1, r2
 8000560:	2201      	movs	r2, #1
 8000562:	408a      	lsls	r2, r1
 8000564:	4611      	mov	r1, r2
 8000566:	4a21      	ldr	r2, [pc, #132]	; (80005ec <Update_EXTI+0x1d8>)
 8000568:	430b      	orrs	r3, r1
 800056a:	60d3      	str	r3, [r2, #12]
 800056c:	687b      	ldr	r3, [r7, #4]
 800056e:	881b      	ldrh	r3, [r3, #0]
 8000570:	4619      	mov	r1, r3
 8000572:	687b      	ldr	r3, [r7, #4]
 8000574:	691b      	ldr	r3, [r3, #16]
 8000576:	4a1e      	ldr	r2, [pc, #120]	; (80005f0 <Update_EXTI+0x1dc>)
 8000578:	f842 3021 	str.w	r3, [r2, r1, lsl #2]
 800057c:	687b      	ldr	r3, [r7, #4]
 800057e:	7b5b      	ldrb	r3, [r3, #13]
 8000580:	2b01      	cmp	r3, #1
 8000582:	d110      	bne.n	80005a6 <Update_EXTI+0x192>
 8000584:	4b19      	ldr	r3, [pc, #100]	; (80005ec <Update_EXTI+0x1d8>)
 8000586:	681b      	ldr	r3, [r3, #0]
 8000588:	687a      	ldr	r2, [r7, #4]
 800058a:	8812      	ldrh	r2, [r2, #0]
 800058c:	4611      	mov	r1, r2
 800058e:	2201      	movs	r2, #1
 8000590:	408a      	lsls	r2, r1
 8000592:	4611      	mov	r1, r2
 8000594:	4a15      	ldr	r2, [pc, #84]	; (80005ec <Update_EXTI+0x1d8>)
 8000596:	430b      	orrs	r3, r1
 8000598:	6013      	str	r3, [r2, #0]
 800059a:	687b      	ldr	r3, [r7, #4]
 800059c:	881b      	ldrh	r3, [r3, #0]
 800059e:	4618      	mov	r0, r3
 80005a0:	f000 f828 	bl	80005f4 <Enable_NVIC>
 80005a4:	e013      	b.n	80005ce <Update_EXTI+0x1ba>
 80005a6:	687b      	ldr	r3, [r7, #4]
 80005a8:	7b5b      	ldrb	r3, [r3, #13]
 80005aa:	2b00      	cmp	r3, #0
 80005ac:	d10f      	bne.n	80005ce <Update_EXTI+0x1ba>
 80005ae:	4b0f      	ldr	r3, [pc, #60]	; (80005ec <Update_EXTI+0x1d8>)
 80005b0:	681b      	ldr	r3, [r3, #0]
 80005b2:	687a      	ldr	r2, [r7, #4]
 80005b4:	8812      	ldrh	r2, [r2, #0]
 80005b6:	4611      	mov	r1, r2
 80005b8:	2201      	movs	r2, #1
 80005ba:	408a      	lsls	r2, r1
 80005bc:	4611      	mov	r1, r2
 80005be:	4a0b      	ldr	r2, [pc, #44]	; (80005ec <Update_EXTI+0x1d8>)
 80005c0:	430b      	orrs	r3, r1
 80005c2:	6013      	str	r3, [r2, #0]
 80005c4:	687b      	ldr	r3, [r7, #4]
 80005c6:	881b      	ldrh	r3, [r3, #0]
 80005c8:	4618      	mov	r0, r3
 80005ca:	f000 f879 	bl	80006c0 <Disable_NVIC>
 80005ce:	bf00      	nop
 80005d0:	3710      	adds	r7, #16
 80005d2:	46bd      	mov	sp, r7
 80005d4:	bd80      	pop	{r7, pc}
 80005d6:	bf00      	nop
 80005d8:	40010000 	andmi	r0, r1, r0
 80005dc:	40010800 	andmi	r0, r1, r0, lsl #16
 80005e0:	40010c00 	andmi	r0, r1, r0, lsl #24
 80005e4:	40011000 	andmi	r1, r1, r0
 80005e8:	40011400 	andmi	r1, r1, r0, lsl #8
 80005ec:	40010400 	andmi	r0, r1, r0, lsl #8
 80005f0:	20000038 	andcs	r0, r0, r8, lsr r0

080005f4 <Enable_NVIC>:
 80005f4:	b480      	push	{r7}
 80005f6:	b083      	sub	sp, #12
 80005f8:	af00      	add	r7, sp, #0
 80005fa:	4603      	mov	r3, r0
 80005fc:	80fb      	strh	r3, [r7, #6]
 80005fe:	88fb      	ldrh	r3, [r7, #6]
 8000600:	2b0f      	cmp	r3, #15
 8000602:	d854      	bhi.n	80006ae <Enable_NVIC+0xba>
 8000604:	a201      	add	r2, pc, #4	; (adr r2, 800060c <Enable_NVIC+0x18>)
 8000606:	f852 f023 	ldr.w	pc, [r2, r3, lsl #2]
 800060a:	bf00      	nop
 800060c:	0800064d 	stmdaeq	r0, {r0, r2, r3, r6, r9, sl}
 8000610:	0800065b 	stmdaeq	r0, {r0, r1, r3, r4, r6, r9, sl}
 8000614:	08000669 	stmdaeq	r0, {r0, r3, r5, r6, r9, sl}
 8000618:	08000677 	stmdaeq	r0, {r0, r1, r2, r4, r5, r6, r9, sl}
 800061c:	08000685 	stmdaeq	r0, {r0, r2, r7, r9, sl}
 8000620:	08000693 	stmdaeq	r0, {r0, r1, r4, r7, r9, sl}
 8000624:	08000693 	stmdaeq	r0, {r0, r1, r4, r7, r9, sl}
 8000628:	08000693 	stmdaeq	r0, {r0, r1, r4, r7, r9, sl}
 800062c:	08000693 	stmdaeq	r0, {r0, r1, r4, r7, r9, sl}
 8000630:	08000693 	stmdaeq	r0, {r0, r1, r4, r7, r9, sl}
 8000634:	080006a1 	stmdaeq	r0, {r0, r5, r7, r9, sl}
 8000638:	080006a1 	stmdaeq	r0, {r0, r5, r7, r9, sl}
 800063c:	080006a1 	stmdaeq	r0, {r0, r5, r7, r9, sl}
 8000640:	080006a1 	stmdaeq	r0, {r0, r5, r7, r9, sl}
 8000644:	080006a1 	stmdaeq	r0, {r0, r5, r7, r9, sl}
 8000648:	080006a1 	stmdaeq	r0, {r0, r5, r7, r9, sl}
 800064c:	4b1a      	ldr	r3, [pc, #104]	; (80006b8 <Enable_NVIC+0xc4>)
 800064e:	681b      	ldr	r3, [r3, #0]
 8000650:	4a19      	ldr	r2, [pc, #100]	; (80006b8 <Enable_NVIC+0xc4>)
 8000652:	f043 0340 	orr.w	r3, r3, #64	; 0x40
 8000656:	6013      	str	r3, [r2, #0]
 8000658:	e029      	b.n	80006ae <Enable_NVIC+0xba>
 800065a:	4b17      	ldr	r3, [pc, #92]	; (80006b8 <Enable_NVIC+0xc4>)
 800065c:	681b      	ldr	r3, [r3, #0]
 800065e:	4a16      	ldr	r2, [pc, #88]	; (80006b8 <Enable_NVIC+0xc4>)
 8000660:	f043 0380 	orr.w	r3, r3, #128	; 0x80
 8000664:	6013      	str	r3, [r2, #0]
 8000666:	e022      	b.n	80006ae <Enable_NVIC+0xba>
 8000668:	4b13      	ldr	r3, [pc, #76]	; (80006b8 <Enable_NVIC+0xc4>)
 800066a:	681b      	ldr	r3, [r3, #0]
 800066c:	4a12      	ldr	r2, [pc, #72]	; (80006b8 <Enable_NVIC+0xc4>)
 800066e:	f443 7380 	orr.w	r3, r3, #256	; 0x100
 8000672:	6013      	str	r3, [r2, #0]
 8000674:	e01b      	b.n	80006ae <Enable_NVIC+0xba>
 8000676:	4b10      	ldr	r3, [pc, #64]	; (80006b8 <Enable_NVIC+0xc4>)
 8000678:	681b      	ldr	r3, [r3, #0]
 800067a:	4a0f      	ldr	r2, [pc, #60]	; (80006b8 <Enable_NVIC+0xc4>)
 800067c:	f443 7300 	orr.w	r3, r3, #512	; 0x200
 8000680:	6013      	str	r3, [r2, #0]
 8000682:	e014      	b.n	80006ae <Enable_NVIC+0xba>
 8000684:	4b0c      	ldr	r3, [pc, #48]	; (80006b8 <Enable_NVIC+0xc4>)
 8000686:	681b      	ldr	r3, [r3, #0]
 8000688:	4a0b      	ldr	r2, [pc, #44]	; (80006b8 <Enable_NVIC+0xc4>)
 800068a:	f443 6380 	orr.w	r3, r3, #1024	; 0x400
 800068e:	6013      	str	r3, [r2, #0]
 8000690:	e00d      	b.n	80006ae <Enable_NVIC+0xba>
 8000692:	4b09      	ldr	r3, [pc, #36]	; (80006b8 <Enable_NVIC+0xc4>)
 8000694:	681b      	ldr	r3, [r3, #0]
 8000696:	4a08      	ldr	r2, [pc, #32]	; (80006b8 <Enable_NVIC+0xc4>)
 8000698:	f443 0300 	orr.w	r3, r3, #8388608	; 0x800000
 800069c:	6013      	str	r3, [r2, #0]
 800069e:	e006      	b.n	80006ae <Enable_NVIC+0xba>
 80006a0:	4b06      	ldr	r3, [pc, #24]	; (80006bc <Enable_NVIC+0xc8>)
 80006a2:	681b      	ldr	r3, [r3, #0]
 80006a4:	4a05      	ldr	r2, [pc, #20]	; (80006bc <Enable_NVIC+0xc8>)
 80006a6:	f443 7380 	orr.w	r3, r3, #256	; 0x100
 80006aa:	6013      	str	r3, [r2, #0]
 80006ac:	bf00      	nop
 80006ae:	bf00      	nop
 80006b0:	370c      	adds	r7, #12
 80006b2:	46bd      	mov	sp, r7
 80006b4:	bc80      	pop	{r7}
 80006b6:	4770      	bx	lr
 80006b8:	e000e100 	and	lr, r0, r0, lsl #2
 80006bc:	e000e104 	and	lr, r0, r4, lsl #2

080006c0 <Disable_NVIC>:
 80006c0:	b480      	push	{r7}
 80006c2:	b083      	sub	sp, #12
 80006c4:	af00      	add	r7, sp, #0
 80006c6:	4603      	mov	r3, r0
 80006c8:	80fb      	strh	r3, [r7, #6]
 80006ca:	88fb      	ldrh	r3, [r7, #6]
 80006cc:	2b0f      	cmp	r3, #15
 80006ce:	d854      	bhi.n	800077a <Disable_NVIC+0xba>
 80006d0:	a201      	add	r2, pc, #4	; (adr r2, 80006d8 <Disable_NVIC+0x18>)
 80006d2:	f852 f023 	ldr.w	pc, [r2, r3, lsl #2]
 80006d6:	bf00      	nop
 80006d8:	08000719 	stmdaeq	r0, {r0, r3, r4, r8, r9, sl}
 80006dc:	08000727 	stmdaeq	r0, {r0, r1, r2, r5, r8, r9, sl}
 80006e0:	08000735 	stmdaeq	r0, {r0, r2, r4, r5, r8, r9, sl}
 80006e4:	08000743 	stmdaeq	r0, {r0, r1, r6, r8, r9, sl}
 80006e8:	08000751 	stmdaeq	r0, {r0, r4, r6, r8, r9, sl}
 80006ec:	0800075f 	stmdaeq	r0, {r0, r1, r2, r3, r4, r6, r8, r9, sl}
 80006f0:	0800075f 	stmdaeq	r0, {r0, r1, r2, r3, r4, r6, r8, r9, sl}
 80006f4:	0800075f 	stmdaeq	r0, {r0, r1, r2, r3, r4, r6, r8, r9, sl}
 80006f8:	0800075f 	stmdaeq	r0, {r0, r1, r2, r3, r4, r6, r8, r9, sl}
 80006fc:	0800075f 	stmdaeq	r0, {r0, r1, r2, r3, r4, r6, r8, r9, sl}
 8000700:	0800076d 	stmdaeq	r0, {r0, r2, r3, r5, r6, r8, r9, sl}
 8000704:	0800076d 	stmdaeq	r0, {r0, r2, r3, r5, r6, r8, r9, sl}
 8000708:	0800076d 	stmdaeq	r0, {r0, r2, r3, r5, r6, r8, r9, sl}
 800070c:	0800076d 	stmdaeq	r0, {r0, r2, r3, r5, r6, r8, r9, sl}
 8000710:	0800076d 	stmdaeq	r0, {r0, r2, r3, r5, r6, r8, r9, sl}
 8000714:	0800076d 	stmdaeq	r0, {r0, r2, r3, r5, r6, r8, r9, sl}
 8000718:	4b1a      	ldr	r3, [pc, #104]	; (8000784 <Disable_NVIC+0xc4>)
 800071a:	681b      	ldr	r3, [r3, #0]
 800071c:	4a19      	ldr	r2, [pc, #100]	; (8000784 <Disable_NVIC+0xc4>)
 800071e:	f043 0340 	orr.w	r3, r3, #64	; 0x40
 8000722:	6013      	str	r3, [r2, #0]
 8000724:	e029      	b.n	800077a <Disable_NVIC+0xba>
 8000726:	4b17      	ldr	r3, [pc, #92]	; (8000784 <Disable_NVIC+0xc4>)
 8000728:	681b      	ldr	r3, [r3, #0]
 800072a:	4a16      	ldr	r2, [pc, #88]	; (8000784 <Disable_NVIC+0xc4>)
 800072c:	f043 0380 	orr.w	r3, r3, #128	; 0x80
 8000730:	6013      	str	r3, [r2, #0]
 8000732:	e022      	b.n	800077a <Disable_NVIC+0xba>
 8000734:	4b13      	ldr	r3, [pc, #76]	; (8000784 <Disable_NVIC+0xc4>)
 8000736:	681b      	ldr	r3, [r3, #0]
 8000738:	4a12      	ldr	r2, [pc, #72]	; (8000784 <Disable_NVIC+0xc4>)
 800073a:	f443 7380 	orr.w	r3, r3, #256	; 0x100
 800073e:	6013      	str	r3, [r2, #0]
 8000740:	e01b      	b.n	800077a <Disable_NVIC+0xba>
 8000742:	4b10      	ldr	r3, [pc, #64]	; (8000784 <Disable_NVIC+0xc4>)
 8000744:	681b      	ldr	r3, [r3, #0]
 8000746:	4a0f      	ldr	r2, [pc, #60]	; (8000784 <Disable_NVIC+0xc4>)
 8000748:	f443 7300 	orr.w	r3, r3, #512	; 0x200
 800074c:	6013      	str	r3, [r2, #0]
 800074e:	e014      	b.n	800077a <Disable_NVIC+0xba>
 8000750:	4b0c      	ldr	r3, [pc, #48]	; (8000784 <Disable_NVIC+0xc4>)
 8000752:	681b      	ldr	r3, [r3, #0]
 8000754:	4a0b      	ldr	r2, [pc, #44]	; (8000784 <Disable_NVIC+0xc4>)
 8000756:	f443 6380 	orr.w	r3, r3, #1024	; 0x400
 800075a:	6013      	str	r3, [r2, #0]
 800075c:	e00d      	b.n	800077a <Disable_NVIC+0xba>
 800075e:	4b09      	ldr	r3, [pc, #36]	; (8000784 <Disable_NVIC+0xc4>)
 8000760:	681b      	ldr	r3, [r3, #0]
 8000762:	4a08      	ldr	r2, [pc, #32]	; (8000784 <Disable_NVIC+0xc4>)
 8000764:	f443 0300 	orr.w	r3, r3, #8388608	; 0x800000
 8000768:	6013      	str	r3, [r2, #0]
 800076a:	e006      	b.n	800077a <Disable_NVIC+0xba>
 800076c:	4b06      	ldr	r3, [pc, #24]	; (8000788 <Disable_NVIC+0xc8>)
 800076e:	681b      	ldr	r3, [r3, #0]
 8000770:	4a05      	ldr	r2, [pc, #20]	; (8000788 <Disable_NVIC+0xc8>)
 8000772:	f443 7380 	orr.w	r3, r3, #256	; 0x100
 8000776:	6013      	str	r3, [r2, #0]
 8000778:	bf00      	nop
 800077a:	bf00      	nop
 800077c:	370c      	adds	r7, #12
 800077e:	46bd      	mov	sp, r7
 8000780:	bc80      	pop	{r7}
 8000782:	4770      	bx	lr
 8000784:	e000e180 	and	lr, r0, r0, lsl #3
 8000788:	e000e184 	and	lr, r0, r4, lsl #3

0800078c <EXTI0_IRQHandler>:
 800078c:	b580      	push	{r7, lr}
 800078e:	af00      	add	r7, sp, #0
 8000790:	4b05      	ldr	r3, [pc, #20]	; (80007a8 <EXTI0_IRQHandler+0x1c>)
 8000792:	695b      	ldr	r3, [r3, #20]
 8000794:	4a04      	ldr	r2, [pc, #16]	; (80007a8 <EXTI0_IRQHandler+0x1c>)
 8000796:	f043 0301 	orr.w	r3, r3, #1
 800079a:	6153      	str	r3, [r2, #20]
 800079c:	4b03      	ldr	r3, [pc, #12]	; (80007ac <EXTI0_IRQHandler+0x20>)
 800079e:	681b      	ldr	r3, [r3, #0]
 80007a0:	4798      	blx	r3
 80007a2:	bf00      	nop
 80007a4:	bd80      	pop	{r7, pc}
 80007a6:	bf00      	nop
 80007a8:	40010400 	andmi	r0, r1, r0, lsl #8
 80007ac:	20000038 	andcs	r0, r0, r8, lsr r0

080007b0 <EXTI1_IRQHandler>:
 80007b0:	b580      	push	{r7, lr}
 80007b2:	af00      	add	r7, sp, #0
 80007b4:	4b05      	ldr	r3, [pc, #20]	; (80007cc <EXTI1_IRQHandler+0x1c>)
 80007b6:	695b      	ldr	r3, [r3, #20]
 80007b8:	4a04      	ldr	r2, [pc, #16]	; (80007cc <EXTI1_IRQHandler+0x1c>)
 80007ba:	f043 0302 	orr.w	r3, r3, #2
 80007be:	6153      	str	r3, [r2, #20]
 80007c0:	4b03      	ldr	r3, [pc, #12]	; (80007d0 <EXTI1_IRQHandler+0x20>)
 80007c2:	685b      	ldr	r3, [r3, #4]
 80007c4:	4798      	blx	r3
 80007c6:	bf00      	nop
 80007c8:	bd80      	pop	{r7, pc}
 80007ca:	bf00      	nop
 80007cc:	40010400 	andmi	r0, r1, r0, lsl #8
 80007d0:	20000038 	andcs	r0, r0, r8, lsr r0

080007d4 <EXTI2_IRQHandler>:
 80007d4:	b580      	push	{r7, lr}
 80007d6:	af00      	add	r7, sp, #0
 80007d8:	4b05      	ldr	r3, [pc, #20]	; (80007f0 <EXTI2_IRQHandler+0x1c>)
 80007da:	695b      	ldr	r3, [r3, #20]
 80007dc:	4a04      	ldr	r2, [pc, #16]	; (80007f0 <EXTI2_IRQHandler+0x1c>)
 80007de:	f043 0304 	orr.w	r3, r3, #4
 80007e2:	6153      	str	r3, [r2, #20]
 80007e4:	4b03      	ldr	r3, [pc, #12]	; (80007f4 <EXTI2_IRQHandler+0x20>)
 80007e6:	689b      	ldr	r3, [r3, #8]
 80007e8:	4798      	blx	r3
 80007ea:	bf00      	nop
 80007ec:	bd80      	pop	{r7, pc}
 80007ee:	bf00      	nop
 80007f0:	40010400 	andmi	r0, r1, r0, lsl #8
 80007f4:	20000038 	andcs	r0, r0, r8, lsr r0

080007f8 <EXTI3_IRQHandler>:
 80007f8:	b580      	push	{r7, lr}
 80007fa:	af00      	add	r7, sp, #0
 80007fc:	4b05      	ldr	r3, [pc, #20]	; (8000814 <EXTI3_IRQHandler+0x1c>)
 80007fe:	695b      	ldr	r3, [r3, #20]
 8000800:	4a04      	ldr	r2, [pc, #16]	; (8000814 <EXTI3_IRQHandler+0x1c>)
 8000802:	f043 0308 	orr.w	r3, r3, #8
 8000806:	6153      	str	r3, [r2, #20]
 8000808:	4b03      	ldr	r3, [pc, #12]	; (8000818 <EXTI3_IRQHandler+0x20>)
 800080a:	68db      	ldr	r3, [r3, #12]
 800080c:	4798      	blx	r3
 800080e:	bf00      	nop
 8000810:	bd80      	pop	{r7, pc}
 8000812:	bf00      	nop
 8000814:	40010400 	andmi	r0, r1, r0, lsl #8
 8000818:	20000038 	andcs	r0, r0, r8, lsr r0

0800081c <EXTI4_IRQHandler>:
 800081c:	b580      	push	{r7, lr}
 800081e:	af00      	add	r7, sp, #0
 8000820:	4b05      	ldr	r3, [pc, #20]	; (8000838 <EXTI4_IRQHandler+0x1c>)
 8000822:	695b      	ldr	r3, [r3, #20]
 8000824:	4a04      	ldr	r2, [pc, #16]	; (8000838 <EXTI4_IRQHandler+0x1c>)
 8000826:	f043 0310 	orr.w	r3, r3, #16
 800082a:	6153      	str	r3, [r2, #20]
 800082c:	4b03      	ldr	r3, [pc, #12]	; (800083c <EXTI4_IRQHandler+0x20>)
 800082e:	691b      	ldr	r3, [r3, #16]
 8000830:	4798      	blx	r3
 8000832:	bf00      	nop
 8000834:	bd80      	pop	{r7, pc}
 8000836:	bf00      	nop
 8000838:	40010400 	andmi	r0, r1, r0, lsl #8
 800083c:	20000038 	andcs	r0, r0, r8, lsr r0

08000840 <EXTI9_5_IRQHandler>:
 8000840:	b580      	push	{r7, lr}
 8000842:	af00      	add	r7, sp, #0
 8000844:	4b26      	ldr	r3, [pc, #152]	; (80008e0 <EXTI9_5_IRQHandler+0xa0>)
 8000846:	695b      	ldr	r3, [r3, #20]
 8000848:	f003 0320 	and.w	r3, r3, #32
 800084c:	2b00      	cmp	r3, #0
 800084e:	d008      	beq.n	8000862 <EXTI9_5_IRQHandler+0x22>
 8000850:	4b23      	ldr	r3, [pc, #140]	; (80008e0 <EXTI9_5_IRQHandler+0xa0>)
 8000852:	695b      	ldr	r3, [r3, #20]
 8000854:	4a22      	ldr	r2, [pc, #136]	; (80008e0 <EXTI9_5_IRQHandler+0xa0>)
 8000856:	f043 0320 	orr.w	r3, r3, #32
 800085a:	6153      	str	r3, [r2, #20]
 800085c:	4b21      	ldr	r3, [pc, #132]	; (80008e4 <EXTI9_5_IRQHandler+0xa4>)
 800085e:	695b      	ldr	r3, [r3, #20]
 8000860:	4798      	blx	r3
 8000862:	4b1f      	ldr	r3, [pc, #124]	; (80008e0 <EXTI9_5_IRQHandler+0xa0>)
 8000864:	695b      	ldr	r3, [r3, #20]
 8000866:	f003 0340 	and.w	r3, r3, #64	; 0x40
 800086a:	2b00      	cmp	r3, #0
 800086c:	d008      	beq.n	8000880 <EXTI9_5_IRQHandler+0x40>
 800086e:	4b1c      	ldr	r3, [pc, #112]	; (80008e0 <EXTI9_5_IRQHandler+0xa0>)
 8000870:	695b      	ldr	r3, [r3, #20]
 8000872:	4a1b      	ldr	r2, [pc, #108]	; (80008e0 <EXTI9_5_IRQHandler+0xa0>)
 8000874:	f043 0340 	orr.w	r3, r3, #64	; 0x40
 8000878:	6153      	str	r3, [r2, #20]
 800087a:	4b1a      	ldr	r3, [pc, #104]	; (80008e4 <EXTI9_5_IRQHandler+0xa4>)
 800087c:	699b      	ldr	r3, [r3, #24]
 800087e:	4798      	blx	r3
 8000880:	4b17      	ldr	r3, [pc, #92]	; (80008e0 <EXTI9_5_IRQHandler+0xa0>)
 8000882:	695b      	ldr	r3, [r3, #20]
 8000884:	f003 0380 	and.w	r3, r3, #128	; 0x80
 8000888:	2b00      	cmp	r3, #0
 800088a:	d008      	beq.n	800089e <EXTI9_5_IRQHandler+0x5e>
 800088c:	4b14      	ldr	r3, [pc, #80]	; (80008e0 <EXTI9_5_IRQHandler+0xa0>)
 800088e:	695b      	ldr	r3, [r3, #20]
 8000890:	4a13      	ldr	r2, [pc, #76]	; (80008e0 <EXTI9_5_IRQHandler+0xa0>)
 8000892:	f043 0380 	orr.w	r3, r3, #128	; 0x80
 8000896:	6153      	str	r3, [r2, #20]
 8000898:	4b12      	ldr	r3, [pc, #72]	; (80008e4 <EXTI9_5_IRQHandler+0xa4>)
 800089a:	69db      	ldr	r3, [r3, #28]
 800089c:	4798      	blx	r3
 800089e:	4b10      	ldr	r3, [pc, #64]	; (80008e0 <EXTI9_5_IRQHandler+0xa0>)
 80008a0:	695b      	ldr	r3, [r3, #20]
 80008a2:	f403 7380 	and.w	r3, r3, #256	; 0x100
 80008a6:	2b00      	cmp	r3, #0
 80008a8:	d008      	beq.n	80008bc <EXTI9_5_IRQHandler+0x7c>
 80008aa:	4b0d      	ldr	r3, [pc, #52]	; (80008e0 <EXTI9_5_IRQHandler+0xa0>)
 80008ac:	695b      	ldr	r3, [r3, #20]
 80008ae:	4a0c      	ldr	r2, [pc, #48]	; (80008e0 <EXTI9_5_IRQHandler+0xa0>)
 80008b0:	f443 7380 	orr.w	r3, r3, #256	; 0x100
 80008b4:	6153      	str	r3, [r2, #20]
 80008b6:	4b0b      	ldr	r3, [pc, #44]	; (80008e4 <EXTI9_5_IRQHandler+0xa4>)
 80008b8:	6a1b      	ldr	r3, [r3, #32]
 80008ba:	4798      	blx	r3
 80008bc:	4b08      	ldr	r3, [pc, #32]	; (80008e0 <EXTI9_5_IRQHandler+0xa0>)
 80008be:	695b      	ldr	r3, [r3, #20]
 80008c0:	f403 7300 	and.w	r3, r3, #512	; 0x200
 80008c4:	2b00      	cmp	r3, #0
 80008c6:	d008      	beq.n	80008da <EXTI9_5_IRQHandler+0x9a>
 80008c8:	4b05      	ldr	r3, [pc, #20]	; (80008e0 <EXTI9_5_IRQHandler+0xa0>)
 80008ca:	695b      	ldr	r3, [r3, #20]
 80008cc:	4a04      	ldr	r2, [pc, #16]	; (80008e0 <EXTI9_5_IRQHandler+0xa0>)
 80008ce:	f443 7300 	orr.w	r3, r3, #512	; 0x200
 80008d2:	6153      	str	r3, [r2, #20]
 80008d4:	4b03      	ldr	r3, [pc, #12]	; (80008e4 <EXTI9_5_IRQHandler+0xa4>)
 80008d6:	6a5b      	ldr	r3, [r3, #36]	; 0x24
 80008d8:	4798      	blx	r3
 80008da:	bf00      	nop
 80008dc:	bd80      	pop	{r7, pc}
 80008de:	bf00      	nop
 80008e0:	40010400 	andmi	r0, r1, r0, lsl #8
 80008e4:	20000038 	andcs	r0, r0, r8, lsr r0

080008e8 <EXTI15_10_IRQHandler>:
 80008e8:	b580      	push	{r7, lr}
 80008ea:	af00      	add	r7, sp, #0
 80008ec:	4b2d      	ldr	r3, [pc, #180]	; (80009a4 <EXTI15_10_IRQHandler+0xbc>)
 80008ee:	695b      	ldr	r3, [r3, #20]
 80008f0:	f403 6380 	and.w	r3, r3, #1024	; 0x400
 80008f4:	2b00      	cmp	r3, #0
 80008f6:	d008      	beq.n	800090a <EXTI15_10_IRQHandler+0x22>
 80008f8:	4b2a      	ldr	r3, [pc, #168]	; (80009a4 <EXTI15_10_IRQHandler+0xbc>)
 80008fa:	695b      	ldr	r3, [r3, #20]
 80008fc:	4a29      	ldr	r2, [pc, #164]	; (80009a4 <EXTI15_10_IRQHandler+0xbc>)
 80008fe:	f443 6380 	orr.w	r3, r3, #1024	; 0x400
 8000902:	6153      	str	r3, [r2, #20]
 8000904:	4b28      	ldr	r3, [pc, #160]	; (80009a8 <EXTI15_10_IRQHandler+0xc0>)
 8000906:	6a9b      	ldr	r3, [r3, #40]	; 0x28
 8000908:	4798      	blx	r3
 800090a:	4b26      	ldr	r3, [pc, #152]	; (80009a4 <EXTI15_10_IRQHandler+0xbc>)
 800090c:	695b      	ldr	r3, [r3, #20]
 800090e:	f403 6300 	and.w	r3, r3, #2048	; 0x800
 8000912:	2b00      	cmp	r3, #0
 8000914:	d008      	beq.n	8000928 <EXTI15_10_IRQHandler+0x40>
 8000916:	4b23      	ldr	r3, [pc, #140]	; (80009a4 <EXTI15_10_IRQHandler+0xbc>)
 8000918:	695b      	ldr	r3, [r3, #20]
 800091a:	4a22      	ldr	r2, [pc, #136]	; (80009a4 <EXTI15_10_IRQHandler+0xbc>)
 800091c:	f443 6300 	orr.w	r3, r3, #2048	; 0x800
 8000920:	6153      	str	r3, [r2, #20]
 8000922:	4b21      	ldr	r3, [pc, #132]	; (80009a8 <EXTI15_10_IRQHandler+0xc0>)
 8000924:	6adb      	ldr	r3, [r3, #44]	; 0x2c
 8000926:	4798      	blx	r3
 8000928:	4b1e      	ldr	r3, [pc, #120]	; (80009a4 <EXTI15_10_IRQHandler+0xbc>)
 800092a:	695b      	ldr	r3, [r3, #20]
 800092c:	f403 5380 	and.w	r3, r3, #4096	; 0x1000
 8000930:	2b00      	cmp	r3, #0
 8000932:	d008      	beq.n	8000946 <EXTI15_10_IRQHandler+0x5e>
 8000934:	4b1b      	ldr	r3, [pc, #108]	; (80009a4 <EXTI15_10_IRQHandler+0xbc>)
 8000936:	695b      	ldr	r3, [r3, #20]
 8000938:	4a1a      	ldr	r2, [pc, #104]	; (80009a4 <EXTI15_10_IRQHandler+0xbc>)
 800093a:	f443 5380 	orr.w	r3, r3, #4096	; 0x1000
 800093e:	6153      	str	r3, [r2, #20]
 8000940:	4b19      	ldr	r3, [pc, #100]	; (80009a8 <EXTI15_10_IRQHandler+0xc0>)
 8000942:	6b1b      	ldr	r3, [r3, #48]	; 0x30
 8000944:	4798      	blx	r3
 8000946:	4b17      	ldr	r3, [pc, #92]	; (80009a4 <EXTI15_10_IRQHandler+0xbc>)
 8000948:	695b      	ldr	r3, [r3, #20]
 800094a:	f403 5300 	and.w	r3, r3, #8192	; 0x2000
 800094e:	2b00      	cmp	r3, #0
 8000950:	d008      	beq.n	8000964 <EXTI15_10_IRQHandler+0x7c>
 8000952:	4b14      	ldr	r3, [pc, #80]	; (80009a4 <EXTI15_10_IRQHandler+0xbc>)
 8000954:	695b      	ldr	r3, [r3, #20]
 8000956:	4a13      	ldr	r2, [pc, #76]	; (80009a4 <EXTI15_10_IRQHandler+0xbc>)
 8000958:	f443 5300 	orr.w	r3, r3, #8192	; 0x2000
 800095c:	6153      	str	r3, [r2, #20]
 800095e:	4b12      	ldr	r3, [pc, #72]	; (80009a8 <EXTI15_10_IRQHandler+0xc0>)
 8000960:	6b5b      	ldr	r3, [r3, #52]	; 0x34
 8000962:	4798      	blx	r3
 8000964:	4b0f      	ldr	r3, [pc, #60]	; (80009a4 <EXTI15_10_IRQHandler+0xbc>)
 8000966:	695b      	ldr	r3, [r3, #20]
 8000968:	f403 4380 	and.w	r3, r3, #16384	; 0x4000
 800096c:	2b00      	cmp	r3, #0
 800096e:	d008      	beq.n	8000982 <EXTI15_10_IRQHandler+0x9a>
 8000970:	4b0c      	ldr	r3, [pc, #48]	; (80009a4 <EXTI15_10_IRQHandler+0xbc>)
 8000972:	695b      	ldr	r3, [r3, #20]
 8000974:	4a0b      	ldr	r2, [pc, #44]	; (80009a4 <EXTI15_10_IRQHandler+0xbc>)
 8000976:	f443 4380 	orr.w	r3, r3, #16384	; 0x4000
 800097a:	6153      	str	r3, [r2, #20]
 800097c:	4b0a      	ldr	r3, [pc, #40]	; (80009a8 <EXTI15_10_IRQHandler+0xc0>)
 800097e:	6b9b      	ldr	r3, [r3, #56]	; 0x38
 8000980:	4798      	blx	r3
 8000982:	4b08      	ldr	r3, [pc, #32]	; (80009a4 <EXTI15_10_IRQHandler+0xbc>)
 8000984:	695b      	ldr	r3, [r3, #20]
 8000986:	f403 4300 	and.w	r3, r3, #32768	; 0x8000
 800098a:	2b00      	cmp	r3, #0
 800098c:	d008      	beq.n	80009a0 <EXTI15_10_IRQHandler+0xb8>
 800098e:	4b05      	ldr	r3, [pc, #20]	; (80009a4 <EXTI15_10_IRQHandler+0xbc>)
 8000990:	695b      	ldr	r3, [r3, #20]
 8000992:	4a04      	ldr	r2, [pc, #16]	; (80009a4 <EXTI15_10_IRQHandler+0xbc>)
 8000994:	f443 4300 	orr.w	r3, r3, #32768	; 0x8000
 8000998:	6153      	str	r3, [r2, #20]
 800099a:	4b03      	ldr	r3, [pc, #12]	; (80009a8 <EXTI15_10_IRQHandler+0xc0>)
 800099c:	6bdb      	ldr	r3, [r3, #60]	; 0x3c
 800099e:	4798      	blx	r3
 80009a0:	bf00      	nop
 80009a2:	bd80      	pop	{r7, pc}
 80009a4:	40010400 	andmi	r0, r1, r0, lsl #8
 80009a8:	20000038 	andcs	r0, r0, r8, lsr r0

080009ac <Get_PinPostion>:
 80009ac:	b480      	push	{r7}
 80009ae:	b083      	sub	sp, #12
 80009b0:	af00      	add	r7, sp, #0
 80009b2:	4603      	mov	r3, r0
 80009b4:	80fb      	strh	r3, [r7, #6]
 80009b6:	88fb      	ldrh	r3, [r7, #6]
 80009b8:	f5b3 4f00 	cmp.w	r3, #32768	; 0x8000
 80009bc:	f000 808f 	beq.w	8000ade <Get_PinPostion+0x132>
 80009c0:	f5b3 4f00 	cmp.w	r3, #32768	; 0x8000
 80009c4:	f300 808d 	bgt.w	8000ae2 <Get_PinPostion+0x136>
 80009c8:	f5b3 4f80 	cmp.w	r3, #16384	; 0x4000
 80009cc:	f000 8085 	beq.w	8000ada <Get_PinPostion+0x12e>
 80009d0:	f5b3 4f80 	cmp.w	r3, #16384	; 0x4000
 80009d4:	f300 8085 	bgt.w	8000ae2 <Get_PinPostion+0x136>
 80009d8:	f5b3 5f00 	cmp.w	r3, #8192	; 0x2000
 80009dc:	d07b      	beq.n	8000ad6 <Get_PinPostion+0x12a>
 80009de:	f5b3 5f00 	cmp.w	r3, #8192	; 0x2000
 80009e2:	dc7e      	bgt.n	8000ae2 <Get_PinPostion+0x136>
 80009e4:	f5b3 5f80 	cmp.w	r3, #4096	; 0x1000
 80009e8:	d073      	beq.n	8000ad2 <Get_PinPostion+0x126>
 80009ea:	f5b3 5f80 	cmp.w	r3, #4096	; 0x1000
 80009ee:	dc78      	bgt.n	8000ae2 <Get_PinPostion+0x136>
 80009f0:	f5b3 6f00 	cmp.w	r3, #2048	; 0x800
 80009f4:	d06b      	beq.n	8000ace <Get_PinPostion+0x122>
 80009f6:	f5b3 6f00 	cmp.w	r3, #2048	; 0x800
 80009fa:	dc72      	bgt.n	8000ae2 <Get_PinPostion+0x136>
 80009fc:	f5b3 6f80 	cmp.w	r3, #1024	; 0x400
 8000a00:	d063      	beq.n	8000aca <Get_PinPostion+0x11e>
 8000a02:	f5b3 6f80 	cmp.w	r3, #1024	; 0x400
 8000a06:	dc6c      	bgt.n	8000ae2 <Get_PinPostion+0x136>
 8000a08:	f5b3 7f00 	cmp.w	r3, #512	; 0x200
 8000a0c:	d05b      	beq.n	8000ac6 <Get_PinPostion+0x11a>
 8000a0e:	f5b3 7f00 	cmp.w	r3, #512	; 0x200
 8000a12:	dc66      	bgt.n	8000ae2 <Get_PinPostion+0x136>
 8000a14:	f5b3 7f80 	cmp.w	r3, #256	; 0x100
 8000a18:	d053      	beq.n	8000ac2 <Get_PinPostion+0x116>
 8000a1a:	f5b3 7f80 	cmp.w	r3, #256	; 0x100
 8000a1e:	dc60      	bgt.n	8000ae2 <Get_PinPostion+0x136>
 8000a20:	2b80      	cmp	r3, #128	; 0x80
 8000a22:	d05c      	beq.n	8000ade <Get_PinPostion+0x132>
 8000a24:	2b80      	cmp	r3, #128	; 0x80
 8000a26:	dc5c      	bgt.n	8000ae2 <Get_PinPostion+0x136>
 8000a28:	2b20      	cmp	r3, #32
 8000a2a:	dc47      	bgt.n	8000abc <Get_PinPostion+0x110>
 8000a2c:	2b00      	cmp	r3, #0
 8000a2e:	dd58      	ble.n	8000ae2 <Get_PinPostion+0x136>
 8000a30:	3b01      	subs	r3, #1
 8000a32:	2b1f      	cmp	r3, #31
 8000a34:	d855      	bhi.n	8000ae2 <Get_PinPostion+0x136>
 8000a36:	a201      	add	r2, pc, #4	; (adr r2, 8000a3c <Get_PinPostion+0x90>)
 8000a38:	f852 f023 	ldr.w	pc, [r2, r3, lsl #2]
 8000a3c:	08000ac3 	stmdaeq	r0, {r0, r1, r6, r7, r9, fp}
 8000a40:	08000ac7 	stmdaeq	r0, {r0, r1, r2, r6, r7, r9, fp}
 8000a44:	08000ae3 	stmdaeq	r0, {r0, r1, r5, r6, r7, r9, fp}
 8000a48:	08000acb 	stmdaeq	r0, {r0, r1, r3, r6, r7, r9, fp}
 8000a4c:	08000ae3 	stmdaeq	r0, {r0, r1, r5, r6, r7, r9, fp}
 8000a50:	08000ae3 	stmdaeq	r0, {r0, r1, r5, r6, r7, r9, fp}
 8000a54:	08000ae3 	stmdaeq	r0, {r0, r1, r5, r6, r7, r9, fp}
 8000a58:	08000acf 	stmdaeq	r0, {r0, r1, r2, r3, r6, r7, r9, fp}
 8000a5c:	08000ae3 	stmdaeq	r0, {r0, r1, r5, r6, r7, r9, fp}
 8000a60:	08000ae3 	stmdaeq	r0, {r0, r1, r5, r6, r7, r9, fp}
 8000a64:	08000ae3 	stmdaeq	r0, {r0, r1, r5, r6, r7, r9, fp}
 8000a68:	08000ae3 	stmdaeq	r0, {r0, r1, r5, r6, r7, r9, fp}
 8000a6c:	08000ae3 	stmdaeq	r0, {r0, r1, r5, r6, r7, r9, fp}
 8000a70:	08000ae3 	stmdaeq	r0, {r0, r1, r5, r6, r7, r9, fp}
 8000a74:	08000ae3 	stmdaeq	r0, {r0, r1, r5, r6, r7, r9, fp}
 8000a78:	08000ad3 	stmdaeq	r0, {r0, r1, r4, r6, r7, r9, fp}
 8000a7c:	08000ae3 	stmdaeq	r0, {r0, r1, r5, r6, r7, r9, fp}
 8000a80:	08000ae3 	stmdaeq	r0, {r0, r1, r5, r6, r7, r9, fp}
 8000a84:	08000ae3 	stmdaeq	r0, {r0, r1, r5, r6, r7, r9, fp}
 8000a88:	08000ae3 	stmdaeq	r0, {r0, r1, r5, r6, r7, r9, fp}
 8000a8c:	08000ae3 	stmdaeq	r0, {r0, r1, r5, r6, r7, r9, fp}
 8000a90:	08000ae3 	stmdaeq	r0, {r0, r1, r5, r6, r7, r9, fp}
 8000a94:	08000ae3 	stmdaeq	r0, {r0, r1, r5, r6, r7, r9, fp}
 8000a98:	08000ae3 	stmdaeq	r0, {r0, r1, r5, r6, r7, r9, fp}
 8000a9c:	08000ae3 	stmdaeq	r0, {r0, r1, r5, r6, r7, r9, fp}
 8000aa0:	08000ae3 	stmdaeq	r0, {r0, r1, r5, r6, r7, r9, fp}
 8000aa4:	08000ae3 	stmdaeq	r0, {r0, r1, r5, r6, r7, r9, fp}
 8000aa8:	08000ae3 	stmdaeq	r0, {r0, r1, r5, r6, r7, r9, fp}
 8000aac:	08000ae3 	stmdaeq	r0, {r0, r1, r5, r6, r7, r9, fp}
 8000ab0:	08000ae3 	stmdaeq	r0, {r0, r1, r5, r6, r7, r9, fp}
 8000ab4:	08000ae3 	stmdaeq	r0, {r0, r1, r5, r6, r7, r9, fp}
 8000ab8:	08000ad7 	stmdaeq	r0, {r0, r1, r2, r4, r6, r7, r9, fp}
 8000abc:	2b40      	cmp	r3, #64	; 0x40
 8000abe:	d00c      	beq.n	8000ada <Get_PinPostion+0x12e>
 8000ac0:	e00f      	b.n	8000ae2 <Get_PinPostion+0x136>
 8000ac2:	2300      	movs	r3, #0
 8000ac4:	e00e      	b.n	8000ae4 <Get_PinPostion+0x138>
 8000ac6:	2304      	movs	r3, #4
 8000ac8:	e00c      	b.n	8000ae4 <Get_PinPostion+0x138>
 8000aca:	2308      	movs	r3, #8
 8000acc:	e00a      	b.n	8000ae4 <Get_PinPostion+0x138>
 8000ace:	230c      	movs	r3, #12
 8000ad0:	e008      	b.n	8000ae4 <Get_PinPostion+0x138>
 8000ad2:	2310      	movs	r3, #16
 8000ad4:	e006      	b.n	8000ae4 <Get_PinPostion+0x138>
 8000ad6:	2314      	movs	r3, #20
 8000ad8:	e004      	b.n	8000ae4 <Get_PinPostion+0x138>
 8000ada:	2318      	movs	r3, #24
 8000adc:	e002      	b.n	8000ae4 <Get_PinPostion+0x138>
 8000ade:	231c      	movs	r3, #28
 8000ae0:	e000      	b.n	8000ae4 <Get_PinPostion+0x138>
 8000ae2:	2300      	movs	r3, #0
 8000ae4:	4618      	mov	r0, r3
 8000ae6:	370c      	adds	r7, #12
 8000ae8:	46bd      	mov	sp, r7
 8000aea:	bc80      	pop	{r7}
 8000aec:	4770      	bx	lr
 8000aee:	bf00      	nop

08000af0 <GPIO_Init>:
 8000af0:	b590      	push	{r4, r7, lr}
 8000af2:	b085      	sub	sp, #20
 8000af4:	af00      	add	r7, sp, #0
 8000af6:	6078      	str	r0, [r7, #4]
 8000af8:	6039      	str	r1, [r7, #0]
 8000afa:	2300      	movs	r3, #0
 8000afc:	60bb      	str	r3, [r7, #8]
 8000afe:	2300      	movs	r3, #0
 8000b00:	73fb      	strb	r3, [r7, #15]
 8000b02:	683b      	ldr	r3, [r7, #0]
 8000b04:	881b      	ldrh	r3, [r3, #0]
 8000b06:	2bff      	cmp	r3, #255	; 0xff
 8000b08:	d801      	bhi.n	8000b0e <GPIO_Init+0x1e>
 8000b0a:	687b      	ldr	r3, [r7, #4]
 8000b0c:	e001      	b.n	8000b12 <GPIO_Init+0x22>
 8000b0e:	687b      	ldr	r3, [r7, #4]
 8000b10:	3304      	adds	r3, #4
 8000b12:	60bb      	str	r3, [r7, #8]
 8000b14:	683b      	ldr	r3, [r7, #0]
 8000b16:	881b      	ldrh	r3, [r3, #0]
 8000b18:	4618      	mov	r0, r3
 8000b1a:	f7ff ff47 	bl	80009ac <Get_PinPostion>
 8000b1e:	4603      	mov	r3, r0
 8000b20:	461a      	mov	r2, r3
 8000b22:	230f      	movs	r3, #15
 8000b24:	4093      	lsls	r3, r2
 8000b26:	43da      	mvns	r2, r3
 8000b28:	68bb      	ldr	r3, [r7, #8]
 8000b2a:	681b      	ldr	r3, [r3, #0]
 8000b2c:	401a      	ands	r2, r3
 8000b2e:	68bb      	ldr	r3, [r7, #8]
 8000b30:	601a      	str	r2, [r3, #0]
 8000b32:	683b      	ldr	r3, [r7, #0]
 8000b34:	885b      	ldrh	r3, [r3, #2]
 8000b36:	2b04      	cmp	r3, #4
 8000b38:	d00b      	beq.n	8000b52 <GPIO_Init+0x62>
 8000b3a:	683b      	ldr	r3, [r7, #0]
 8000b3c:	885b      	ldrh	r3, [r3, #2]
 8000b3e:	2b05      	cmp	r3, #5
 8000b40:	d007      	beq.n	8000b52 <GPIO_Init+0x62>
 8000b42:	683b      	ldr	r3, [r7, #0]
 8000b44:	885b      	ldrh	r3, [r3, #2]
 8000b46:	2b06      	cmp	r3, #6
 8000b48:	d003      	beq.n	8000b52 <GPIO_Init+0x62>
 8000b4a:	683b      	ldr	r3, [r7, #0]
 8000b4c:	885b      	ldrh	r3, [r3, #2]
 8000b4e:	2b07      	cmp	r3, #7
 8000b50:	d11c      	bne.n	8000b8c <GPIO_Init+0x9c>
 8000b52:	683b      	ldr	r3, [r7, #0]
 8000b54:	885b      	ldrh	r3, [r3, #2]
 8000b56:	3b04      	subs	r3, #4
 8000b58:	009b      	lsls	r3, r3, #2
 8000b5a:	b25a      	sxtb	r2, r3
 8000b5c:	683b      	ldr	r3, [r7, #0]
 8000b5e:	889b      	ldrh	r3, [r3, #4]
 8000b60:	b25b      	sxtb	r3, r3
 8000b62:	4313      	orrs	r3, r2
 8000b64:	b25b      	sxtb	r3, r3
 8000b66:	b2db      	uxtb	r3, r3
 8000b68:	f003 030f 	and.w	r3, r3, #15
 8000b6c:	73fb      	strb	r3, [r7, #15]
 8000b6e:	7bfc      	ldrb	r4, [r7, #15]
 8000b70:	683b      	ldr	r3, [r7, #0]
 8000b72:	881b      	ldrh	r3, [r3, #0]
 8000b74:	4618      	mov	r0, r3
 8000b76:	f7ff ff19 	bl	80009ac <Get_PinPostion>
 8000b7a:	4603      	mov	r3, r0
 8000b7c:	fa04 f203 	lsl.w	r2, r4, r3
 8000b80:	68bb      	ldr	r3, [r7, #8]
 8000b82:	681b      	ldr	r3, [r3, #0]
 8000b84:	431a      	orrs	r2, r3
 8000b86:	68bb      	ldr	r3, [r7, #8]
 8000b88:	601a      	str	r2, [r3, #0]
 8000b8a:	e072      	b.n	8000c72 <GPIO_Init+0x182>
 8000b8c:	683b      	ldr	r3, [r7, #0]
 8000b8e:	885b      	ldrh	r3, [r3, #2]
 8000b90:	2b01      	cmp	r3, #1
 8000b92:	d003      	beq.n	8000b9c <GPIO_Init+0xac>
 8000b94:	683b      	ldr	r3, [r7, #0]
 8000b96:	885b      	ldrh	r3, [r3, #2]
 8000b98:	2b00      	cmp	r3, #0
 8000b9a:	d115      	bne.n	8000bc8 <GPIO_Init+0xd8>
 8000b9c:	683b      	ldr	r3, [r7, #0]
 8000b9e:	885b      	ldrh	r3, [r3, #2]
 8000ba0:	009b      	lsls	r3, r3, #2
 8000ba2:	b2db      	uxtb	r3, r3
 8000ba4:	f003 030f 	and.w	r3, r3, #15
 8000ba8:	73fb      	strb	r3, [r7, #15]
 8000baa:	7bfc      	ldrb	r4, [r7, #15]
 8000bac:	683b      	ldr	r3, [r7, #0]
 8000bae:	881b      	ldrh	r3, [r3, #0]
 8000bb0:	4618      	mov	r0, r3
 8000bb2:	f7ff fefb 	bl	80009ac <Get_PinPostion>
 8000bb6:	4603      	mov	r3, r0
 8000bb8:	fa04 f203 	lsl.w	r2, r4, r3
 8000bbc:	68bb      	ldr	r3, [r7, #8]
 8000bbe:	681b      	ldr	r3, [r3, #0]
 8000bc0:	431a      	orrs	r2, r3
 8000bc2:	68bb      	ldr	r3, [r7, #8]
 8000bc4:	601a      	str	r2, [r3, #0]
 8000bc6:	e054      	b.n	8000c72 <GPIO_Init+0x182>
 8000bc8:	683b      	ldr	r3, [r7, #0]
 8000bca:	885b      	ldrh	r3, [r3, #2]
 8000bcc:	2b02      	cmp	r3, #2
 8000bce:	d003      	beq.n	8000bd8 <GPIO_Init+0xe8>
 8000bd0:	683b      	ldr	r3, [r7, #0]
 8000bd2:	885b      	ldrh	r3, [r3, #2]
 8000bd4:	2b03      	cmp	r3, #3
 8000bd6:	d135      	bne.n	8000c44 <GPIO_Init+0x154>
 8000bd8:	683b      	ldr	r3, [r7, #0]
 8000bda:	885b      	ldrh	r3, [r3, #2]
 8000bdc:	2b02      	cmp	r3, #2
 8000bde:	d002      	beq.n	8000be6 <GPIO_Init+0xf6>
 8000be0:	2b03      	cmp	r3, #3
 8000be2:	d00f      	beq.n	8000c04 <GPIO_Init+0x114>
 8000be4:	e01f      	b.n	8000c26 <GPIO_Init+0x136>
 8000be6:	687b      	ldr	r3, [r7, #4]
 8000be8:	68db      	ldr	r3, [r3, #12]
 8000bea:	683a      	ldr	r2, [r7, #0]
 8000bec:	8812      	ldrh	r2, [r2, #0]
 8000bee:	431a      	orrs	r2, r3
 8000bf0:	687b      	ldr	r3, [r7, #4]
 8000bf2:	60da      	str	r2, [r3, #12]
 8000bf4:	683b      	ldr	r3, [r7, #0]
 8000bf6:	885b      	ldrh	r3, [r3, #2]
 8000bf8:	009b      	lsls	r3, r3, #2
 8000bfa:	b2db      	uxtb	r3, r3
 8000bfc:	f003 030f 	and.w	r3, r3, #15
 8000c00:	73fb      	strb	r3, [r7, #15]
 8000c02:	e010      	b.n	8000c26 <GPIO_Init+0x136>
 8000c04:	687b      	ldr	r3, [r7, #4]
 8000c06:	68db      	ldr	r3, [r3, #12]
 8000c08:	683a      	ldr	r2, [r7, #0]
 8000c0a:	8812      	ldrh	r2, [r2, #0]
 8000c0c:	43d2      	mvns	r2, r2
 8000c0e:	401a      	ands	r2, r3
 8000c10:	687b      	ldr	r3, [r7, #4]
 8000c12:	60da      	str	r2, [r3, #12]
 8000c14:	683b      	ldr	r3, [r7, #0]
 8000c16:	885b      	ldrh	r3, [r3, #2]
 8000c18:	3b01      	subs	r3, #1
 8000c1a:	009b      	lsls	r3, r3, #2
 8000c1c:	b2db      	uxtb	r3, r3
 8000c1e:	f003 030f 	and.w	r3, r3, #15
 8000c22:	73fb      	strb	r3, [r7, #15]
 8000c24:	bf00      	nop
 8000c26:	7bfc      	ldrb	r4, [r7, #15]
 8000c28:	683b      	ldr	r3, [r7, #0]
 8000c2a:	881b      	ldrh	r3, [r3, #0]
 8000c2c:	4618      	mov	r0, r3
 8000c2e:	f7ff febd 	bl	80009ac <Get_PinPostion>
 8000c32:	4603      	mov	r3, r0
 8000c34:	fa04 f203 	lsl.w	r2, r4, r3
 8000c38:	68bb      	ldr	r3, [r7, #8]
 8000c3a:	681b      	ldr	r3, [r3, #0]
 8000c3c:	431a      	orrs	r2, r3
 8000c3e:	68bb      	ldr	r3, [r7, #8]
 8000c40:	601a      	str	r2, [r3, #0]
 8000c42:	e016      	b.n	8000c72 <GPIO_Init+0x182>
 8000c44:	683b      	ldr	r3, [r7, #0]
 8000c46:	885b      	ldrh	r3, [r3, #2]
 8000c48:	3b07      	subs	r3, #7
 8000c4a:	009b      	lsls	r3, r3, #2
 8000c4c:	b2db      	uxtb	r3, r3
 8000c4e:	f003 030f 	and.w	r3, r3, #15
 8000c52:	73fb      	strb	r3, [r7, #15]
 8000c54:	7bfc      	ldrb	r4, [r7, #15]
 8000c56:	683b      	ldr	r3, [r7, #0]
 8000c58:	881b      	ldrh	r3, [r3, #0]
 8000c5a:	4618      	mov	r0, r3
 8000c5c:	f7ff fea6 	bl	80009ac <Get_PinPostion>
 8000c60:	4603      	mov	r3, r0
 8000c62:	fa04 f203 	lsl.w	r2, r4, r3
 8000c66:	68bb      	ldr	r3, [r7, #8]
 8000c68:	681b      	ldr	r3, [r3, #0]
 8000c6a:	431a      	orrs	r2, r3
 8000c6c:	68bb      	ldr	r3, [r7, #8]
 8000c6e:	601a      	str	r2, [r3, #0]
 8000c70:	bf00      	nop
 8000c72:	bf00      	nop
 8000c74:	3714      	adds	r7, #20
 8000c76:	46bd      	mov	sp, r7
 8000c78:	bd90      	pop	{r4, r7, pc}
	...

08000c7c <__libc_init_array>:
 8000c7c:	b570      	push	{r4, r5, r6, lr}
 8000c7e:	2600      	movs	r6, #0
 8000c80:	4d0c      	ldr	r5, [pc, #48]	; (8000cb4 <__libc_init_array+0x38>)
 8000c82:	4c0d      	ldr	r4, [pc, #52]	; (8000cb8 <__libc_init_array+0x3c>)
 8000c84:	1b64      	subs	r4, r4, r5
 8000c86:	10a4      	asrs	r4, r4, #2
 8000c88:	42a6      	cmp	r6, r4
 8000c8a:	d109      	bne.n	8000ca0 <__libc_init_array+0x24>
 8000c8c:	f000 f81a 	bl	8000cc4 <_init>
 8000c90:	2600      	movs	r6, #0
 8000c92:	4d0a      	ldr	r5, [pc, #40]	; (8000cbc <__libc_init_array+0x40>)
 8000c94:	4c0a      	ldr	r4, [pc, #40]	; (8000cc0 <__libc_init_array+0x44>)
 8000c96:	1b64      	subs	r4, r4, r5
 8000c98:	10a4      	asrs	r4, r4, #2
 8000c9a:	42a6      	cmp	r6, r4
 8000c9c:	d105      	bne.n	8000caa <__libc_init_array+0x2e>
 8000c9e:	bd70      	pop	{r4, r5, r6, pc}
 8000ca0:	f855 3b04 	ldr.w	r3, [r5], #4
 8000ca4:	4798      	blx	r3
 8000ca6:	3601      	adds	r6, #1
 8000ca8:	e7ee      	b.n	8000c88 <__libc_init_array+0xc>
 8000caa:	f855 3b04 	ldr.w	r3, [r5], #4
 8000cae:	4798      	blx	r3
 8000cb0:	3601      	adds	r6, #1
 8000cb2:	e7f2      	b.n	8000c9a <__libc_init_array+0x1e>
 8000cb4:	08000ce8 	stmdaeq	r0, {r3, r5, r6, r7, sl, fp}
 8000cb8:	08000ce8 	stmdaeq	r0, {r3, r5, r6, r7, sl, fp}
 8000cbc:	08000ce8 	stmdaeq	r0, {r3, r5, r6, r7, sl, fp}
 8000cc0:	08000cec 	stmdaeq	r0, {r2, r3, r5, r6, r7, sl, fp}

08000cc4 <_init>:
 8000cc4:	b5f8      	push	{r3, r4, r5, r6, r7, lr}
 8000cc6:	bf00      	nop
 8000cc8:	bcf8      	pop	{r3, r4, r5, r6, r7}
 8000cca:	bc08      	pop	{r3}
 8000ccc:	469e      	mov	lr, r3
 8000cce:	4770      	bx	lr

08000cd0 <_fini>:
 8000cd0:	b5f8      	push	{r3, r4, r5, r6, r7, lr}
 8000cd2:	bf00      	nop
 8000cd4:	bcf8      	pop	{r3, r4, r5, r6, r7}
 8000cd6:	bc08      	pop	{r3}
 8000cd8:	469e      	mov	lr, r3
 8000cda:	4770      	bx	lr
